
PrimeraVezRtos.elf:     file format elf32-littlearm

Sections:
Idx Name          Size      VMA       LMA       File off  Algn
  0 .isr_vector   00000198  08000000  08000000  00010000  2**0
                  CONTENTS, ALLOC, LOAD, READONLY, DATA
  1 .text         000063dc  080001a0  080001a0  000101a0  2**4
                  CONTENTS, ALLOC, LOAD, READONLY, CODE
  2 .rodata       00000110  0800657c  0800657c  0001657c  2**2
                  CONTENTS, ALLOC, LOAD, READONLY, DATA
  3 .ARM.extab    00000000  0800668c  0800668c  0002007c  2**0
                  CONTENTS
  4 .ARM          00000008  0800668c  0800668c  0001668c  2**2
                  CONTENTS, ALLOC, LOAD, READONLY, DATA
  5 .preinit_array 00000000  08006694  08006694  0002007c  2**0
                  CONTENTS, ALLOC, LOAD, DATA
  6 .init_array   00000004  08006694  08006694  00016694  2**2
                  CONTENTS, ALLOC, LOAD, DATA
  7 .fini_array   00000004  08006698  08006698  00016698  2**2
                  CONTENTS, ALLOC, LOAD, DATA
  8 .data         0000007c  20000000  0800669c  00020000  2**2
                  CONTENTS, ALLOC, LOAD, DATA
  9 .bss          00004b4c  2000007c  08006718  0002007c  2**2
                  ALLOC
 10 ._user_heap_stack 00000600  20004bc8  08006718  00024bc8  2**0
                  ALLOC
 11 .ARM.attributes 00000030  00000000  00000000  0002007c  2**0
                  CONTENTS, READONLY
 12 .debug_info   00017b5e  00000000  00000000  000200ac  2**0
                  CONTENTS, READONLY, DEBUGGING, OCTETS
 13 .debug_abbrev 000030f5  00000000  00000000  00037c0a  2**0
                  CONTENTS, READONLY, DEBUGGING, OCTETS
 14 .debug_aranges 00001408  00000000  00000000  0003ad00  2**3
                  CONTENTS, READONLY, DEBUGGING, OCTETS
 15 .debug_ranges 000012f0  00000000  00000000  0003c108  2**3
                  CONTENTS, READONLY, DEBUGGING, OCTETS
 16 .debug_macro  000030dd  00000000  00000000  0003d3f8  2**0
                  CONTENTS, READONLY, DEBUGGING, OCTETS
 17 .debug_line   00015275  00000000  00000000  000404d5  2**0
                  CONTENTS, READONLY, DEBUGGING, OCTETS
 18 .debug_str    00097c5d  00000000  00000000  0005574a  2**0
                  CONTENTS, READONLY, DEBUGGING, OCTETS
 19 .comment      00000050  00000000  00000000  000ed3a7  2**0
                  CONTENTS, READONLY
 20 .debug_frame  00005860  00000000  00000000  000ed3f8  2**2
                  CONTENTS, READONLY, DEBUGGING, OCTETS

Disassembly of section .text:

080001a0 <__do_global_dtors_aux>:
 80001a0:	b510      	push	{r4, lr}
 80001a2:	4c05      	ldr	r4, [pc, #20]	; (80001b8 <__do_global_dtors_aux+0x18>)
 80001a4:	7823      	ldrb	r3, [r4, #0]
 80001a6:	b933      	cbnz	r3, 80001b6 <__do_global_dtors_aux+0x16>
 80001a8:	4b04      	ldr	r3, [pc, #16]	; (80001bc <__do_global_dtors_aux+0x1c>)
 80001aa:	b113      	cbz	r3, 80001b2 <__do_global_dtors_aux+0x12>
 80001ac:	4804      	ldr	r0, [pc, #16]	; (80001c0 <__do_global_dtors_aux+0x20>)
 80001ae:	f3af 8000 	nop.w
 80001b2:	2301      	movs	r3, #1
 80001b4:	7023      	strb	r3, [r4, #0]
 80001b6:	bd10      	pop	{r4, pc}
 80001b8:	2000007c 	.word	0x2000007c
 80001bc:	00000000 	.word	0x00000000
 80001c0:	08006564 	.word	0x08006564

080001c4 <frame_dummy>:
 80001c4:	b508      	push	{r3, lr}
 80001c6:	4b03      	ldr	r3, [pc, #12]	; (80001d4 <frame_dummy+0x10>)
 80001c8:	b11b      	cbz	r3, 80001d2 <frame_dummy+0xe>
 80001ca:	4903      	ldr	r1, [pc, #12]	; (80001d8 <frame_dummy+0x14>)
 80001cc:	4803      	ldr	r0, [pc, #12]	; (80001dc <frame_dummy+0x18>)
 80001ce:	f3af 8000 	nop.w
 80001d2:	bd08      	pop	{r3, pc}
 80001d4:	00000000 	.word	0x00000000
 80001d8:	20000080 	.word	0x20000080
 80001dc:	08006564 	.word	0x08006564

080001e0 <strlen>:
 80001e0:	4603      	mov	r3, r0
 80001e2:	f813 2b01 	ldrb.w	r2, [r3], #1
 80001e6:	2a00      	cmp	r2, #0
 80001e8:	d1fb      	bne.n	80001e2 <strlen+0x2>
 80001ea:	1a18      	subs	r0, r3, r0
 80001ec:	3801      	subs	r0, #1
 80001ee:	4770      	bx	lr

080001f0 <memchr>:
 80001f0:	f001 01ff 	and.w	r1, r1, #255	; 0xff
 80001f4:	2a10      	cmp	r2, #16
 80001f6:	db2b      	blt.n	8000250 <memchr+0x60>
 80001f8:	f010 0f07 	tst.w	r0, #7
 80001fc:	d008      	beq.n	8000210 <memchr+0x20>
 80001fe:	f810 3b01 	ldrb.w	r3, [r0], #1
 8000202:	3a01      	subs	r2, #1
 8000204:	428b      	cmp	r3, r1
 8000206:	d02d      	beq.n	8000264 <memchr+0x74>
 8000208:	f010 0f07 	tst.w	r0, #7
 800020c:	b342      	cbz	r2, 8000260 <memchr+0x70>
 800020e:	d1f6      	bne.n	80001fe <memchr+0xe>
 8000210:	b4f0      	push	{r4, r5, r6, r7}
 8000212:	ea41 2101 	orr.w	r1, r1, r1, lsl #8
 8000216:	ea41 4101 	orr.w	r1, r1, r1, lsl #16
 800021a:	f022 0407 	bic.w	r4, r2, #7
 800021e:	f07f 0700 	mvns.w	r7, #0
 8000222:	2300      	movs	r3, #0
 8000224:	e8f0 5602 	ldrd	r5, r6, [r0], #8
 8000228:	3c08      	subs	r4, #8
 800022a:	ea85 0501 	eor.w	r5, r5, r1
 800022e:	ea86 0601 	eor.w	r6, r6, r1
 8000232:	fa85 f547 	uadd8	r5, r5, r7
 8000236:	faa3 f587 	sel	r5, r3, r7
 800023a:	fa86 f647 	uadd8	r6, r6, r7
 800023e:	faa5 f687 	sel	r6, r5, r7
 8000242:	b98e      	cbnz	r6, 8000268 <memchr+0x78>
 8000244:	d1ee      	bne.n	8000224 <memchr+0x34>
 8000246:	bcf0      	pop	{r4, r5, r6, r7}
 8000248:	f001 01ff 	and.w	r1, r1, #255	; 0xff
 800024c:	f002 0207 	and.w	r2, r2, #7
 8000250:	b132      	cbz	r2, 8000260 <memchr+0x70>
 8000252:	f810 3b01 	ldrb.w	r3, [r0], #1
 8000256:	3a01      	subs	r2, #1
 8000258:	ea83 0301 	eor.w	r3, r3, r1
 800025c:	b113      	cbz	r3, 8000264 <memchr+0x74>
 800025e:	d1f8      	bne.n	8000252 <memchr+0x62>
 8000260:	2000      	movs	r0, #0
 8000262:	4770      	bx	lr
 8000264:	3801      	subs	r0, #1
 8000266:	4770      	bx	lr
 8000268:	2d00      	cmp	r5, #0
 800026a:	bf06      	itte	eq
 800026c:	4635      	moveq	r5, r6
 800026e:	3803      	subeq	r0, #3
 8000270:	3807      	subne	r0, #7
 8000272:	f015 0f01 	tst.w	r5, #1
 8000276:	d107      	bne.n	8000288 <memchr+0x98>
 8000278:	3001      	adds	r0, #1
 800027a:	f415 7f80 	tst.w	r5, #256	; 0x100
 800027e:	bf02      	ittt	eq
 8000280:	3001      	addeq	r0, #1
 8000282:	f415 3fc0 	tsteq.w	r5, #98304	; 0x18000
 8000286:	3001      	addeq	r0, #1
 8000288:	bcf0      	pop	{r4, r5, r6, r7}
 800028a:	3801      	subs	r0, #1
 800028c:	4770      	bx	lr
 800028e:	bf00      	nop

08000290 <__aeabi_uldivmod>:
 8000290:	b953      	cbnz	r3, 80002a8 <__aeabi_uldivmod+0x18>
 8000292:	b94a      	cbnz	r2, 80002a8 <__aeabi_uldivmod+0x18>
 8000294:	2900      	cmp	r1, #0
 8000296:	bf08      	it	eq
 8000298:	2800      	cmpeq	r0, #0
 800029a:	bf1c      	itt	ne
 800029c:	f04f 31ff 	movne.w	r1, #4294967295
 80002a0:	f04f 30ff 	movne.w	r0, #4294967295
 80002a4:	f000 b974 	b.w	8000590 <__aeabi_idiv0>
 80002a8:	f1ad 0c08 	sub.w	ip, sp, #8
 80002ac:	e96d ce04 	strd	ip, lr, [sp, #-16]!
 80002b0:	f000 f806 	bl	80002c0 <__udivmoddi4>
 80002b4:	f8dd e004 	ldr.w	lr, [sp, #4]
 80002b8:	e9dd 2302 	ldrd	r2, r3, [sp, #8]
 80002bc:	b004      	add	sp, #16
 80002be:	4770      	bx	lr

080002c0 <__udivmoddi4>:
 80002c0:	e92d 47f0 	stmdb	sp!, {r4, r5, r6, r7, r8, r9, sl, lr}
 80002c4:	9d08      	ldr	r5, [sp, #32]
 80002c6:	4604      	mov	r4, r0
 80002c8:	468e      	mov	lr, r1
 80002ca:	2b00      	cmp	r3, #0
 80002cc:	d14d      	bne.n	800036a <__udivmoddi4+0xaa>
 80002ce:	428a      	cmp	r2, r1
 80002d0:	4694      	mov	ip, r2
 80002d2:	d969      	bls.n	80003a8 <__udivmoddi4+0xe8>
 80002d4:	fab2 f282 	clz	r2, r2
 80002d8:	b152      	cbz	r2, 80002f0 <__udivmoddi4+0x30>
 80002da:	fa01 f302 	lsl.w	r3, r1, r2
 80002de:	f1c2 0120 	rsb	r1, r2, #32
 80002e2:	fa20 f101 	lsr.w	r1, r0, r1
 80002e6:	fa0c fc02 	lsl.w	ip, ip, r2
 80002ea:	ea41 0e03 	orr.w	lr, r1, r3
 80002ee:	4094      	lsls	r4, r2
 80002f0:	ea4f 481c 	mov.w	r8, ip, lsr #16
 80002f4:	0c21      	lsrs	r1, r4, #16
 80002f6:	fbbe f6f8 	udiv	r6, lr, r8
 80002fa:	fa1f f78c 	uxth.w	r7, ip
 80002fe:	fb08 e316 	mls	r3, r8, r6, lr
 8000302:	ea41 4303 	orr.w	r3, r1, r3, lsl #16
 8000306:	fb06 f107 	mul.w	r1, r6, r7
 800030a:	4299      	cmp	r1, r3
 800030c:	d90a      	bls.n	8000324 <__udivmoddi4+0x64>
 800030e:	eb1c 0303 	adds.w	r3, ip, r3
 8000312:	f106 30ff 	add.w	r0, r6, #4294967295
 8000316:	f080 811f 	bcs.w	8000558 <__udivmoddi4+0x298>
 800031a:	4299      	cmp	r1, r3
 800031c:	f240 811c 	bls.w	8000558 <__udivmoddi4+0x298>
 8000320:	3e02      	subs	r6, #2
 8000322:	4463      	add	r3, ip
 8000324:	1a5b      	subs	r3, r3, r1
 8000326:	b2a4      	uxth	r4, r4
 8000328:	fbb3 f0f8 	udiv	r0, r3, r8
 800032c:	fb08 3310 	mls	r3, r8, r0, r3
 8000330:	ea44 4403 	orr.w	r4, r4, r3, lsl #16
 8000334:	fb00 f707 	mul.w	r7, r0, r7
 8000338:	42a7      	cmp	r7, r4
 800033a:	d90a      	bls.n	8000352 <__udivmoddi4+0x92>
 800033c:	eb1c 0404 	adds.w	r4, ip, r4
 8000340:	f100 33ff 	add.w	r3, r0, #4294967295
 8000344:	f080 810a 	bcs.w	800055c <__udivmoddi4+0x29c>
 8000348:	42a7      	cmp	r7, r4
 800034a:	f240 8107 	bls.w	800055c <__udivmoddi4+0x29c>
 800034e:	4464      	add	r4, ip
 8000350:	3802      	subs	r0, #2
 8000352:	ea40 4006 	orr.w	r0, r0, r6, lsl #16
 8000356:	1be4      	subs	r4, r4, r7
 8000358:	2600      	movs	r6, #0
 800035a:	b11d      	cbz	r5, 8000364 <__udivmoddi4+0xa4>
 800035c:	40d4      	lsrs	r4, r2
 800035e:	2300      	movs	r3, #0
 8000360:	e9c5 4300 	strd	r4, r3, [r5]
 8000364:	4631      	mov	r1, r6
 8000366:	e8bd 87f0 	ldmia.w	sp!, {r4, r5, r6, r7, r8, r9, sl, pc}
 800036a:	428b      	cmp	r3, r1
 800036c:	d909      	bls.n	8000382 <__udivmoddi4+0xc2>
 800036e:	2d00      	cmp	r5, #0
 8000370:	f000 80ef 	beq.w	8000552 <__udivmoddi4+0x292>
 8000374:	2600      	movs	r6, #0
 8000376:	e9c5 0100 	strd	r0, r1, [r5]
 800037a:	4630      	mov	r0, r6
 800037c:	4631      	mov	r1, r6
 800037e:	e8bd 87f0 	ldmia.w	sp!, {r4, r5, r6, r7, r8, r9, sl, pc}
 8000382:	fab3 f683 	clz	r6, r3
 8000386:	2e00      	cmp	r6, #0
 8000388:	d14a      	bne.n	8000420 <__udivmoddi4+0x160>
 800038a:	428b      	cmp	r3, r1
 800038c:	d302      	bcc.n	8000394 <__udivmoddi4+0xd4>
 800038e:	4282      	cmp	r2, r0
 8000390:	f200 80f9 	bhi.w	8000586 <__udivmoddi4+0x2c6>
 8000394:	1a84      	subs	r4, r0, r2
 8000396:	eb61 0303 	sbc.w	r3, r1, r3
 800039a:	2001      	movs	r0, #1
 800039c:	469e      	mov	lr, r3
 800039e:	2d00      	cmp	r5, #0
 80003a0:	d0e0      	beq.n	8000364 <__udivmoddi4+0xa4>
 80003a2:	e9c5 4e00 	strd	r4, lr, [r5]
 80003a6:	e7dd      	b.n	8000364 <__udivmoddi4+0xa4>
 80003a8:	b902      	cbnz	r2, 80003ac <__udivmoddi4+0xec>
 80003aa:	deff      	udf	#255	; 0xff
 80003ac:	fab2 f282 	clz	r2, r2
 80003b0:	2a00      	cmp	r2, #0
 80003b2:	f040 8092 	bne.w	80004da <__udivmoddi4+0x21a>
 80003b6:	eba1 010c 	sub.w	r1, r1, ip
 80003ba:	ea4f 471c 	mov.w	r7, ip, lsr #16
 80003be:	fa1f fe8c 	uxth.w	lr, ip
 80003c2:	2601      	movs	r6, #1
 80003c4:	0c20      	lsrs	r0, r4, #16
 80003c6:	fbb1 f3f7 	udiv	r3, r1, r7
 80003ca:	fb07 1113 	mls	r1, r7, r3, r1
 80003ce:	ea40 4101 	orr.w	r1, r0, r1, lsl #16
 80003d2:	fb0e f003 	mul.w	r0, lr, r3
 80003d6:	4288      	cmp	r0, r1
 80003d8:	d908      	bls.n	80003ec <__udivmoddi4+0x12c>
 80003da:	eb1c 0101 	adds.w	r1, ip, r1
 80003de:	f103 38ff 	add.w	r8, r3, #4294967295
 80003e2:	d202      	bcs.n	80003ea <__udivmoddi4+0x12a>
 80003e4:	4288      	cmp	r0, r1
 80003e6:	f200 80cb 	bhi.w	8000580 <__udivmoddi4+0x2c0>
 80003ea:	4643      	mov	r3, r8
 80003ec:	1a09      	subs	r1, r1, r0
 80003ee:	b2a4      	uxth	r4, r4
 80003f0:	fbb1 f0f7 	udiv	r0, r1, r7
 80003f4:	fb07 1110 	mls	r1, r7, r0, r1
 80003f8:	ea44 4401 	orr.w	r4, r4, r1, lsl #16
 80003fc:	fb0e fe00 	mul.w	lr, lr, r0
 8000400:	45a6      	cmp	lr, r4
 8000402:	d908      	bls.n	8000416 <__udivmoddi4+0x156>
 8000404:	eb1c 0404 	adds.w	r4, ip, r4
 8000408:	f100 31ff 	add.w	r1, r0, #4294967295
 800040c:	d202      	bcs.n	8000414 <__udivmoddi4+0x154>
 800040e:	45a6      	cmp	lr, r4
 8000410:	f200 80bb 	bhi.w	800058a <__udivmoddi4+0x2ca>
 8000414:	4608      	mov	r0, r1
 8000416:	eba4 040e 	sub.w	r4, r4, lr
 800041a:	ea40 4003 	orr.w	r0, r0, r3, lsl #16
 800041e:	e79c      	b.n	800035a <__udivmoddi4+0x9a>
 8000420:	f1c6 0720 	rsb	r7, r6, #32
 8000424:	40b3      	lsls	r3, r6
 8000426:	fa22 fc07 	lsr.w	ip, r2, r7
 800042a:	ea4c 0c03 	orr.w	ip, ip, r3
 800042e:	fa20 f407 	lsr.w	r4, r0, r7
 8000432:	fa01 f306 	lsl.w	r3, r1, r6
 8000436:	431c      	orrs	r4, r3
 8000438:	40f9      	lsrs	r1, r7
 800043a:	ea4f 491c 	mov.w	r9, ip, lsr #16
 800043e:	fa00 f306 	lsl.w	r3, r0, r6
 8000442:	fbb1 f8f9 	udiv	r8, r1, r9
 8000446:	0c20      	lsrs	r0, r4, #16
 8000448:	fa1f fe8c 	uxth.w	lr, ip
 800044c:	fb09 1118 	mls	r1, r9, r8, r1
 8000450:	ea40 4101 	orr.w	r1, r0, r1, lsl #16
 8000454:	fb08 f00e 	mul.w	r0, r8, lr
 8000458:	4288      	cmp	r0, r1
 800045a:	fa02 f206 	lsl.w	r2, r2, r6
 800045e:	d90b      	bls.n	8000478 <__udivmoddi4+0x1b8>
 8000460:	eb1c 0101 	adds.w	r1, ip, r1
 8000464:	f108 3aff 	add.w	sl, r8, #4294967295
 8000468:	f080 8088 	bcs.w	800057c <__udivmoddi4+0x2bc>
 800046c:	4288      	cmp	r0, r1
 800046e:	f240 8085 	bls.w	800057c <__udivmoddi4+0x2bc>
 8000472:	f1a8 0802 	sub.w	r8, r8, #2
 8000476:	4461      	add	r1, ip
 8000478:	1a09      	subs	r1, r1, r0
 800047a:	b2a4      	uxth	r4, r4
 800047c:	fbb1 f0f9 	udiv	r0, r1, r9
 8000480:	fb09 1110 	mls	r1, r9, r0, r1
 8000484:	ea44 4101 	orr.w	r1, r4, r1, lsl #16
 8000488:	fb00 fe0e 	mul.w	lr, r0, lr
 800048c:	458e      	cmp	lr, r1
 800048e:	d908      	bls.n	80004a2 <__udivmoddi4+0x1e2>
 8000490:	eb1c 0101 	adds.w	r1, ip, r1
 8000494:	f100 34ff 	add.w	r4, r0, #4294967295
 8000498:	d26c      	bcs.n	8000574 <__udivmoddi4+0x2b4>
 800049a:	458e      	cmp	lr, r1
 800049c:	d96a      	bls.n	8000574 <__udivmoddi4+0x2b4>
 800049e:	3802      	subs	r0, #2
 80004a0:	4461      	add	r1, ip
 80004a2:	ea40 4008 	orr.w	r0, r0, r8, lsl #16
 80004a6:	fba0 9402 	umull	r9, r4, r0, r2
 80004aa:	eba1 010e 	sub.w	r1, r1, lr
 80004ae:	42a1      	cmp	r1, r4
 80004b0:	46c8      	mov	r8, r9
 80004b2:	46a6      	mov	lr, r4
 80004b4:	d356      	bcc.n	8000564 <__udivmoddi4+0x2a4>
 80004b6:	d053      	beq.n	8000560 <__udivmoddi4+0x2a0>
 80004b8:	b15d      	cbz	r5, 80004d2 <__udivmoddi4+0x212>
 80004ba:	ebb3 0208 	subs.w	r2, r3, r8
 80004be:	eb61 010e 	sbc.w	r1, r1, lr
 80004c2:	fa01 f707 	lsl.w	r7, r1, r7
 80004c6:	fa22 f306 	lsr.w	r3, r2, r6
 80004ca:	40f1      	lsrs	r1, r6
 80004cc:	431f      	orrs	r7, r3
 80004ce:	e9c5 7100 	strd	r7, r1, [r5]
 80004d2:	2600      	movs	r6, #0
 80004d4:	4631      	mov	r1, r6
 80004d6:	e8bd 87f0 	ldmia.w	sp!, {r4, r5, r6, r7, r8, r9, sl, pc}
 80004da:	f1c2 0320 	rsb	r3, r2, #32
 80004de:	40d8      	lsrs	r0, r3
 80004e0:	fa0c fc02 	lsl.w	ip, ip, r2
 80004e4:	fa21 f303 	lsr.w	r3, r1, r3
 80004e8:	4091      	lsls	r1, r2
 80004ea:	4301      	orrs	r1, r0
 80004ec:	ea4f 471c 	mov.w	r7, ip, lsr #16
 80004f0:	fa1f fe8c 	uxth.w	lr, ip
 80004f4:	fbb3 f0f7 	udiv	r0, r3, r7
 80004f8:	fb07 3610 	mls	r6, r7, r0, r3
 80004fc:	0c0b      	lsrs	r3, r1, #16
 80004fe:	ea43 4306 	orr.w	r3, r3, r6, lsl #16
 8000502:	fb00 f60e 	mul.w	r6, r0, lr
 8000506:	429e      	cmp	r6, r3
 8000508:	fa04 f402 	lsl.w	r4, r4, r2
 800050c:	d908      	bls.n	8000520 <__udivmoddi4+0x260>
 800050e:	eb1c 0303 	adds.w	r3, ip, r3
 8000512:	f100 38ff 	add.w	r8, r0, #4294967295
 8000516:	d22f      	bcs.n	8000578 <__udivmoddi4+0x2b8>
 8000518:	429e      	cmp	r6, r3
 800051a:	d92d      	bls.n	8000578 <__udivmoddi4+0x2b8>
 800051c:	3802      	subs	r0, #2
 800051e:	4463      	add	r3, ip
 8000520:	1b9b      	subs	r3, r3, r6
 8000522:	b289      	uxth	r1, r1
 8000524:	fbb3 f6f7 	udiv	r6, r3, r7
 8000528:	fb07 3316 	mls	r3, r7, r6, r3
 800052c:	ea41 4103 	orr.w	r1, r1, r3, lsl #16
 8000530:	fb06 f30e 	mul.w	r3, r6, lr
 8000534:	428b      	cmp	r3, r1
 8000536:	d908      	bls.n	800054a <__udivmoddi4+0x28a>
 8000538:	eb1c 0101 	adds.w	r1, ip, r1
 800053c:	f106 38ff 	add.w	r8, r6, #4294967295
 8000540:	d216      	bcs.n	8000570 <__udivmoddi4+0x2b0>
 8000542:	428b      	cmp	r3, r1
 8000544:	d914      	bls.n	8000570 <__udivmoddi4+0x2b0>
 8000546:	3e02      	subs	r6, #2
 8000548:	4461      	add	r1, ip
 800054a:	1ac9      	subs	r1, r1, r3
 800054c:	ea46 4600 	orr.w	r6, r6, r0, lsl #16
 8000550:	e738      	b.n	80003c4 <__udivmoddi4+0x104>
 8000552:	462e      	mov	r6, r5
 8000554:	4628      	mov	r0, r5
 8000556:	e705      	b.n	8000364 <__udivmoddi4+0xa4>
 8000558:	4606      	mov	r6, r0
 800055a:	e6e3      	b.n	8000324 <__udivmoddi4+0x64>
 800055c:	4618      	mov	r0, r3
 800055e:	e6f8      	b.n	8000352 <__udivmoddi4+0x92>
 8000560:	454b      	cmp	r3, r9
 8000562:	d2a9      	bcs.n	80004b8 <__udivmoddi4+0x1f8>
 8000564:	ebb9 0802 	subs.w	r8, r9, r2
 8000568:	eb64 0e0c 	sbc.w	lr, r4, ip
 800056c:	3801      	subs	r0, #1
 800056e:	e7a3      	b.n	80004b8 <__udivmoddi4+0x1f8>
 8000570:	4646      	mov	r6, r8
 8000572:	e7ea      	b.n	800054a <__udivmoddi4+0x28a>
 8000574:	4620      	mov	r0, r4
 8000576:	e794      	b.n	80004a2 <__udivmoddi4+0x1e2>
 8000578:	4640      	mov	r0, r8
 800057a:	e7d1      	b.n	8000520 <__udivmoddi4+0x260>
 800057c:	46d0      	mov	r8, sl
 800057e:	e77b      	b.n	8000478 <__udivmoddi4+0x1b8>
 8000580:	3b02      	subs	r3, #2
 8000582:	4461      	add	r1, ip
 8000584:	e732      	b.n	80003ec <__udivmoddi4+0x12c>
 8000586:	4630      	mov	r0, r6
 8000588:	e709      	b.n	800039e <__udivmoddi4+0xde>
 800058a:	4464      	add	r4, ip
 800058c:	3802      	subs	r0, #2
 800058e:	e742      	b.n	8000416 <__udivmoddi4+0x156>

08000590 <__aeabi_idiv0>:
 8000590:	4770      	bx	lr
 8000592:	bf00      	nop

08000594 <main>:
/**
  * @brief  The application entry point.
  * @retval int
  */
int main(void)
{
 8000594:	b580      	push	{r7, lr}
 8000596:	af00      	add	r7, sp, #0
  /* USER CODE END 1 */

  /* MCU Configuration--------------------------------------------------------*/

  /* Reset of all peripherals, Initializes the Flash interface and the Systick. */
  HAL_Init();
 8000598:	f000 fd8e 	bl	80010b8 <HAL_Init>
  /* USER CODE BEGIN Init */

  /* USER CODE END Init */

  /* Configure the system clock */
  SystemClock_Config();
 800059c:	f000 f83a 	bl	8000614 <SystemClock_Config>
  /* USER CODE BEGIN SysInit */

  /* USER CODE END SysInit */

  /* Initialize all configured peripherals */
  MX_GPIO_Init();
 80005a0:	f000 f9b4 	bl	800090c <MX_GPIO_Init>
  MX_USART2_UART_Init();
 80005a4:	f000 f988 	bl	80008b8 <MX_USART2_UART_Init>
  MX_TIM3_Init();
 80005a8:	f000 f89e 	bl	80006e8 <MX_TIM3_Init>
  MX_TIM4_Init();
 80005ac:	f000 f8ea 	bl	8000784 <MX_TIM4_Init>
  MX_TIM5_Init();
 80005b0:	f000 f936 	bl	8000820 <MX_TIM5_Init>
  /* USER CODE BEGIN 2 */

  /* USER CODE END 2 */

  /* Init scheduler */
  osKernelInitialize();
 80005b4:	f002 fdd0 	bl	8003158 <osKernelInitialize>
  /* add queues, ... */
  /* USER CODE END RTOS_QUEUES */

  /* Create the thread(s) */
  /* creation of Task1 */
  Task1Handle = osThreadNew(SenalCuadrada, NULL, &Task1_attributes);
 80005b8:	4a0d      	ldr	r2, [pc, #52]	; (80005f0 <main+0x5c>)
 80005ba:	2100      	movs	r1, #0
 80005bc:	480d      	ldr	r0, [pc, #52]	; (80005f4 <main+0x60>)
 80005be:	f002 fe15 	bl	80031ec <osThreadNew>
 80005c2:	4603      	mov	r3, r0
 80005c4:	4a0c      	ldr	r2, [pc, #48]	; (80005f8 <main+0x64>)
 80005c6:	6013      	str	r3, [r2, #0]

  /* creation of Task2 */
  Task2Handle = osThreadNew(Cedula, NULL, &Task2_attributes);
 80005c8:	4a0c      	ldr	r2, [pc, #48]	; (80005fc <main+0x68>)
 80005ca:	2100      	movs	r1, #0
 80005cc:	480c      	ldr	r0, [pc, #48]	; (8000600 <main+0x6c>)
 80005ce:	f002 fe0d 	bl	80031ec <osThreadNew>
 80005d2:	4603      	mov	r3, r0
 80005d4:	4a0b      	ldr	r2, [pc, #44]	; (8000604 <main+0x70>)
 80005d6:	6013      	str	r3, [r2, #0]

  /* creation of Task3 */
  Task3Handle = osThreadNew(Receptor, NULL, &Task3_attributes);
 80005d8:	4a0b      	ldr	r2, [pc, #44]	; (8000608 <main+0x74>)
 80005da:	2100      	movs	r1, #0
 80005dc:	480b      	ldr	r0, [pc, #44]	; (800060c <main+0x78>)
 80005de:	f002 fe05 	bl	80031ec <osThreadNew>
 80005e2:	4603      	mov	r3, r0
 80005e4:	4a0a      	ldr	r2, [pc, #40]	; (8000610 <main+0x7c>)
 80005e6:	6013      	str	r3, [r2, #0]
  /* USER CODE BEGIN RTOS_EVENTS */
  /* add events, ... */
  /* USER CODE END RTOS_EVENTS */

  /* Start scheduler */
  osKernelStart();
 80005e8:	f002 fdda 	bl	80031a0 <osKernelStart>

  /* We should never get here as control is now taken by the scheduler */
  /* Infinite loop */
  /* USER CODE BEGIN WHILE */
  while (1)
 80005ec:	e7fe      	b.n	80005ec <main+0x58>
 80005ee:	bf00      	nop
 80005f0:	080065d4 	.word	0x080065d4
 80005f4:	08000a3d 	.word	0x08000a3d
 80005f8:	200001b4 	.word	0x200001b4
 80005fc:	080065f8 	.word	0x080065f8
 8000600:	08000a59 	.word	0x08000a59
 8000604:	200001b8 	.word	0x200001b8
 8000608:	0800661c 	.word	0x0800661c
 800060c:	08000b21 	.word	0x08000b21
 8000610:	200001bc 	.word	0x200001bc

08000614 <SystemClock_Config>:
/**
  * @brief System Clock Configuration
  * @retval None
  */
void SystemClock_Config(void)
{
 8000614:	b580      	push	{r7, lr}
 8000616:	b094      	sub	sp, #80	; 0x50
 8000618:	af00      	add	r7, sp, #0
  RCC_OscInitTypeDef RCC_OscInitStruct = {0};
 800061a:	f107 0320 	add.w	r3, r7, #32
 800061e:	2230      	movs	r2, #48	; 0x30
 8000620:	2100      	movs	r1, #0
 8000622:	4618      	mov	r0, r3
 8000624:	f005 fb22 	bl	8005c6c <memset>
  RCC_ClkInitTypeDef RCC_ClkInitStruct = {0};
 8000628:	f107 030c 	add.w	r3, r7, #12
 800062c:	2200      	movs	r2, #0
 800062e:	601a      	str	r2, [r3, #0]
 8000630:	605a      	str	r2, [r3, #4]
 8000632:	609a      	str	r2, [r3, #8]
 8000634:	60da      	str	r2, [r3, #12]
 8000636:	611a      	str	r2, [r3, #16]

  /** Configure the main internal regulator output voltage
  */
  __HAL_RCC_PWR_CLK_ENABLE();
 8000638:	2300      	movs	r3, #0
 800063a:	60bb      	str	r3, [r7, #8]
 800063c:	4b28      	ldr	r3, [pc, #160]	; (80006e0 <SystemClock_Config+0xcc>)
 800063e:	6c1b      	ldr	r3, [r3, #64]	; 0x40
 8000640:	4a27      	ldr	r2, [pc, #156]	; (80006e0 <SystemClock_Config+0xcc>)
 8000642:	f043 5380 	orr.w	r3, r3, #268435456	; 0x10000000
 8000646:	6413      	str	r3, [r2, #64]	; 0x40
 8000648:	4b25      	ldr	r3, [pc, #148]	; (80006e0 <SystemClock_Config+0xcc>)
 800064a:	6c1b      	ldr	r3, [r3, #64]	; 0x40
 800064c:	f003 5380 	and.w	r3, r3, #268435456	; 0x10000000
 8000650:	60bb      	str	r3, [r7, #8]
 8000652:	68bb      	ldr	r3, [r7, #8]
  __HAL_PWR_VOLTAGESCALING_CONFIG(PWR_REGULATOR_VOLTAGE_SCALE1);
 8000654:	2300      	movs	r3, #0
 8000656:	607b      	str	r3, [r7, #4]
 8000658:	4b22      	ldr	r3, [pc, #136]	; (80006e4 <SystemClock_Config+0xd0>)
 800065a:	681b      	ldr	r3, [r3, #0]
 800065c:	4a21      	ldr	r2, [pc, #132]	; (80006e4 <SystemClock_Config+0xd0>)
 800065e:	f443 4340 	orr.w	r3, r3, #49152	; 0xc000
 8000662:	6013      	str	r3, [r2, #0]
 8000664:	4b1f      	ldr	r3, [pc, #124]	; (80006e4 <SystemClock_Config+0xd0>)
 8000666:	681b      	ldr	r3, [r3, #0]
 8000668:	f403 4340 	and.w	r3, r3, #49152	; 0xc000
 800066c:	607b      	str	r3, [r7, #4]
 800066e:	687b      	ldr	r3, [r7, #4]

  /** Initializes the RCC Oscillators according to the specified parameters
  * in the RCC_OscInitTypeDef structure.
  */
  RCC_OscInitStruct.OscillatorType = RCC_OSCILLATORTYPE_HSI;
 8000670:	2302      	movs	r3, #2
 8000672:	623b      	str	r3, [r7, #32]
  RCC_OscInitStruct.HSIState = RCC_HSI_ON;
 8000674:	2301      	movs	r3, #1
 8000676:	62fb      	str	r3, [r7, #44]	; 0x2c
  RCC_OscInitStruct.HSICalibrationValue = RCC_HSICALIBRATION_DEFAULT;
 8000678:	2310      	movs	r3, #16
 800067a:	633b      	str	r3, [r7, #48]	; 0x30
  RCC_OscInitStruct.PLL.PLLState = RCC_PLL_ON;
 800067c:	2302      	movs	r3, #2
 800067e:	63bb      	str	r3, [r7, #56]	; 0x38
  RCC_OscInitStruct.PLL.PLLSource = RCC_PLLSOURCE_HSI;
 8000680:	2300      	movs	r3, #0
 8000682:	63fb      	str	r3, [r7, #60]	; 0x3c
  RCC_OscInitStruct.PLL.PLLM = 16;
 8000684:	2310      	movs	r3, #16
 8000686:	643b      	str	r3, [r7, #64]	; 0x40
  RCC_OscInitStruct.PLL.PLLN = 336;
 8000688:	f44f 73a8 	mov.w	r3, #336	; 0x150
 800068c:	647b      	str	r3, [r7, #68]	; 0x44
  RCC_OscInitStruct.PLL.PLLP = RCC_PLLP_DIV4;
 800068e:	2304      	movs	r3, #4
 8000690:	64bb      	str	r3, [r7, #72]	; 0x48
  RCC_OscInitStruct.PLL.PLLQ = 4;
 8000692:	2304      	movs	r3, #4
 8000694:	64fb      	str	r3, [r7, #76]	; 0x4c
  if (HAL_RCC_OscConfig(&RCC_OscInitStruct) != HAL_OK)
 8000696:	f107 0320 	add.w	r3, r7, #32
 800069a:	4618      	mov	r0, r3
 800069c:	f001 f818 	bl	80016d0 <HAL_RCC_OscConfig>
 80006a0:	4603      	mov	r3, r0
 80006a2:	2b00      	cmp	r3, #0
 80006a4:	d001      	beq.n	80006aa <SystemClock_Config+0x96>
  {
    Error_Handler();
 80006a6:	f000 faff 	bl	8000ca8 <Error_Handler>
  }

  /** Initializes the CPU, AHB and APB buses clocks
  */
  RCC_ClkInitStruct.ClockType = RCC_CLOCKTYPE_HCLK|RCC_CLOCKTYPE_SYSCLK
 80006aa:	230f      	movs	r3, #15
 80006ac:	60fb      	str	r3, [r7, #12]
                              |RCC_CLOCKTYPE_PCLK1|RCC_CLOCKTYPE_PCLK2;
  RCC_ClkInitStruct.SYSCLKSource = RCC_SYSCLKSOURCE_PLLCLK;
 80006ae:	2302      	movs	r3, #2
 80006b0:	613b      	str	r3, [r7, #16]
  RCC_ClkInitStruct.AHBCLKDivider = RCC_SYSCLK_DIV1;
 80006b2:	2300      	movs	r3, #0
 80006b4:	617b      	str	r3, [r7, #20]
  RCC_ClkInitStruct.APB1CLKDivider = RCC_HCLK_DIV2;
 80006b6:	f44f 5380 	mov.w	r3, #4096	; 0x1000
 80006ba:	61bb      	str	r3, [r7, #24]
  RCC_ClkInitStruct.APB2CLKDivider = RCC_HCLK_DIV1;
 80006bc:	2300      	movs	r3, #0
 80006be:	61fb      	str	r3, [r7, #28]

  if (HAL_RCC_ClockConfig(&RCC_ClkInitStruct, FLASH_LATENCY_2) != HAL_OK)
 80006c0:	f107 030c 	add.w	r3, r7, #12
 80006c4:	2102      	movs	r1, #2
 80006c6:	4618      	mov	r0, r3
 80006c8:	f001 fa7a 	bl	8001bc0 <HAL_RCC_ClockConfig>
 80006cc:	4603      	mov	r3, r0
 80006ce:	2b00      	cmp	r3, #0
 80006d0:	d001      	beq.n	80006d6 <SystemClock_Config+0xc2>
  {
    Error_Handler();
 80006d2:	f000 fae9 	bl	8000ca8 <Error_Handler>
  }
}
 80006d6:	bf00      	nop
 80006d8:	3750      	adds	r7, #80	; 0x50
 80006da:	46bd      	mov	sp, r7
 80006dc:	bd80      	pop	{r7, pc}
 80006de:	bf00      	nop
 80006e0:	40023800 	.word	0x40023800
 80006e4:	40007000 	.word	0x40007000

080006e8 <MX_TIM3_Init>:
  * @brief TIM3 Initialization Function
  * @param None
  * @retval None
  */
static void MX_TIM3_Init(void)
{
 80006e8:	b580      	push	{r7, lr}
 80006ea:	b086      	sub	sp, #24
 80006ec:	af00      	add	r7, sp, #0

  /* USER CODE BEGIN TIM3_Init 0 */

  /* USER CODE END TIM3_Init 0 */

  TIM_ClockConfigTypeDef sClockSourceConfig = {0};
 80006ee:	f107 0308 	add.w	r3, r7, #8
 80006f2:	2200      	movs	r2, #0
 80006f4:	601a      	str	r2, [r3, #0]
 80006f6:	605a      	str	r2, [r3, #4]
 80006f8:	609a      	str	r2, [r3, #8]
 80006fa:	60da      	str	r2, [r3, #12]
  TIM_MasterConfigTypeDef sMasterConfig = {0};
 80006fc:	463b      	mov	r3, r7
 80006fe:	2200      	movs	r2, #0
 8000700:	601a      	str	r2, [r3, #0]
 8000702:	605a      	str	r2, [r3, #4]

  /* USER CODE BEGIN TIM3_Init 1 */

  /* USER CODE END TIM3_Init 1 */
  htim3.Instance = TIM3;
 8000704:	4b1d      	ldr	r3, [pc, #116]	; (800077c <MX_TIM3_Init+0x94>)
 8000706:	4a1e      	ldr	r2, [pc, #120]	; (8000780 <MX_TIM3_Init+0x98>)
 8000708:	601a      	str	r2, [r3, #0]
  htim3.Init.Prescaler = 84;
 800070a:	4b1c      	ldr	r3, [pc, #112]	; (800077c <MX_TIM3_Init+0x94>)
 800070c:	2254      	movs	r2, #84	; 0x54
 800070e:	605a      	str	r2, [r3, #4]
  htim3.Init.CounterMode = TIM_COUNTERMODE_UP;
 8000710:	4b1a      	ldr	r3, [pc, #104]	; (800077c <MX_TIM3_Init+0x94>)
 8000712:	2200      	movs	r2, #0
 8000714:	609a      	str	r2, [r3, #8]
  htim3.Init.Period = 9000;
 8000716:	4b19      	ldr	r3, [pc, #100]	; (800077c <MX_TIM3_Init+0x94>)
 8000718:	f242 3228 	movw	r2, #9000	; 0x2328
 800071c:	60da      	str	r2, [r3, #12]
  htim3.Init.ClockDivision = TIM_CLOCKDIVISION_DIV1;
 800071e:	4b17      	ldr	r3, [pc, #92]	; (800077c <MX_TIM3_Init+0x94>)
 8000720:	2200      	movs	r2, #0
 8000722:	611a      	str	r2, [r3, #16]
  htim3.Init.AutoReloadPreload = TIM_AUTORELOAD_PRELOAD_ENABLE;
 8000724:	4b15      	ldr	r3, [pc, #84]	; (800077c <MX_TIM3_Init+0x94>)
 8000726:	2280      	movs	r2, #128	; 0x80
 8000728:	619a      	str	r2, [r3, #24]
  if (HAL_TIM_Base_Init(&htim3) != HAL_OK)
 800072a:	4814      	ldr	r0, [pc, #80]	; (800077c <MX_TIM3_Init+0x94>)
 800072c:	f001 fc9a 	bl	8002064 <HAL_TIM_Base_Init>
 8000730:	4603      	mov	r3, r0
 8000732:	2b00      	cmp	r3, #0
 8000734:	d001      	beq.n	800073a <MX_TIM3_Init+0x52>
  {
    Error_Handler();
 8000736:	f000 fab7 	bl	8000ca8 <Error_Handler>
  }
  sClockSourceConfig.ClockSource = TIM_CLOCKSOURCE_INTERNAL;
 800073a:	f44f 5380 	mov.w	r3, #4096	; 0x1000
 800073e:	60bb      	str	r3, [r7, #8]
  if (HAL_TIM_ConfigClockSource(&htim3, &sClockSourceConfig) != HAL_OK)
 8000740:	f107 0308 	add.w	r3, r7, #8
 8000744:	4619      	mov	r1, r3
 8000746:	480d      	ldr	r0, [pc, #52]	; (800077c <MX_TIM3_Init+0x94>)
 8000748:	f001 fe75 	bl	8002436 <HAL_TIM_ConfigClockSource>
 800074c:	4603      	mov	r3, r0
 800074e:	2b00      	cmp	r3, #0
 8000750:	d001      	beq.n	8000756 <MX_TIM3_Init+0x6e>
  {
    Error_Handler();
 8000752:	f000 faa9 	bl	8000ca8 <Error_Handler>
  }
  sMasterConfig.MasterOutputTrigger = TIM_TRGO_RESET;
 8000756:	2300      	movs	r3, #0
 8000758:	603b      	str	r3, [r7, #0]
  sMasterConfig.MasterSlaveMode = TIM_MASTERSLAVEMODE_DISABLE;
 800075a:	2300      	movs	r3, #0
 800075c:	607b      	str	r3, [r7, #4]
  if (HAL_TIMEx_MasterConfigSynchronization(&htim3, &sMasterConfig) != HAL_OK)
 800075e:	463b      	mov	r3, r7
 8000760:	4619      	mov	r1, r3
 8000762:	4806      	ldr	r0, [pc, #24]	; (800077c <MX_TIM3_Init+0x94>)
 8000764:	f002 f870 	bl	8002848 <HAL_TIMEx_MasterConfigSynchronization>
 8000768:	4603      	mov	r3, r0
 800076a:	2b00      	cmp	r3, #0
 800076c:	d001      	beq.n	8000772 <MX_TIM3_Init+0x8a>
  {
    Error_Handler();
 800076e:	f000 fa9b 	bl	8000ca8 <Error_Handler>
  }
  /* USER CODE BEGIN TIM3_Init 2 */

  /* USER CODE END TIM3_Init 2 */

}
 8000772:	bf00      	nop
 8000774:	3718      	adds	r7, #24
 8000776:	46bd      	mov	sp, r7
 8000778:	bd80      	pop	{r7, pc}
 800077a:	bf00      	nop
 800077c:	20000098 	.word	0x20000098
 8000780:	40000400 	.word	0x40000400

08000784 <MX_TIM4_Init>:
  * @brief TIM4 Initialization Function
  * @param None
  * @retval None
  */
static void MX_TIM4_Init(void)
{
 8000784:	b580      	push	{r7, lr}
 8000786:	b086      	sub	sp, #24
 8000788:	af00      	add	r7, sp, #0

  /* USER CODE BEGIN TIM4_Init 0 */

  /* USER CODE END TIM4_Init 0 */

  TIM_ClockConfigTypeDef sClockSourceConfig = {0};
 800078a:	f107 0308 	add.w	r3, r7, #8
 800078e:	2200      	movs	r2, #0
 8000790:	601a      	str	r2, [r3, #0]
 8000792:	605a      	str	r2, [r3, #4]
 8000794:	609a      	str	r2, [r3, #8]
 8000796:	60da      	str	r2, [r3, #12]
  TIM_MasterConfigTypeDef sMasterConfig = {0};
 8000798:	463b      	mov	r3, r7
 800079a:	2200      	movs	r2, #0
 800079c:	601a      	str	r2, [r3, #0]
 800079e:	605a      	str	r2, [r3, #4]

  /* USER CODE BEGIN TIM4_Init 1 */

  /* USER CODE END TIM4_Init 1 */
  htim4.Instance = TIM4;
 80007a0:	4b1d      	ldr	r3, [pc, #116]	; (8000818 <MX_TIM4_Init+0x94>)
 80007a2:	4a1e      	ldr	r2, [pc, #120]	; (800081c <MX_TIM4_Init+0x98>)
 80007a4:	601a      	str	r2, [r3, #0]
  htim4.Init.Prescaler = 84;
 80007a6:	4b1c      	ldr	r3, [pc, #112]	; (8000818 <MX_TIM4_Init+0x94>)
 80007a8:	2254      	movs	r2, #84	; 0x54
 80007aa:	605a      	str	r2, [r3, #4]
  htim4.Init.CounterMode = TIM_COUNTERMODE_UP;
 80007ac:	4b1a      	ldr	r3, [pc, #104]	; (8000818 <MX_TIM4_Init+0x94>)
 80007ae:	2200      	movs	r2, #0
 80007b0:	609a      	str	r2, [r3, #8]
  htim4.Init.Period = 50000;
 80007b2:	4b19      	ldr	r3, [pc, #100]	; (8000818 <MX_TIM4_Init+0x94>)
 80007b4:	f24c 3250 	movw	r2, #50000	; 0xc350
 80007b8:	60da      	str	r2, [r3, #12]
  htim4.Init.ClockDivision = TIM_CLOCKDIVISION_DIV1;
 80007ba:	4b17      	ldr	r3, [pc, #92]	; (8000818 <MX_TIM4_Init+0x94>)
 80007bc:	2200      	movs	r2, #0
 80007be:	611a      	str	r2, [r3, #16]
  htim4.Init.AutoReloadPreload = TIM_AUTORELOAD_PRELOAD_ENABLE;
 80007c0:	4b15      	ldr	r3, [pc, #84]	; (8000818 <MX_TIM4_Init+0x94>)
 80007c2:	2280      	movs	r2, #128	; 0x80
 80007c4:	619a      	str	r2, [r3, #24]
  if (HAL_TIM_Base_Init(&htim4) != HAL_OK)
 80007c6:	4814      	ldr	r0, [pc, #80]	; (8000818 <MX_TIM4_Init+0x94>)
 80007c8:	f001 fc4c 	bl	8002064 <HAL_TIM_Base_Init>
 80007cc:	4603      	mov	r3, r0
 80007ce:	2b00      	cmp	r3, #0
 80007d0:	d001      	beq.n	80007d6 <MX_TIM4_Init+0x52>
  {
    Error_Handler();
 80007d2:	f000 fa69 	bl	8000ca8 <Error_Handler>
  }
  sClockSourceConfig.ClockSource = TIM_CLOCKSOURCE_INTERNAL;
 80007d6:	f44f 5380 	mov.w	r3, #4096	; 0x1000
 80007da:	60bb      	str	r3, [r7, #8]
  if (HAL_TIM_ConfigClockSource(&htim4, &sClockSourceConfig) != HAL_OK)
 80007dc:	f107 0308 	add.w	r3, r7, #8
 80007e0:	4619      	mov	r1, r3
 80007e2:	480d      	ldr	r0, [pc, #52]	; (8000818 <MX_TIM4_Init+0x94>)
 80007e4:	f001 fe27 	bl	8002436 <HAL_TIM_ConfigClockSource>
 80007e8:	4603      	mov	r3, r0
 80007ea:	2b00      	cmp	r3, #0
 80007ec:	d001      	beq.n	80007f2 <MX_TIM4_Init+0x6e>
  {
    Error_Handler();
 80007ee:	f000 fa5b 	bl	8000ca8 <Error_Handler>
  }
  sMasterConfig.MasterOutputTrigger = TIM_TRGO_RESET;
 80007f2:	2300      	movs	r3, #0
 80007f4:	603b      	str	r3, [r7, #0]
  sMasterConfig.MasterSlaveMode = TIM_MASTERSLAVEMODE_DISABLE;
 80007f6:	2300      	movs	r3, #0
 80007f8:	607b      	str	r3, [r7, #4]
  if (HAL_TIMEx_MasterConfigSynchronization(&htim4, &sMasterConfig) != HAL_OK)
 80007fa:	463b      	mov	r3, r7
 80007fc:	4619      	mov	r1, r3
 80007fe:	4806      	ldr	r0, [pc, #24]	; (8000818 <MX_TIM4_Init+0x94>)
 8000800:	f002 f822 	bl	8002848 <HAL_TIMEx_MasterConfigSynchronization>
 8000804:	4603      	mov	r3, r0
 8000806:	2b00      	cmp	r3, #0
 8000808:	d001      	beq.n	800080e <MX_TIM4_Init+0x8a>
  {
    Error_Handler();
 800080a:	f000 fa4d 	bl	8000ca8 <Error_Handler>
  }
  /* USER CODE BEGIN TIM4_Init 2 */

  /* USER CODE END TIM4_Init 2 */

}
 800080e:	bf00      	nop
 8000810:	3718      	adds	r7, #24
 8000812:	46bd      	mov	sp, r7
 8000814:	bd80      	pop	{r7, pc}
 8000816:	bf00      	nop
 8000818:	200000e0 	.word	0x200000e0
 800081c:	40000800 	.word	0x40000800

08000820 <MX_TIM5_Init>:
  * @brief TIM5 Initialization Function
  * @param None
  * @retval None
  */
static void MX_TIM5_Init(void)
{
 8000820:	b580      	push	{r7, lr}
 8000822:	b086      	sub	sp, #24
 8000824:	af00      	add	r7, sp, #0

  /* USER CODE BEGIN TIM5_Init 0 */

  /* USER CODE END TIM5_Init 0 */

  TIM_ClockConfigTypeDef sClockSourceConfig = {0};
 8000826:	f107 0308 	add.w	r3, r7, #8
 800082a:	2200      	movs	r2, #0
 800082c:	601a      	str	r2, [r3, #0]
 800082e:	605a      	str	r2, [r3, #4]
 8000830:	609a      	str	r2, [r3, #8]
 8000832:	60da      	str	r2, [r3, #12]
  TIM_MasterConfigTypeDef sMasterConfig = {0};
 8000834:	463b      	mov	r3, r7
 8000836:	2200      	movs	r2, #0
 8000838:	601a      	str	r2, [r3, #0]
 800083a:	605a      	str	r2, [r3, #4]

  /* USER CODE BEGIN TIM5_Init 1 */

  /* USER CODE END TIM5_Init 1 */
  htim5.Instance = TIM5;
 800083c:	4b1c      	ldr	r3, [pc, #112]	; (80008b0 <MX_TIM5_Init+0x90>)
 800083e:	4a1d      	ldr	r2, [pc, #116]	; (80008b4 <MX_TIM5_Init+0x94>)
 8000840:	601a      	str	r2, [r3, #0]
  htim5.Init.Prescaler = 84;
 8000842:	4b1b      	ldr	r3, [pc, #108]	; (80008b0 <MX_TIM5_Init+0x90>)
 8000844:	2254      	movs	r2, #84	; 0x54
 8000846:	605a      	str	r2, [r3, #4]
  htim5.Init.CounterMode = TIM_COUNTERMODE_UP;
 8000848:	4b19      	ldr	r3, [pc, #100]	; (80008b0 <MX_TIM5_Init+0x90>)
 800084a:	2200      	movs	r2, #0
 800084c:	609a      	str	r2, [r3, #8]
  htim5.Init.Period = 208;
 800084e:	4b18      	ldr	r3, [pc, #96]	; (80008b0 <MX_TIM5_Init+0x90>)
 8000850:	22d0      	movs	r2, #208	; 0xd0
 8000852:	60da      	str	r2, [r3, #12]
  htim5.Init.ClockDivision = TIM_CLOCKDIVISION_DIV1;
 8000854:	4b16      	ldr	r3, [pc, #88]	; (80008b0 <MX_TIM5_Init+0x90>)
 8000856:	2200      	movs	r2, #0
 8000858:	611a      	str	r2, [r3, #16]
  htim5.Init.AutoReloadPreload = TIM_AUTORELOAD_PRELOAD_ENABLE;
 800085a:	4b15      	ldr	r3, [pc, #84]	; (80008b0 <MX_TIM5_Init+0x90>)
 800085c:	2280      	movs	r2, #128	; 0x80
 800085e:	619a      	str	r2, [r3, #24]
  if (HAL_TIM_Base_Init(&htim5) != HAL_OK)
 8000860:	4813      	ldr	r0, [pc, #76]	; (80008b0 <MX_TIM5_Init+0x90>)
 8000862:	f001 fbff 	bl	8002064 <HAL_TIM_Base_Init>
 8000866:	4603      	mov	r3, r0
 8000868:	2b00      	cmp	r3, #0
 800086a:	d001      	beq.n	8000870 <MX_TIM5_Init+0x50>
  {
    Error_Handler();
 800086c:	f000 fa1c 	bl	8000ca8 <Error_Handler>
  }
  sClockSourceConfig.ClockSource = TIM_CLOCKSOURCE_INTERNAL;
 8000870:	f44f 5380 	mov.w	r3, #4096	; 0x1000
 8000874:	60bb      	str	r3, [r7, #8]
  if (HAL_TIM_ConfigClockSource(&htim5, &sClockSourceConfig) != HAL_OK)
 8000876:	f107 0308 	add.w	r3, r7, #8
 800087a:	4619      	mov	r1, r3
 800087c:	480c      	ldr	r0, [pc, #48]	; (80008b0 <MX_TIM5_Init+0x90>)
 800087e:	f001 fdda 	bl	8002436 <HAL_TIM_ConfigClockSource>
 8000882:	4603      	mov	r3, r0
 8000884:	2b00      	cmp	r3, #0
 8000886:	d001      	beq.n	800088c <MX_TIM5_Init+0x6c>
  {
    Error_Handler();
 8000888:	f000 fa0e 	bl	8000ca8 <Error_Handler>
  }
  sMasterConfig.MasterOutputTrigger = TIM_TRGO_RESET;
 800088c:	2300      	movs	r3, #0
 800088e:	603b      	str	r3, [r7, #0]
  sMasterConfig.MasterSlaveMode = TIM_MASTERSLAVEMODE_DISABLE;
 8000890:	2300      	movs	r3, #0
 8000892:	607b      	str	r3, [r7, #4]
  if (HAL_TIMEx_MasterConfigSynchronization(&htim5, &sMasterConfig) != HAL_OK)
 8000894:	463b      	mov	r3, r7
 8000896:	4619      	mov	r1, r3
 8000898:	4805      	ldr	r0, [pc, #20]	; (80008b0 <MX_TIM5_Init+0x90>)
 800089a:	f001 ffd5 	bl	8002848 <HAL_TIMEx_MasterConfigSynchronization>
 800089e:	4603      	mov	r3, r0
 80008a0:	2b00      	cmp	r3, #0
 80008a2:	d001      	beq.n	80008a8 <MX_TIM5_Init+0x88>
  {
    Error_Handler();
 80008a4:	f000 fa00 	bl	8000ca8 <Error_Handler>
  }
  /* USER CODE BEGIN TIM5_Init 2 */

  /* USER CODE END TIM5_Init 2 */

}
 80008a8:	bf00      	nop
 80008aa:	3718      	adds	r7, #24
 80008ac:	46bd      	mov	sp, r7
 80008ae:	bd80      	pop	{r7, pc}
 80008b0:	20000128 	.word	0x20000128
 80008b4:	40000c00 	.word	0x40000c00

080008b8 <MX_USART2_UART_Init>:
  * @brief USART2 Initialization Function
  * @param None
  * @retval None
  */
static void MX_USART2_UART_Init(void)
{
 80008b8:	b580      	push	{r7, lr}
 80008ba:	af00      	add	r7, sp, #0
  /* USER CODE END USART2_Init 0 */

  /* USER CODE BEGIN USART2_Init 1 */

  /* USER CODE END USART2_Init 1 */
  huart2.Instance = USART2;
 80008bc:	4b11      	ldr	r3, [pc, #68]	; (8000904 <MX_USART2_UART_Init+0x4c>)
 80008be:	4a12      	ldr	r2, [pc, #72]	; (8000908 <MX_USART2_UART_Init+0x50>)
 80008c0:	601a      	str	r2, [r3, #0]
  huart2.Init.BaudRate = 115200;
 80008c2:	4b10      	ldr	r3, [pc, #64]	; (8000904 <MX_USART2_UART_Init+0x4c>)
 80008c4:	f44f 32e1 	mov.w	r2, #115200	; 0x1c200
 80008c8:	605a      	str	r2, [r3, #4]
  huart2.Init.WordLength = UART_WORDLENGTH_8B;
 80008ca:	4b0e      	ldr	r3, [pc, #56]	; (8000904 <MX_USART2_UART_Init+0x4c>)
 80008cc:	2200      	movs	r2, #0
 80008ce:	609a      	str	r2, [r3, #8]
  huart2.Init.StopBits = UART_STOPBITS_1;
 80008d0:	4b0c      	ldr	r3, [pc, #48]	; (8000904 <MX_USART2_UART_Init+0x4c>)
 80008d2:	2200      	movs	r2, #0
 80008d4:	60da      	str	r2, [r3, #12]
  huart2.Init.Parity = UART_PARITY_NONE;
 80008d6:	4b0b      	ldr	r3, [pc, #44]	; (8000904 <MX_USART2_UART_Init+0x4c>)
 80008d8:	2200      	movs	r2, #0
 80008da:	611a      	str	r2, [r3, #16]
  huart2.Init.Mode = UART_MODE_TX_RX;
 80008dc:	4b09      	ldr	r3, [pc, #36]	; (8000904 <MX_USART2_UART_Init+0x4c>)
 80008de:	220c      	movs	r2, #12
 80008e0:	615a      	str	r2, [r3, #20]
  huart2.Init.HwFlowCtl = UART_HWCONTROL_NONE;
 80008e2:	4b08      	ldr	r3, [pc, #32]	; (8000904 <MX_USART2_UART_Init+0x4c>)
 80008e4:	2200      	movs	r2, #0
 80008e6:	619a      	str	r2, [r3, #24]
  huart2.Init.OverSampling = UART_OVERSAMPLING_16;
 80008e8:	4b06      	ldr	r3, [pc, #24]	; (8000904 <MX_USART2_UART_Init+0x4c>)
 80008ea:	2200      	movs	r2, #0
 80008ec:	61da      	str	r2, [r3, #28]
  if (HAL_UART_Init(&huart2) != HAL_OK)
 80008ee:	4805      	ldr	r0, [pc, #20]	; (8000904 <MX_USART2_UART_Init+0x4c>)
 80008f0:	f002 f82c 	bl	800294c <HAL_UART_Init>
 80008f4:	4603      	mov	r3, r0
 80008f6:	2b00      	cmp	r3, #0
 80008f8:	d001      	beq.n	80008fe <MX_USART2_UART_Init+0x46>
  {
    Error_Handler();
 80008fa:	f000 f9d5 	bl	8000ca8 <Error_Handler>
  }
  /* USER CODE BEGIN USART2_Init 2 */

  /* USER CODE END USART2_Init 2 */

}
 80008fe:	bf00      	nop
 8000900:	bd80      	pop	{r7, pc}
 8000902:	bf00      	nop
 8000904:	20000170 	.word	0x20000170
 8000908:	40004400 	.word	0x40004400

0800090c <MX_GPIO_Init>:
  * @brief GPIO Initialization Function
  * @param None
  * @retval None
  */
static void MX_GPIO_Init(void)
{
 800090c:	b580      	push	{r7, lr}
 800090e:	b08a      	sub	sp, #40	; 0x28
 8000910:	af00      	add	r7, sp, #0
  GPIO_InitTypeDef GPIO_InitStruct = {0};
 8000912:	f107 0314 	add.w	r3, r7, #20
 8000916:	2200      	movs	r2, #0
 8000918:	601a      	str	r2, [r3, #0]
 800091a:	605a      	str	r2, [r3, #4]
 800091c:	609a      	str	r2, [r3, #8]
 800091e:	60da      	str	r2, [r3, #12]
 8000920:	611a      	str	r2, [r3, #16]
/* USER CODE BEGIN MX_GPIO_Init_1 */
/* USER CODE END MX_GPIO_Init_1 */

  /* GPIO Ports Clock Enable */
  __HAL_RCC_GPIOC_CLK_ENABLE();
 8000922:	2300      	movs	r3, #0
 8000924:	613b      	str	r3, [r7, #16]
 8000926:	4b41      	ldr	r3, [pc, #260]	; (8000a2c <MX_GPIO_Init+0x120>)
 8000928:	6b1b      	ldr	r3, [r3, #48]	; 0x30
 800092a:	4a40      	ldr	r2, [pc, #256]	; (8000a2c <MX_GPIO_Init+0x120>)
 800092c:	f043 0304 	orr.w	r3, r3, #4
 8000930:	6313      	str	r3, [r2, #48]	; 0x30
 8000932:	4b3e      	ldr	r3, [pc, #248]	; (8000a2c <MX_GPIO_Init+0x120>)
 8000934:	6b1b      	ldr	r3, [r3, #48]	; 0x30
 8000936:	f003 0304 	and.w	r3, r3, #4
 800093a:	613b      	str	r3, [r7, #16]
 800093c:	693b      	ldr	r3, [r7, #16]
  __HAL_RCC_GPIOH_CLK_ENABLE();
 800093e:	2300      	movs	r3, #0
 8000940:	60fb      	str	r3, [r7, #12]
 8000942:	4b3a      	ldr	r3, [pc, #232]	; (8000a2c <MX_GPIO_Init+0x120>)
 8000944:	6b1b      	ldr	r3, [r3, #48]	; 0x30
 8000946:	4a39      	ldr	r2, [pc, #228]	; (8000a2c <MX_GPIO_Init+0x120>)
 8000948:	f043 0380 	orr.w	r3, r3, #128	; 0x80
 800094c:	6313      	str	r3, [r2, #48]	; 0x30
 800094e:	4b37      	ldr	r3, [pc, #220]	; (8000a2c <MX_GPIO_Init+0x120>)
 8000950:	6b1b      	ldr	r3, [r3, #48]	; 0x30
 8000952:	f003 0380 	and.w	r3, r3, #128	; 0x80
 8000956:	60fb      	str	r3, [r7, #12]
 8000958:	68fb      	ldr	r3, [r7, #12]
  __HAL_RCC_GPIOA_CLK_ENABLE();
 800095a:	2300      	movs	r3, #0
 800095c:	60bb      	str	r3, [r7, #8]
 800095e:	4b33      	ldr	r3, [pc, #204]	; (8000a2c <MX_GPIO_Init+0x120>)
 8000960:	6b1b      	ldr	r3, [r3, #48]	; 0x30
 8000962:	4a32      	ldr	r2, [pc, #200]	; (8000a2c <MX_GPIO_Init+0x120>)
 8000964:	f043 0301 	orr.w	r3, r3, #1
 8000968:	6313      	str	r3, [r2, #48]	; 0x30
 800096a:	4b30      	ldr	r3, [pc, #192]	; (8000a2c <MX_GPIO_Init+0x120>)
 800096c:	6b1b      	ldr	r3, [r3, #48]	; 0x30
 800096e:	f003 0301 	and.w	r3, r3, #1
 8000972:	60bb      	str	r3, [r7, #8]
 8000974:	68bb      	ldr	r3, [r7, #8]
  __HAL_RCC_GPIOB_CLK_ENABLE();
 8000976:	2300      	movs	r3, #0
 8000978:	607b      	str	r3, [r7, #4]
 800097a:	4b2c      	ldr	r3, [pc, #176]	; (8000a2c <MX_GPIO_Init+0x120>)
 800097c:	6b1b      	ldr	r3, [r3, #48]	; 0x30
 800097e:	4a2b      	ldr	r2, [pc, #172]	; (8000a2c <MX_GPIO_Init+0x120>)
 8000980:	f043 0302 	orr.w	r3, r3, #2
 8000984:	6313      	str	r3, [r2, #48]	; 0x30
 8000986:	4b29      	ldr	r3, [pc, #164]	; (8000a2c <MX_GPIO_Init+0x120>)
 8000988:	6b1b      	ldr	r3, [r3, #48]	; 0x30
 800098a:	f003 0302 	and.w	r3, r3, #2
 800098e:	607b      	str	r3, [r7, #4]
 8000990:	687b      	ldr	r3, [r7, #4]

  /*Configure GPIO pin Output Level */
  HAL_GPIO_WritePin(Se_alms_GPIO_Port, Se_alms_Pin, GPIO_PIN_RESET);
 8000992:	2200      	movs	r2, #0
 8000994:	2120      	movs	r1, #32
 8000996:	4826      	ldr	r0, [pc, #152]	; (8000a30 <MX_GPIO_Init+0x124>)
 8000998:	f000 fe4e 	bl	8001638 <HAL_GPIO_WritePin>

  /*Configure GPIO pin Output Level */
  HAL_GPIO_WritePin(salidaCedula_GPIO_Port, salidaCedula_Pin, GPIO_PIN_RESET);
 800099c:	2200      	movs	r2, #0
 800099e:	2104      	movs	r1, #4
 80009a0:	4824      	ldr	r0, [pc, #144]	; (8000a34 <MX_GPIO_Init+0x128>)
 80009a2:	f000 fe49 	bl	8001638 <HAL_GPIO_WritePin>

  /*Configure GPIO pins : B1_Pin InComunicacionSerial_Pin */
  GPIO_InitStruct.Pin = B1_Pin|InComunicacionSerial_Pin;
 80009a6:	f44f 5304 	mov.w	r3, #8448	; 0x2100
 80009aa:	617b      	str	r3, [r7, #20]
  GPIO_InitStruct.Mode = GPIO_MODE_IT_FALLING;
 80009ac:	f44f 1304 	mov.w	r3, #2162688	; 0x210000
 80009b0:	61bb      	str	r3, [r7, #24]
  GPIO_InitStruct.Pull = GPIO_NOPULL;
 80009b2:	2300      	movs	r3, #0
 80009b4:	61fb      	str	r3, [r7, #28]
  HAL_GPIO_Init(GPIOC, &GPIO_InitStruct);
 80009b6:	f107 0314 	add.w	r3, r7, #20
 80009ba:	4619      	mov	r1, r3
 80009bc:	481e      	ldr	r0, [pc, #120]	; (8000a38 <MX_GPIO_Init+0x12c>)
 80009be:	f000 fc9f 	bl	8001300 <HAL_GPIO_Init>

  /*Configure GPIO pin : Se_alms_Pin */
  GPIO_InitStruct.Pin = Se_alms_Pin;
 80009c2:	2320      	movs	r3, #32
 80009c4:	617b      	str	r3, [r7, #20]
  GPIO_InitStruct.Mode = GPIO_MODE_OUTPUT_PP;
 80009c6:	2301      	movs	r3, #1
 80009c8:	61bb      	str	r3, [r7, #24]
  GPIO_InitStruct.Pull = GPIO_NOPULL;
 80009ca:	2300      	movs	r3, #0
 80009cc:	61fb      	str	r3, [r7, #28]
  GPIO_InitStruct.Speed = GPIO_SPEED_FREQ_HIGH;
 80009ce:	2302      	movs	r3, #2
 80009d0:	623b      	str	r3, [r7, #32]
  HAL_GPIO_Init(Se_alms_GPIO_Port, &GPIO_InitStruct);
 80009d2:	f107 0314 	add.w	r3, r7, #20
 80009d6:	4619      	mov	r1, r3
 80009d8:	4815      	ldr	r0, [pc, #84]	; (8000a30 <MX_GPIO_Init+0x124>)
 80009da:	f000 fc91 	bl	8001300 <HAL_GPIO_Init>

  /*Configure GPIO pins : cedula1_Pin cedula4_Pin cedula3_Pin cedula2_Pin */
  GPIO_InitStruct.Pin = cedula1_Pin|cedula4_Pin|cedula3_Pin|cedula2_Pin;
 80009de:	f24e 0302 	movw	r3, #57346	; 0xe002
 80009e2:	617b      	str	r3, [r7, #20]
  GPIO_InitStruct.Mode = GPIO_MODE_INPUT;
 80009e4:	2300      	movs	r3, #0
 80009e6:	61bb      	str	r3, [r7, #24]
  GPIO_InitStruct.Pull = GPIO_PULLDOWN;
 80009e8:	2302      	movs	r3, #2
 80009ea:	61fb      	str	r3, [r7, #28]
  HAL_GPIO_Init(GPIOB, &GPIO_InitStruct);
 80009ec:	f107 0314 	add.w	r3, r7, #20
 80009f0:	4619      	mov	r1, r3
 80009f2:	4810      	ldr	r0, [pc, #64]	; (8000a34 <MX_GPIO_Init+0x128>)
 80009f4:	f000 fc84 	bl	8001300 <HAL_GPIO_Init>

  /*Configure GPIO pin : salidaCedula_Pin */
  GPIO_InitStruct.Pin = salidaCedula_Pin;
 80009f8:	2304      	movs	r3, #4
 80009fa:	617b      	str	r3, [r7, #20]
  GPIO_InitStruct.Mode = GPIO_MODE_OUTPUT_PP;
 80009fc:	2301      	movs	r3, #1
 80009fe:	61bb      	str	r3, [r7, #24]
  GPIO_InitStruct.Pull = GPIO_NOPULL;
 8000a00:	2300      	movs	r3, #0
 8000a02:	61fb      	str	r3, [r7, #28]
  GPIO_InitStruct.Speed = GPIO_SPEED_FREQ_LOW;
 8000a04:	2300      	movs	r3, #0
 8000a06:	623b      	str	r3, [r7, #32]
  HAL_GPIO_Init(salidaCedula_GPIO_Port, &GPIO_InitStruct);
 8000a08:	f107 0314 	add.w	r3, r7, #20
 8000a0c:	4619      	mov	r1, r3
 8000a0e:	4809      	ldr	r0, [pc, #36]	; (8000a34 <MX_GPIO_Init+0x128>)
 8000a10:	f000 fc76 	bl	8001300 <HAL_GPIO_Init>

  /* EXTI interrupt init*/
  HAL_NVIC_SetPriority(EXTI9_5_IRQn, 0, 0);
 8000a14:	2200      	movs	r2, #0
 8000a16:	2100      	movs	r1, #0
 8000a18:	2017      	movs	r0, #23
 8000a1a:	f000 fc47 	bl	80012ac <HAL_NVIC_SetPriority>
  HAL_NVIC_EnableIRQ(EXTI9_5_IRQn);
 8000a1e:	2017      	movs	r0, #23
 8000a20:	f000 fc60 	bl	80012e4 <HAL_NVIC_EnableIRQ>

/* USER CODE BEGIN MX_GPIO_Init_2 */
/* USER CODE END MX_GPIO_Init_2 */
}
 8000a24:	bf00      	nop
 8000a26:	3728      	adds	r7, #40	; 0x28
 8000a28:	46bd      	mov	sp, r7
 8000a2a:	bd80      	pop	{r7, pc}
 8000a2c:	40023800 	.word	0x40023800
 8000a30:	40020000 	.word	0x40020000
 8000a34:	40020400 	.word	0x40020400
 8000a38:	40020800 	.word	0x40020800

08000a3c <SenalCuadrada>:
  * @brief  Function implementing the Task1 thread.
  * @param  argument: Not used
  * @retval None
  */
/* USER CODE END Header_SenalCuadrada */
void SenalCuadrada(void *argument){
 8000a3c:	b580      	push	{r7, lr}
 8000a3e:	b082      	sub	sp, #8
 8000a40:	af00      	add	r7, sp, #0
 8000a42:	6078      	str	r0, [r7, #4]

  for(;;){
	HAL_GPIO_TogglePin(GPIOA, GPIO_PIN_5);
 8000a44:	2120      	movs	r1, #32
 8000a46:	4803      	ldr	r0, [pc, #12]	; (8000a54 <SenalCuadrada+0x18>)
 8000a48:	f000 fe0f 	bl	800166a <HAL_GPIO_TogglePin>
    osDelay(9);
 8000a4c:	2009      	movs	r0, #9
 8000a4e:	f002 fc5f 	bl	8003310 <osDelay>
	HAL_GPIO_TogglePin(GPIOA, GPIO_PIN_5);
 8000a52:	e7f7      	b.n	8000a44 <SenalCuadrada+0x8>
 8000a54:	40020000 	.word	0x40020000

08000a58 <Cedula>:
* @brief Function implementing the Task2 thread.
* @param argument: Not used
* @retval None
*/
/* USER CODE END Header_Cedula */
void Cedula(void *argument){
 8000a58:	b580      	push	{r7, lr}
 8000a5a:	b082      	sub	sp, #8
 8000a5c:	af00      	add	r7, sp, #0
 8000a5e:	6078      	str	r0, [r7, #4]

  for(;;){

	A = HAL_GPIO_ReadPin(GPIOB, GPIO_PIN_1);
 8000a60:	2102      	movs	r1, #2
 8000a62:	482a      	ldr	r0, [pc, #168]	; (8000b0c <Cedula+0xb4>)
 8000a64:	f000 fdd0 	bl	8001608 <HAL_GPIO_ReadPin>
 8000a68:	4603      	mov	r3, r0
 8000a6a:	461a      	mov	r2, r3
 8000a6c:	4b28      	ldr	r3, [pc, #160]	; (8000b10 <Cedula+0xb8>)
 8000a6e:	701a      	strb	r2, [r3, #0]
	B = HAL_GPIO_ReadPin(GPIOB, GPIO_PIN_15);
 8000a70:	f44f 4100 	mov.w	r1, #32768	; 0x8000
 8000a74:	4825      	ldr	r0, [pc, #148]	; (8000b0c <Cedula+0xb4>)
 8000a76:	f000 fdc7 	bl	8001608 <HAL_GPIO_ReadPin>
 8000a7a:	4603      	mov	r3, r0
 8000a7c:	461a      	mov	r2, r3
 8000a7e:	4b25      	ldr	r3, [pc, #148]	; (8000b14 <Cedula+0xbc>)
 8000a80:	701a      	strb	r2, [r3, #0]
	C = HAL_GPIO_ReadPin(GPIOB, GPIO_PIN_14);
 8000a82:	f44f 4180 	mov.w	r1, #16384	; 0x4000
 8000a86:	4821      	ldr	r0, [pc, #132]	; (8000b0c <Cedula+0xb4>)
 8000a88:	f000 fdbe 	bl	8001608 <HAL_GPIO_ReadPin>
 8000a8c:	4603      	mov	r3, r0
 8000a8e:	461a      	mov	r2, r3
 8000a90:	4b21      	ldr	r3, [pc, #132]	; (8000b18 <Cedula+0xc0>)
 8000a92:	701a      	strb	r2, [r3, #0]
	D = HAL_GPIO_ReadPin(GPIOB, GPIO_PIN_13); // bit derecha ABCD
 8000a94:	f44f 5100 	mov.w	r1, #8192	; 0x2000
 8000a98:	481c      	ldr	r0, [pc, #112]	; (8000b0c <Cedula+0xb4>)
 8000a9a:	f000 fdb5 	bl	8001608 <HAL_GPIO_ReadPin>
 8000a9e:	4603      	mov	r3, r0
 8000aa0:	461a      	mov	r2, r3
 8000aa2:	4b1e      	ldr	r3, [pc, #120]	; (8000b1c <Cedula+0xc4>)
 8000aa4:	701a      	strb	r2, [r3, #0]

	if(( !A && !B && !C ) || ( D && !B && !C ) || ( !A && B && !D )){
 8000aa6:	4b1a      	ldr	r3, [pc, #104]	; (8000b10 <Cedula+0xb8>)
 8000aa8:	781b      	ldrb	r3, [r3, #0]
 8000aaa:	2b00      	cmp	r3, #0
 8000aac:	d107      	bne.n	8000abe <Cedula+0x66>
 8000aae:	4b19      	ldr	r3, [pc, #100]	; (8000b14 <Cedula+0xbc>)
 8000ab0:	781b      	ldrb	r3, [r3, #0]
 8000ab2:	2b00      	cmp	r3, #0
 8000ab4:	d103      	bne.n	8000abe <Cedula+0x66>
 8000ab6:	4b18      	ldr	r3, [pc, #96]	; (8000b18 <Cedula+0xc0>)
 8000ab8:	781b      	ldrb	r3, [r3, #0]
 8000aba:	2b00      	cmp	r3, #0
 8000abc:	d017      	beq.n	8000aee <Cedula+0x96>
 8000abe:	4b17      	ldr	r3, [pc, #92]	; (8000b1c <Cedula+0xc4>)
 8000ac0:	781b      	ldrb	r3, [r3, #0]
 8000ac2:	2b00      	cmp	r3, #0
 8000ac4:	d007      	beq.n	8000ad6 <Cedula+0x7e>
 8000ac6:	4b13      	ldr	r3, [pc, #76]	; (8000b14 <Cedula+0xbc>)
 8000ac8:	781b      	ldrb	r3, [r3, #0]
 8000aca:	2b00      	cmp	r3, #0
 8000acc:	d103      	bne.n	8000ad6 <Cedula+0x7e>
 8000ace:	4b12      	ldr	r3, [pc, #72]	; (8000b18 <Cedula+0xc0>)
 8000ad0:	781b      	ldrb	r3, [r3, #0]
 8000ad2:	2b00      	cmp	r3, #0
 8000ad4:	d00b      	beq.n	8000aee <Cedula+0x96>
 8000ad6:	4b0e      	ldr	r3, [pc, #56]	; (8000b10 <Cedula+0xb8>)
 8000ad8:	781b      	ldrb	r3, [r3, #0]
 8000ada:	2b00      	cmp	r3, #0
 8000adc:	d10d      	bne.n	8000afa <Cedula+0xa2>
 8000ade:	4b0d      	ldr	r3, [pc, #52]	; (8000b14 <Cedula+0xbc>)
 8000ae0:	781b      	ldrb	r3, [r3, #0]
 8000ae2:	2b00      	cmp	r3, #0
 8000ae4:	d009      	beq.n	8000afa <Cedula+0xa2>
 8000ae6:	4b0d      	ldr	r3, [pc, #52]	; (8000b1c <Cedula+0xc4>)
 8000ae8:	781b      	ldrb	r3, [r3, #0]
 8000aea:	2b00      	cmp	r3, #0
 8000aec:	d105      	bne.n	8000afa <Cedula+0xa2>
		HAL_GPIO_WritePin(GPIOB, GPIO_PIN_2, GPIO_PIN_SET);
 8000aee:	2201      	movs	r2, #1
 8000af0:	2104      	movs	r1, #4
 8000af2:	4806      	ldr	r0, [pc, #24]	; (8000b0c <Cedula+0xb4>)
 8000af4:	f000 fda0 	bl	8001638 <HAL_GPIO_WritePin>
 8000af8:	e004      	b.n	8000b04 <Cedula+0xac>
	}else{
		HAL_GPIO_WritePin(GPIOB, GPIO_PIN_2, GPIO_PIN_RESET);
 8000afa:	2200      	movs	r2, #0
 8000afc:	2104      	movs	r1, #4
 8000afe:	4803      	ldr	r0, [pc, #12]	; (8000b0c <Cedula+0xb4>)
 8000b00:	f000 fd9a 	bl	8001638 <HAL_GPIO_WritePin>
	}
	osDelay(50);
 8000b04:	2032      	movs	r0, #50	; 0x32
 8000b06:	f002 fc03 	bl	8003310 <osDelay>
	A = HAL_GPIO_ReadPin(GPIOB, GPIO_PIN_1);
 8000b0a:	e7a9      	b.n	8000a60 <Cedula+0x8>
 8000b0c:	40020400 	.word	0x40020400
 8000b10:	200001c0 	.word	0x200001c0
 8000b14:	200001c1 	.word	0x200001c1
 8000b18:	200001c2 	.word	0x200001c2
 8000b1c:	200001c3 	.word	0x200001c3

08000b20 <Receptor>:
* @brief Function implementing the Task3 thread.
* @param argument: Not used
* @retval None
*/
/* USER CODE END Header_Receptor */
void Receptor(void *argument){
 8000b20:	b5f0      	push	{r4, r5, r6, r7, lr}
 8000b22:	b08b      	sub	sp, #44	; 0x2c
 8000b24:	af08      	add	r7, sp, #32
 8000b26:	6078      	str	r0, [r7, #4]

  for(;;){
	  switch(cambioARR){
 8000b28:	4b23      	ldr	r3, [pc, #140]	; (8000bb8 <Receptor+0x98>)
 8000b2a:	681b      	ldr	r3, [r3, #0]
 8000b2c:	2b01      	cmp	r3, #1
 8000b2e:	d002      	beq.n	8000b36 <Receptor+0x16>
 8000b30:	2b02      	cmp	r3, #2
 8000b32:	d007      	beq.n	8000b44 <Receptor+0x24>
 8000b34:	e00e      	b.n	8000b54 <Receptor+0x34>
	  	  	  case 1:
	  	  		  TIM5->ARR = 208;
 8000b36:	4b21      	ldr	r3, [pc, #132]	; (8000bbc <Receptor+0x9c>)
 8000b38:	22d0      	movs	r2, #208	; 0xd0
 8000b3a:	62da      	str	r2, [r3, #44]	; 0x2c
	  	  		  cambioARR = 0;
 8000b3c:	4b1e      	ldr	r3, [pc, #120]	; (8000bb8 <Receptor+0x98>)
 8000b3e:	2200      	movs	r2, #0
 8000b40:	601a      	str	r2, [r3, #0]
	  	  		  break;
 8000b42:	e007      	b.n	8000b54 <Receptor+0x34>
	  	  	  case 2:
	  	  		  TIM5->ARR = 312;
 8000b44:	4b1d      	ldr	r3, [pc, #116]	; (8000bbc <Receptor+0x9c>)
 8000b46:	f44f 729c 	mov.w	r2, #312	; 0x138
 8000b4a:	62da      	str	r2, [r3, #44]	; 0x2c
	  	  		  cambioARR = 0;
 8000b4c:	4b1a      	ldr	r3, [pc, #104]	; (8000bb8 <Receptor+0x98>)
 8000b4e:	2200      	movs	r2, #0
 8000b50:	601a      	str	r2, [r3, #0]
	  	  		  break;
 8000b52:	bf00      	nop
	  	  }

	  	  if(imprimir){
 8000b54:	4b1a      	ldr	r3, [pc, #104]	; (8000bc0 <Receptor+0xa0>)
 8000b56:	781b      	ldrb	r3, [r3, #0]
 8000b58:	2b00      	cmp	r3, #0
 8000b5a:	d0e5      	beq.n	8000b28 <Receptor+0x8>
	  		  snprintf(buffer, sizeof(buffer), "El valor es: %d %d %d %d %d %d %d %d\r\n", data[1], data[2], data[3], data[4], data[5], data[6], data[7], data[8]);
 8000b5c:	4b19      	ldr	r3, [pc, #100]	; (8000bc4 <Receptor+0xa4>)
 8000b5e:	685b      	ldr	r3, [r3, #4]
 8000b60:	603b      	str	r3, [r7, #0]
 8000b62:	4b18      	ldr	r3, [pc, #96]	; (8000bc4 <Receptor+0xa4>)
 8000b64:	689b      	ldr	r3, [r3, #8]
 8000b66:	4a17      	ldr	r2, [pc, #92]	; (8000bc4 <Receptor+0xa4>)
 8000b68:	68d2      	ldr	r2, [r2, #12]
 8000b6a:	4916      	ldr	r1, [pc, #88]	; (8000bc4 <Receptor+0xa4>)
 8000b6c:	6909      	ldr	r1, [r1, #16]
 8000b6e:	4815      	ldr	r0, [pc, #84]	; (8000bc4 <Receptor+0xa4>)
 8000b70:	6940      	ldr	r0, [r0, #20]
 8000b72:	4c14      	ldr	r4, [pc, #80]	; (8000bc4 <Receptor+0xa4>)
 8000b74:	69a4      	ldr	r4, [r4, #24]
 8000b76:	4d13      	ldr	r5, [pc, #76]	; (8000bc4 <Receptor+0xa4>)
 8000b78:	69ed      	ldr	r5, [r5, #28]
 8000b7a:	4e12      	ldr	r6, [pc, #72]	; (8000bc4 <Receptor+0xa4>)
 8000b7c:	6a36      	ldr	r6, [r6, #32]
 8000b7e:	9606      	str	r6, [sp, #24]
 8000b80:	9505      	str	r5, [sp, #20]
 8000b82:	9404      	str	r4, [sp, #16]
 8000b84:	9003      	str	r0, [sp, #12]
 8000b86:	9102      	str	r1, [sp, #8]
 8000b88:	9201      	str	r2, [sp, #4]
 8000b8a:	9300      	str	r3, [sp, #0]
 8000b8c:	683b      	ldr	r3, [r7, #0]
 8000b8e:	4a0e      	ldr	r2, [pc, #56]	; (8000bc8 <Receptor+0xa8>)
 8000b90:	2128      	movs	r1, #40	; 0x28
 8000b92:	480e      	ldr	r0, [pc, #56]	; (8000bcc <Receptor+0xac>)
 8000b94:	f005 f872 	bl	8005c7c <sniprintf>
	  		  HAL_UART_Transmit(&huart2, (uint8_t*)buffer, strlen(buffer), HAL_MAX_DELAY);
 8000b98:	480c      	ldr	r0, [pc, #48]	; (8000bcc <Receptor+0xac>)
 8000b9a:	f7ff fb21 	bl	80001e0 <strlen>
 8000b9e:	4603      	mov	r3, r0
 8000ba0:	b29a      	uxth	r2, r3
 8000ba2:	f04f 33ff 	mov.w	r3, #4294967295
 8000ba6:	4909      	ldr	r1, [pc, #36]	; (8000bcc <Receptor+0xac>)
 8000ba8:	4809      	ldr	r0, [pc, #36]	; (8000bd0 <Receptor+0xb0>)
 8000baa:	f001 ff1c 	bl	80029e6 <HAL_UART_Transmit>
	  		  imprimir = 0;
 8000bae:	4b04      	ldr	r3, [pc, #16]	; (8000bc0 <Receptor+0xa0>)
 8000bb0:	2200      	movs	r2, #0
 8000bb2:	701a      	strb	r2, [r3, #0]
	  switch(cambioARR){
 8000bb4:	e7b8      	b.n	8000b28 <Receptor+0x8>
 8000bb6:	bf00      	nop
 8000bb8:	20000004 	.word	0x20000004
 8000bbc:	40000c00 	.word	0x40000c00
 8000bc0:	200001c4 	.word	0x200001c4
 8000bc4:	200001f4 	.word	0x200001f4
 8000bc8:	08006594 	.word	0x08006594
 8000bcc:	200001cc 	.word	0x200001cc
 8000bd0:	20000170 	.word	0x20000170

08000bd4 <HAL_GPIO_EXTI_Callback>:
  * HAL_TIM_IRQHandler(). It makes a direct call to HAL_IncTick() to increment
  * a global variable "uwTick" used as application time base.
  * @param  htim : TIM handle
  * @retval None
  */
void HAL_GPIO_EXTI_Callback(uint16_t GPIO_Pin) {
 8000bd4:	b580      	push	{r7, lr}
 8000bd6:	b082      	sub	sp, #8
 8000bd8:	af00      	add	r7, sp, #0
 8000bda:	4603      	mov	r3, r0
 8000bdc:	80fb      	strh	r3, [r7, #6]

	if(contComunicacionGPIO){
 8000bde:	4b07      	ldr	r3, [pc, #28]	; (8000bfc <HAL_GPIO_EXTI_Callback+0x28>)
 8000be0:	681b      	ldr	r3, [r3, #0]
 8000be2:	2b00      	cmp	r3, #0
 8000be4:	d005      	beq.n	8000bf2 <HAL_GPIO_EXTI_Callback+0x1e>
		HAL_TIM_Base_Start_IT(&htim5);
 8000be6:	4806      	ldr	r0, [pc, #24]	; (8000c00 <HAL_GPIO_EXTI_Callback+0x2c>)
 8000be8:	f001 fa8c 	bl	8002104 <HAL_TIM_Base_Start_IT>
		contComunicacionGPIO = 0;
 8000bec:	4b03      	ldr	r3, [pc, #12]	; (8000bfc <HAL_GPIO_EXTI_Callback+0x28>)
 8000bee:	2200      	movs	r2, #0
 8000bf0:	601a      	str	r2, [r3, #0]
	}

}
 8000bf2:	bf00      	nop
 8000bf4:	3708      	adds	r7, #8
 8000bf6:	46bd      	mov	sp, r7
 8000bf8:	bd80      	pop	{r7, pc}
 8000bfa:	bf00      	nop
 8000bfc:	20000000 	.word	0x20000000
 8000c00:	20000128 	.word	0x20000128

08000c04 <HAL_TIM_PeriodElapsedCallback>:

void HAL_TIM_PeriodElapsedCallback(TIM_HandleTypeDef *htim)
{
 8000c04:	b580      	push	{r7, lr}
 8000c06:	b082      	sub	sp, #8
 8000c08:	af00      	add	r7, sp, #0
 8000c0a:	6078      	str	r0, [r7, #4]
  /* USER CODE BEGIN Callback 0 */
  /* USER CODE END Callback 0 */
  if (htim->Instance == TIM11) {
 8000c0c:	687b      	ldr	r3, [r7, #4]
 8000c0e:	681b      	ldr	r3, [r3, #0]
 8000c10:	4a1c      	ldr	r2, [pc, #112]	; (8000c84 <HAL_TIM_PeriodElapsedCallback+0x80>)
 8000c12:	4293      	cmp	r3, r2
 8000c14:	d101      	bne.n	8000c1a <HAL_TIM_PeriodElapsedCallback+0x16>
    HAL_IncTick();
 8000c16:	f000 fa71 	bl	80010fc <HAL_IncTick>
  }
  /* USER CODE BEGIN Callback 1 */
  if(htim == &htim5){
 8000c1a:	687b      	ldr	r3, [r7, #4]
 8000c1c:	4a1a      	ldr	r2, [pc, #104]	; (8000c88 <HAL_TIM_PeriodElapsedCallback+0x84>)
 8000c1e:	4293      	cmp	r3, r2
 8000c20:	d12c      	bne.n	8000c7c <HAL_TIM_PeriodElapsedCallback+0x78>
  		if(TIM5->ARR == 312) cambioARR = 1;
 8000c22:	4b1a      	ldr	r3, [pc, #104]	; (8000c8c <HAL_TIM_PeriodElapsedCallback+0x88>)
 8000c24:	6adb      	ldr	r3, [r3, #44]	; 0x2c
 8000c26:	f5b3 7f9c 	cmp.w	r3, #312	; 0x138
 8000c2a:	d102      	bne.n	8000c32 <HAL_TIM_PeriodElapsedCallback+0x2e>
 8000c2c:	4b18      	ldr	r3, [pc, #96]	; (8000c90 <HAL_TIM_PeriodElapsedCallback+0x8c>)
 8000c2e:	2201      	movs	r2, #1
 8000c30:	601a      	str	r2, [r3, #0]
  		if(contComunicacionTimer == 9){
 8000c32:	4b18      	ldr	r3, [pc, #96]	; (8000c94 <HAL_TIM_PeriodElapsedCallback+0x90>)
 8000c34:	681b      	ldr	r3, [r3, #0]
 8000c36:	2b09      	cmp	r3, #9
 8000c38:	d10e      	bne.n	8000c58 <HAL_TIM_PeriodElapsedCallback+0x54>
  			contComunicacionTimer = 0;
 8000c3a:	4b16      	ldr	r3, [pc, #88]	; (8000c94 <HAL_TIM_PeriodElapsedCallback+0x90>)
 8000c3c:	2200      	movs	r2, #0
 8000c3e:	601a      	str	r2, [r3, #0]
  			contComunicacionGPIO = 1;
 8000c40:	4b15      	ldr	r3, [pc, #84]	; (8000c98 <HAL_TIM_PeriodElapsedCallback+0x94>)
 8000c42:	2201      	movs	r2, #1
 8000c44:	601a      	str	r2, [r3, #0]
  			cambioARR = 2;
 8000c46:	4b12      	ldr	r3, [pc, #72]	; (8000c90 <HAL_TIM_PeriodElapsedCallback+0x8c>)
 8000c48:	2202      	movs	r2, #2
 8000c4a:	601a      	str	r2, [r3, #0]
  			imprimir = 1;
 8000c4c:	4b13      	ldr	r3, [pc, #76]	; (8000c9c <HAL_TIM_PeriodElapsedCallback+0x98>)
 8000c4e:	2201      	movs	r2, #1
 8000c50:	701a      	strb	r2, [r3, #0]
  			HAL_TIM_Base_Stop_IT(&htim5);
 8000c52:	480d      	ldr	r0, [pc, #52]	; (8000c88 <HAL_TIM_PeriodElapsedCallback+0x84>)
 8000c54:	f001 fab8 	bl	80021c8 <HAL_TIM_Base_Stop_IT>
  		}
  		data[contComunicacionTimer] = HAL_GPIO_ReadPin(GPIOC, GPIO_PIN_8);
 8000c58:	f44f 7180 	mov.w	r1, #256	; 0x100
 8000c5c:	4810      	ldr	r0, [pc, #64]	; (8000ca0 <HAL_TIM_PeriodElapsedCallback+0x9c>)
 8000c5e:	f000 fcd3 	bl	8001608 <HAL_GPIO_ReadPin>
 8000c62:	4603      	mov	r3, r0
 8000c64:	461a      	mov	r2, r3
 8000c66:	4b0b      	ldr	r3, [pc, #44]	; (8000c94 <HAL_TIM_PeriodElapsedCallback+0x90>)
 8000c68:	681b      	ldr	r3, [r3, #0]
 8000c6a:	4611      	mov	r1, r2
 8000c6c:	4a0d      	ldr	r2, [pc, #52]	; (8000ca4 <HAL_TIM_PeriodElapsedCallback+0xa0>)
 8000c6e:	f842 1023 	str.w	r1, [r2, r3, lsl #2]
  		++contComunicacionTimer;
 8000c72:	4b08      	ldr	r3, [pc, #32]	; (8000c94 <HAL_TIM_PeriodElapsedCallback+0x90>)
 8000c74:	681b      	ldr	r3, [r3, #0]
 8000c76:	3301      	adds	r3, #1
 8000c78:	4a06      	ldr	r2, [pc, #24]	; (8000c94 <HAL_TIM_PeriodElapsedCallback+0x90>)
 8000c7a:	6013      	str	r3, [r2, #0]

  	}
  /* USER CODE END Callback 1 */
}
 8000c7c:	bf00      	nop
 8000c7e:	3708      	adds	r7, #8
 8000c80:	46bd      	mov	sp, r7
 8000c82:	bd80      	pop	{r7, pc}
 8000c84:	40014800 	.word	0x40014800
 8000c88:	20000128 	.word	0x20000128
 8000c8c:	40000c00 	.word	0x40000c00
 8000c90:	20000004 	.word	0x20000004
 8000c94:	200001c8 	.word	0x200001c8
 8000c98:	20000000 	.word	0x20000000
 8000c9c:	200001c4 	.word	0x200001c4
 8000ca0:	40020800 	.word	0x40020800
 8000ca4:	200001f4 	.word	0x200001f4

08000ca8 <Error_Handler>:
/**
  * @brief  This function is executed in case of error occurrence.
  * @retval None
  */
void Error_Handler(void)
{
 8000ca8:	b480      	push	{r7}
 8000caa:	af00      	add	r7, sp, #0
  \details Disables IRQ interrupts by setting the I-bit in the CPSR.
           Can only be executed in Privileged modes.
 */
__STATIC_FORCEINLINE void __disable_irq(void)
{
  __ASM volatile ("cpsid i" : : : "memory");
 8000cac:	b672      	cpsid	i
}
 8000cae:	bf00      	nop
  /* USER CODE BEGIN Error_Handler_Debug */
  /* User can add his own implementation to report the HAL error return state */
  __disable_irq();
  while (1)
 8000cb0:	e7fe      	b.n	8000cb0 <Error_Handler+0x8>
	...

08000cb4 <HAL_MspInit>:
 8000cb4:	b580      	push	{r7, lr}
 8000cb6:	b082      	sub	sp, #8
 8000cb8:	af00      	add	r7, sp, #0
 8000cba:	2300      	movs	r3, #0
 8000cbc:	607b      	str	r3, [r7, #4]
 8000cbe:	4b12      	ldr	r3, [pc, #72]	; (8000d08 <HAL_MspInit+0x54>)
 8000cc0:	6c5b      	ldr	r3, [r3, #68]	; 0x44
 8000cc2:	4a11      	ldr	r2, [pc, #68]	; (8000d08 <HAL_MspInit+0x54>)
 8000cc4:	f443 4380 	orr.w	r3, r3, #16384	; 0x4000
 8000cc8:	6453      	str	r3, [r2, #68]	; 0x44
 8000cca:	4b0f      	ldr	r3, [pc, #60]	; (8000d08 <HAL_MspInit+0x54>)
 8000ccc:	6c5b      	ldr	r3, [r3, #68]	; 0x44
 8000cce:	f403 4380 	and.w	r3, r3, #16384	; 0x4000
 8000cd2:	607b      	str	r3, [r7, #4]
 8000cd4:	687b      	ldr	r3, [r7, #4]
 8000cd6:	2300      	movs	r3, #0
 8000cd8:	603b      	str	r3, [r7, #0]
 8000cda:	4b0b      	ldr	r3, [pc, #44]	; (8000d08 <HAL_MspInit+0x54>)
 8000cdc:	6c1b      	ldr	r3, [r3, #64]	; 0x40
 8000cde:	4a0a      	ldr	r2, [pc, #40]	; (8000d08 <HAL_MspInit+0x54>)
 8000ce0:	f043 5380 	orr.w	r3, r3, #268435456	; 0x10000000
 8000ce4:	6413      	str	r3, [r2, #64]	; 0x40
 8000ce6:	4b08      	ldr	r3, [pc, #32]	; (8000d08 <HAL_MspInit+0x54>)
 8000ce8:	6c1b      	ldr	r3, [r3, #64]	; 0x40
 8000cea:	f003 5380 	and.w	r3, r3, #268435456	; 0x10000000
 8000cee:	603b      	str	r3, [r7, #0]
 8000cf0:	683b      	ldr	r3, [r7, #0]
 8000cf2:	2200      	movs	r2, #0
 8000cf4:	210f      	movs	r1, #15
 8000cf6:	f06f 0001 	mvn.w	r0, #1
 8000cfa:	f000 fad7 	bl	80012ac <HAL_NVIC_SetPriority>
 8000cfe:	bf00      	nop
 8000d00:	3708      	adds	r7, #8
 8000d02:	46bd      	mov	sp, r7
 8000d04:	bd80      	pop	{r7, pc}
 8000d06:	bf00      	nop
 8000d08:	40023800 	.word	0x40023800

08000d0c <HAL_TIM_Base_MspInit>:
 8000d0c:	b580      	push	{r7, lr}
 8000d0e:	b086      	sub	sp, #24
 8000d10:	af00      	add	r7, sp, #0
 8000d12:	6078      	str	r0, [r7, #4]
 8000d14:	687b      	ldr	r3, [r7, #4]
 8000d16:	681b      	ldr	r3, [r3, #0]
 8000d18:	4a2a      	ldr	r2, [pc, #168]	; (8000dc4 <HAL_TIM_Base_MspInit+0xb8>)
 8000d1a:	4293      	cmp	r3, r2
 8000d1c:	d116      	bne.n	8000d4c <HAL_TIM_Base_MspInit+0x40>
 8000d1e:	2300      	movs	r3, #0
 8000d20:	617b      	str	r3, [r7, #20]
 8000d22:	4b29      	ldr	r3, [pc, #164]	; (8000dc8 <HAL_TIM_Base_MspInit+0xbc>)
 8000d24:	6c1b      	ldr	r3, [r3, #64]	; 0x40
 8000d26:	4a28      	ldr	r2, [pc, #160]	; (8000dc8 <HAL_TIM_Base_MspInit+0xbc>)
 8000d28:	f043 0302 	orr.w	r3, r3, #2
 8000d2c:	6413      	str	r3, [r2, #64]	; 0x40
 8000d2e:	4b26      	ldr	r3, [pc, #152]	; (8000dc8 <HAL_TIM_Base_MspInit+0xbc>)
 8000d30:	6c1b      	ldr	r3, [r3, #64]	; 0x40
 8000d32:	f003 0302 	and.w	r3, r3, #2
 8000d36:	617b      	str	r3, [r7, #20]
 8000d38:	697b      	ldr	r3, [r7, #20]
 8000d3a:	2200      	movs	r2, #0
 8000d3c:	2105      	movs	r1, #5
 8000d3e:	201d      	movs	r0, #29
 8000d40:	f000 fab4 	bl	80012ac <HAL_NVIC_SetPriority>
 8000d44:	201d      	movs	r0, #29
 8000d46:	f000 facd 	bl	80012e4 <HAL_NVIC_EnableIRQ>
 8000d4a:	e036      	b.n	8000dba <HAL_TIM_Base_MspInit+0xae>
 8000d4c:	687b      	ldr	r3, [r7, #4]
 8000d4e:	681b      	ldr	r3, [r3, #0]
 8000d50:	4a1e      	ldr	r2, [pc, #120]	; (8000dcc <HAL_TIM_Base_MspInit+0xc0>)
 8000d52:	4293      	cmp	r3, r2
 8000d54:	d116      	bne.n	8000d84 <HAL_TIM_Base_MspInit+0x78>
 8000d56:	2300      	movs	r3, #0
 8000d58:	613b      	str	r3, [r7, #16]
 8000d5a:	4b1b      	ldr	r3, [pc, #108]	; (8000dc8 <HAL_TIM_Base_MspInit+0xbc>)
 8000d5c:	6c1b      	ldr	r3, [r3, #64]	; 0x40
 8000d5e:	4a1a      	ldr	r2, [pc, #104]	; (8000dc8 <HAL_TIM_Base_MspInit+0xbc>)
 8000d60:	f043 0304 	orr.w	r3, r3, #4
 8000d64:	6413      	str	r3, [r2, #64]	; 0x40
 8000d66:	4b18      	ldr	r3, [pc, #96]	; (8000dc8 <HAL_TIM_Base_MspInit+0xbc>)
 8000d68:	6c1b      	ldr	r3, [r3, #64]	; 0x40
 8000d6a:	f003 0304 	and.w	r3, r3, #4
 8000d6e:	613b      	str	r3, [r7, #16]
 8000d70:	693b      	ldr	r3, [r7, #16]
 8000d72:	2200      	movs	r2, #0
 8000d74:	2105      	movs	r1, #5
 8000d76:	201e      	movs	r0, #30
 8000d78:	f000 fa98 	bl	80012ac <HAL_NVIC_SetPriority>
 8000d7c:	201e      	movs	r0, #30
 8000d7e:	f000 fab1 	bl	80012e4 <HAL_NVIC_EnableIRQ>
 8000d82:	e01a      	b.n	8000dba <HAL_TIM_Base_MspInit+0xae>
 8000d84:	687b      	ldr	r3, [r7, #4]
 8000d86:	681b      	ldr	r3, [r3, #0]
 8000d88:	4a11      	ldr	r2, [pc, #68]	; (8000dd0 <HAL_TIM_Base_MspInit+0xc4>)
 8000d8a:	4293      	cmp	r3, r2
 8000d8c:	d115      	bne.n	8000dba <HAL_TIM_Base_MspInit+0xae>
 8000d8e:	2300      	movs	r3, #0
 8000d90:	60fb      	str	r3, [r7, #12]
 8000d92:	4b0d      	ldr	r3, [pc, #52]	; (8000dc8 <HAL_TIM_Base_MspInit+0xbc>)
 8000d94:	6c1b      	ldr	r3, [r3, #64]	; 0x40
 8000d96:	4a0c      	ldr	r2, [pc, #48]	; (8000dc8 <HAL_TIM_Base_MspInit+0xbc>)
 8000d98:	f043 0308 	orr.w	r3, r3, #8
 8000d9c:	6413      	str	r3, [r2, #64]	; 0x40
 8000d9e:	4b0a      	ldr	r3, [pc, #40]	; (8000dc8 <HAL_TIM_Base_MspInit+0xbc>)
 8000da0:	6c1b      	ldr	r3, [r3, #64]	; 0x40
 8000da2:	f003 0308 	and.w	r3, r3, #8
 8000da6:	60fb      	str	r3, [r7, #12]
 8000da8:	68fb      	ldr	r3, [r7, #12]
 8000daa:	2200      	movs	r2, #0
 8000dac:	2105      	movs	r1, #5
 8000dae:	2032      	movs	r0, #50	; 0x32
 8000db0:	f000 fa7c 	bl	80012ac <HAL_NVIC_SetPriority>
 8000db4:	2032      	movs	r0, #50	; 0x32
 8000db6:	f000 fa95 	bl	80012e4 <HAL_NVIC_EnableIRQ>
 8000dba:	bf00      	nop
 8000dbc:	3718      	adds	r7, #24
 8000dbe:	46bd      	mov	sp, r7
 8000dc0:	bd80      	pop	{r7, pc}
 8000dc2:	bf00      	nop
 8000dc4:	40000400 	.word	0x40000400
 8000dc8:	40023800 	.word	0x40023800
 8000dcc:	40000800 	.word	0x40000800
 8000dd0:	40000c00 	.word	0x40000c00

08000dd4 <HAL_UART_MspInit>:
 8000dd4:	b580      	push	{r7, lr}
 8000dd6:	b08a      	sub	sp, #40	; 0x28
 8000dd8:	af00      	add	r7, sp, #0
 8000dda:	6078      	str	r0, [r7, #4]
 8000ddc:	f107 0314 	add.w	r3, r7, #20
 8000de0:	2200      	movs	r2, #0
 8000de2:	601a      	str	r2, [r3, #0]
 8000de4:	605a      	str	r2, [r3, #4]
 8000de6:	609a      	str	r2, [r3, #8]
 8000de8:	60da      	str	r2, [r3, #12]
 8000dea:	611a      	str	r2, [r3, #16]
 8000dec:	687b      	ldr	r3, [r7, #4]
 8000dee:	681b      	ldr	r3, [r3, #0]
 8000df0:	4a19      	ldr	r2, [pc, #100]	; (8000e58 <HAL_UART_MspInit+0x84>)
 8000df2:	4293      	cmp	r3, r2
 8000df4:	d12b      	bne.n	8000e4e <HAL_UART_MspInit+0x7a>
 8000df6:	2300      	movs	r3, #0
 8000df8:	613b      	str	r3, [r7, #16]
 8000dfa:	4b18      	ldr	r3, [pc, #96]	; (8000e5c <HAL_UART_MspInit+0x88>)
 8000dfc:	6c1b      	ldr	r3, [r3, #64]	; 0x40
 8000dfe:	4a17      	ldr	r2, [pc, #92]	; (8000e5c <HAL_UART_MspInit+0x88>)
 8000e00:	f443 3300 	orr.w	r3, r3, #131072	; 0x20000
 8000e04:	6413      	str	r3, [r2, #64]	; 0x40
 8000e06:	4b15      	ldr	r3, [pc, #84]	; (8000e5c <HAL_UART_MspInit+0x88>)
 8000e08:	6c1b      	ldr	r3, [r3, #64]	; 0x40
 8000e0a:	f403 3300 	and.w	r3, r3, #131072	; 0x20000
 8000e0e:	613b      	str	r3, [r7, #16]
 8000e10:	693b      	ldr	r3, [r7, #16]
 8000e12:	2300      	movs	r3, #0
 8000e14:	60fb      	str	r3, [r7, #12]
 8000e16:	4b11      	ldr	r3, [pc, #68]	; (8000e5c <HAL_UART_MspInit+0x88>)
 8000e18:	6b1b      	ldr	r3, [r3, #48]	; 0x30
 8000e1a:	4a10      	ldr	r2, [pc, #64]	; (8000e5c <HAL_UART_MspInit+0x88>)
 8000e1c:	f043 0301 	orr.w	r3, r3, #1
 8000e20:	6313      	str	r3, [r2, #48]	; 0x30
 8000e22:	4b0e      	ldr	r3, [pc, #56]	; (8000e5c <HAL_UART_MspInit+0x88>)
 8000e24:	6b1b      	ldr	r3, [r3, #48]	; 0x30
 8000e26:	f003 0301 	and.w	r3, r3, #1
 8000e2a:	60fb      	str	r3, [r7, #12]
 8000e2c:	68fb      	ldr	r3, [r7, #12]
 8000e2e:	230c      	movs	r3, #12
 8000e30:	617b      	str	r3, [r7, #20]
 8000e32:	2302      	movs	r3, #2
 8000e34:	61bb      	str	r3, [r7, #24]
 8000e36:	2300      	movs	r3, #0
 8000e38:	61fb      	str	r3, [r7, #28]
 8000e3a:	2303      	movs	r3, #3
 8000e3c:	623b      	str	r3, [r7, #32]
 8000e3e:	2307      	movs	r3, #7
 8000e40:	627b      	str	r3, [r7, #36]	; 0x24
 8000e42:	f107 0314 	add.w	r3, r7, #20
 8000e46:	4619      	mov	r1, r3
 8000e48:	4805      	ldr	r0, [pc, #20]	; (8000e60 <HAL_UART_MspInit+0x8c>)
 8000e4a:	f000 fa59 	bl	8001300 <HAL_GPIO_Init>
 8000e4e:	bf00      	nop
 8000e50:	3728      	adds	r7, #40	; 0x28
 8000e52:	46bd      	mov	sp, r7
 8000e54:	bd80      	pop	{r7, pc}
 8000e56:	bf00      	nop
 8000e58:	40004400 	.word	0x40004400
 8000e5c:	40023800 	.word	0x40023800
 8000e60:	40020000 	.word	0x40020000

08000e64 <HAL_InitTick>:
 8000e64:	b580      	push	{r7, lr}
 8000e66:	b08c      	sub	sp, #48	; 0x30
 8000e68:	af00      	add	r7, sp, #0
 8000e6a:	6078      	str	r0, [r7, #4]
 8000e6c:	2300      	movs	r3, #0
 8000e6e:	62bb      	str	r3, [r7, #40]	; 0x28
 8000e70:	2300      	movs	r3, #0
 8000e72:	627b      	str	r3, [r7, #36]	; 0x24
 8000e74:	2300      	movs	r3, #0
 8000e76:	60bb      	str	r3, [r7, #8]
 8000e78:	4b2e      	ldr	r3, [pc, #184]	; (8000f34 <HAL_InitTick+0xd0>)
 8000e7a:	6c5b      	ldr	r3, [r3, #68]	; 0x44
 8000e7c:	4a2d      	ldr	r2, [pc, #180]	; (8000f34 <HAL_InitTick+0xd0>)
 8000e7e:	f443 2380 	orr.w	r3, r3, #262144	; 0x40000
 8000e82:	6453      	str	r3, [r2, #68]	; 0x44
 8000e84:	4b2b      	ldr	r3, [pc, #172]	; (8000f34 <HAL_InitTick+0xd0>)
 8000e86:	6c5b      	ldr	r3, [r3, #68]	; 0x44
 8000e88:	f403 2380 	and.w	r3, r3, #262144	; 0x40000
 8000e8c:	60bb      	str	r3, [r7, #8]
 8000e8e:	68bb      	ldr	r3, [r7, #8]
 8000e90:	f107 020c 	add.w	r2, r7, #12
 8000e94:	f107 0310 	add.w	r3, r7, #16
 8000e98:	4611      	mov	r1, r2
 8000e9a:	4618      	mov	r0, r3
 8000e9c:	f001 f8b0 	bl	8002000 <HAL_RCC_GetClockConfig>
 8000ea0:	f001 f89a 	bl	8001fd8 <HAL_RCC_GetPCLK2Freq>
 8000ea4:	62b8      	str	r0, [r7, #40]	; 0x28
 8000ea6:	6abb      	ldr	r3, [r7, #40]	; 0x28
 8000ea8:	4a23      	ldr	r2, [pc, #140]	; (8000f38 <HAL_InitTick+0xd4>)
 8000eaa:	fba2 2303 	umull	r2, r3, r2, r3
 8000eae:	0c9b      	lsrs	r3, r3, #18
 8000eb0:	3b01      	subs	r3, #1
 8000eb2:	627b      	str	r3, [r7, #36]	; 0x24
 8000eb4:	4b21      	ldr	r3, [pc, #132]	; (8000f3c <HAL_InitTick+0xd8>)
 8000eb6:	4a22      	ldr	r2, [pc, #136]	; (8000f40 <HAL_InitTick+0xdc>)
 8000eb8:	601a      	str	r2, [r3, #0]
 8000eba:	4b20      	ldr	r3, [pc, #128]	; (8000f3c <HAL_InitTick+0xd8>)
 8000ebc:	f240 32e7 	movw	r2, #999	; 0x3e7
 8000ec0:	60da      	str	r2, [r3, #12]
 8000ec2:	4a1e      	ldr	r2, [pc, #120]	; (8000f3c <HAL_InitTick+0xd8>)
 8000ec4:	6a7b      	ldr	r3, [r7, #36]	; 0x24
 8000ec6:	6053      	str	r3, [r2, #4]
 8000ec8:	4b1c      	ldr	r3, [pc, #112]	; (8000f3c <HAL_InitTick+0xd8>)
 8000eca:	2200      	movs	r2, #0
 8000ecc:	611a      	str	r2, [r3, #16]
 8000ece:	4b1b      	ldr	r3, [pc, #108]	; (8000f3c <HAL_InitTick+0xd8>)
 8000ed0:	2200      	movs	r2, #0
 8000ed2:	609a      	str	r2, [r3, #8]
 8000ed4:	4b19      	ldr	r3, [pc, #100]	; (8000f3c <HAL_InitTick+0xd8>)
 8000ed6:	2200      	movs	r2, #0
 8000ed8:	619a      	str	r2, [r3, #24]
 8000eda:	4818      	ldr	r0, [pc, #96]	; (8000f3c <HAL_InitTick+0xd8>)
 8000edc:	f001 f8c2 	bl	8002064 <HAL_TIM_Base_Init>
 8000ee0:	4603      	mov	r3, r0
 8000ee2:	f887 302f 	strb.w	r3, [r7, #47]	; 0x2f
 8000ee6:	f897 302f 	ldrb.w	r3, [r7, #47]	; 0x2f
 8000eea:	2b00      	cmp	r3, #0
 8000eec:	d11b      	bne.n	8000f26 <HAL_InitTick+0xc2>
 8000eee:	4813      	ldr	r0, [pc, #76]	; (8000f3c <HAL_InitTick+0xd8>)
 8000ef0:	f001 f908 	bl	8002104 <HAL_TIM_Base_Start_IT>
 8000ef4:	4603      	mov	r3, r0
 8000ef6:	f887 302f 	strb.w	r3, [r7, #47]	; 0x2f
 8000efa:	f897 302f 	ldrb.w	r3, [r7, #47]	; 0x2f
 8000efe:	2b00      	cmp	r3, #0
 8000f00:	d111      	bne.n	8000f26 <HAL_InitTick+0xc2>
 8000f02:	201a      	movs	r0, #26
 8000f04:	f000 f9ee 	bl	80012e4 <HAL_NVIC_EnableIRQ>
 8000f08:	687b      	ldr	r3, [r7, #4]
 8000f0a:	2b0f      	cmp	r3, #15
 8000f0c:	d808      	bhi.n	8000f20 <HAL_InitTick+0xbc>
 8000f0e:	2200      	movs	r2, #0
 8000f10:	6879      	ldr	r1, [r7, #4]
 8000f12:	201a      	movs	r0, #26
 8000f14:	f000 f9ca 	bl	80012ac <HAL_NVIC_SetPriority>
 8000f18:	4a0a      	ldr	r2, [pc, #40]	; (8000f44 <HAL_InitTick+0xe0>)
 8000f1a:	687b      	ldr	r3, [r7, #4]
 8000f1c:	6013      	str	r3, [r2, #0]
 8000f1e:	e002      	b.n	8000f26 <HAL_InitTick+0xc2>
 8000f20:	2301      	movs	r3, #1
 8000f22:	f887 302f 	strb.w	r3, [r7, #47]	; 0x2f
 8000f26:	f897 302f 	ldrb.w	r3, [r7, #47]	; 0x2f
 8000f2a:	4618      	mov	r0, r3
 8000f2c:	3730      	adds	r7, #48	; 0x30
 8000f2e:	46bd      	mov	sp, r7
 8000f30:	bd80      	pop	{r7, pc}
 8000f32:	bf00      	nop
 8000f34:	40023800 	.word	0x40023800
 8000f38:	431bde83 	.word	0x431bde83
 8000f3c:	20000218 	.word	0x20000218
 8000f40:	40014800 	.word	0x40014800
 8000f44:	2000000c 	.word	0x2000000c

08000f48 <NMI_Handler>:
 8000f48:	b480      	push	{r7}
 8000f4a:	af00      	add	r7, sp, #0
 8000f4c:	e7fe      	b.n	8000f4c <NMI_Handler+0x4>

08000f4e <HardFault_Handler>:
 8000f4e:	b480      	push	{r7}
 8000f50:	af00      	add	r7, sp, #0
 8000f52:	e7fe      	b.n	8000f52 <HardFault_Handler+0x4>

08000f54 <MemManage_Handler>:
 8000f54:	b480      	push	{r7}
 8000f56:	af00      	add	r7, sp, #0
 8000f58:	e7fe      	b.n	8000f58 <MemManage_Handler+0x4>

08000f5a <BusFault_Handler>:
 8000f5a:	b480      	push	{r7}
 8000f5c:	af00      	add	r7, sp, #0
 8000f5e:	e7fe      	b.n	8000f5e <BusFault_Handler+0x4>

08000f60 <UsageFault_Handler>:
 8000f60:	b480      	push	{r7}
 8000f62:	af00      	add	r7, sp, #0
 8000f64:	e7fe      	b.n	8000f64 <UsageFault_Handler+0x4>

08000f66 <DebugMon_Handler>:
 8000f66:	b480      	push	{r7}
 8000f68:	af00      	add	r7, sp, #0
 8000f6a:	bf00      	nop
 8000f6c:	46bd      	mov	sp, r7
 8000f6e:	f85d 7b04 	ldr.w	r7, [sp], #4
 8000f72:	4770      	bx	lr

08000f74 <EXTI9_5_IRQHandler>:
 8000f74:	b580      	push	{r7, lr}
 8000f76:	af00      	add	r7, sp, #0
 8000f78:	f44f 7080 	mov.w	r0, #256	; 0x100
 8000f7c:	f000 fb90 	bl	80016a0 <HAL_GPIO_EXTI_IRQHandler>
 8000f80:	bf00      	nop
 8000f82:	bd80      	pop	{r7, pc}

08000f84 <TIM1_TRG_COM_TIM11_IRQHandler>:
 8000f84:	b580      	push	{r7, lr}
 8000f86:	af00      	add	r7, sp, #0
 8000f88:	4802      	ldr	r0, [pc, #8]	; (8000f94 <TIM1_TRG_COM_TIM11_IRQHandler+0x10>)
 8000f8a:	f001 f94c 	bl	8002226 <HAL_TIM_IRQHandler>
 8000f8e:	bf00      	nop
 8000f90:	bd80      	pop	{r7, pc}
 8000f92:	bf00      	nop
 8000f94:	20000218 	.word	0x20000218

08000f98 <TIM3_IRQHandler>:
 8000f98:	b580      	push	{r7, lr}
 8000f9a:	af00      	add	r7, sp, #0
 8000f9c:	4802      	ldr	r0, [pc, #8]	; (8000fa8 <TIM3_IRQHandler+0x10>)
 8000f9e:	f001 f942 	bl	8002226 <HAL_TIM_IRQHandler>
 8000fa2:	bf00      	nop
 8000fa4:	bd80      	pop	{r7, pc}
 8000fa6:	bf00      	nop
 8000fa8:	20000098 	.word	0x20000098

08000fac <TIM4_IRQHandler>:
 8000fac:	b580      	push	{r7, lr}
 8000fae:	af00      	add	r7, sp, #0
 8000fb0:	4802      	ldr	r0, [pc, #8]	; (8000fbc <TIM4_IRQHandler+0x10>)
 8000fb2:	f001 f938 	bl	8002226 <HAL_TIM_IRQHandler>
 8000fb6:	bf00      	nop
 8000fb8:	bd80      	pop	{r7, pc}
 8000fba:	bf00      	nop
 8000fbc:	200000e0 	.word	0x200000e0

08000fc0 <TIM5_IRQHandler>:
 8000fc0:	b580      	push	{r7, lr}
 8000fc2:	af00      	add	r7, sp, #0
 8000fc4:	4802      	ldr	r0, [pc, #8]	; (8000fd0 <TIM5_IRQHandler+0x10>)
 8000fc6:	f001 f92e 	bl	8002226 <HAL_TIM_IRQHandler>
 8000fca:	bf00      	nop
 8000fcc:	bd80      	pop	{r7, pc}
 8000fce:	bf00      	nop
 8000fd0:	20000128 	.word	0x20000128

08000fd4 <_sbrk>:
 8000fd4:	b580      	push	{r7, lr}
 8000fd6:	b086      	sub	sp, #24
 8000fd8:	af00      	add	r7, sp, #0
 8000fda:	6078      	str	r0, [r7, #4]
 8000fdc:	4a14      	ldr	r2, [pc, #80]	; (8001030 <_sbrk+0x5c>)
 8000fde:	4b15      	ldr	r3, [pc, #84]	; (8001034 <_sbrk+0x60>)
 8000fe0:	1ad3      	subs	r3, r2, r3
 8000fe2:	617b      	str	r3, [r7, #20]
 8000fe4:	697b      	ldr	r3, [r7, #20]
 8000fe6:	613b      	str	r3, [r7, #16]
 8000fe8:	4b13      	ldr	r3, [pc, #76]	; (8001038 <_sbrk+0x64>)
 8000fea:	681b      	ldr	r3, [r3, #0]
 8000fec:	2b00      	cmp	r3, #0
 8000fee:	d102      	bne.n	8000ff6 <_sbrk+0x22>
 8000ff0:	4b11      	ldr	r3, [pc, #68]	; (8001038 <_sbrk+0x64>)
 8000ff2:	4a12      	ldr	r2, [pc, #72]	; (800103c <_sbrk+0x68>)
 8000ff4:	601a      	str	r2, [r3, #0]
 8000ff6:	4b10      	ldr	r3, [pc, #64]	; (8001038 <_sbrk+0x64>)
 8000ff8:	681a      	ldr	r2, [r3, #0]
 8000ffa:	687b      	ldr	r3, [r7, #4]
 8000ffc:	4413      	add	r3, r2
 8000ffe:	693a      	ldr	r2, [r7, #16]
 8001000:	429a      	cmp	r2, r3
 8001002:	d207      	bcs.n	8001014 <_sbrk+0x40>
 8001004:	f004 fdfa 	bl	8005bfc <__errno>
 8001008:	4603      	mov	r3, r0
 800100a:	220c      	movs	r2, #12
 800100c:	601a      	str	r2, [r3, #0]
 800100e:	f04f 33ff 	mov.w	r3, #4294967295
 8001012:	e009      	b.n	8001028 <_sbrk+0x54>
 8001014:	4b08      	ldr	r3, [pc, #32]	; (8001038 <_sbrk+0x64>)
 8001016:	681b      	ldr	r3, [r3, #0]
 8001018:	60fb      	str	r3, [r7, #12]
 800101a:	4b07      	ldr	r3, [pc, #28]	; (8001038 <_sbrk+0x64>)
 800101c:	681a      	ldr	r2, [r3, #0]
 800101e:	687b      	ldr	r3, [r7, #4]
 8001020:	4413      	add	r3, r2
 8001022:	4a05      	ldr	r2, [pc, #20]	; (8001038 <_sbrk+0x64>)
 8001024:	6013      	str	r3, [r2, #0]
 8001026:	68fb      	ldr	r3, [r7, #12]
 8001028:	4618      	mov	r0, r3
 800102a:	3718      	adds	r7, #24
 800102c:	46bd      	mov	sp, r7
 800102e:	bd80      	pop	{r7, pc}
 8001030:	20020000 	.word	0x20020000
 8001034:	00000400 	.word	0x00000400
 8001038:	20000260 	.word	0x20000260
 800103c:	20004bc8 	.word	0x20004bc8

08001040 <SystemInit>:
 8001040:	b480      	push	{r7}
 8001042:	af00      	add	r7, sp, #0
 8001044:	4b06      	ldr	r3, [pc, #24]	; (8001060 <SystemInit+0x20>)
 8001046:	f8d3 3088 	ldr.w	r3, [r3, #136]	; 0x88
 800104a:	4a05      	ldr	r2, [pc, #20]	; (8001060 <SystemInit+0x20>)
 800104c:	f443 0370 	orr.w	r3, r3, #15728640	; 0xf00000
 8001050:	f8c2 3088 	str.w	r3, [r2, #136]	; 0x88
 8001054:	bf00      	nop
 8001056:	46bd      	mov	sp, r7
 8001058:	f85d 7b04 	ldr.w	r7, [sp], #4
 800105c:	4770      	bx	lr
 800105e:	bf00      	nop
 8001060:	e000ed00 	.word	0xe000ed00

08001064 <Reset_Handler>:
 8001064:	f8df d034 	ldr.w	sp, [pc, #52]	; 800109c <LoopFillZerobss+0x12>
 8001068:	480d      	ldr	r0, [pc, #52]	; (80010a0 <LoopFillZerobss+0x16>)
 800106a:	490e      	ldr	r1, [pc, #56]	; (80010a4 <LoopFillZerobss+0x1a>)
 800106c:	4a0e      	ldr	r2, [pc, #56]	; (80010a8 <LoopFillZerobss+0x1e>)
 800106e:	2300      	movs	r3, #0
 8001070:	e002      	b.n	8001078 <LoopCopyDataInit>

08001072 <CopyDataInit>:
 8001072:	58d4      	ldr	r4, [r2, r3]
 8001074:	50c4      	str	r4, [r0, r3]
 8001076:	3304      	adds	r3, #4

08001078 <LoopCopyDataInit>:
 8001078:	18c4      	adds	r4, r0, r3
 800107a:	428c      	cmp	r4, r1
 800107c:	d3f9      	bcc.n	8001072 <CopyDataInit>
 800107e:	4a0b      	ldr	r2, [pc, #44]	; (80010ac <LoopFillZerobss+0x22>)
 8001080:	4c0b      	ldr	r4, [pc, #44]	; (80010b0 <LoopFillZerobss+0x26>)
 8001082:	2300      	movs	r3, #0
 8001084:	e001      	b.n	800108a <LoopFillZerobss>

08001086 <FillZerobss>:
 8001086:	6013      	str	r3, [r2, #0]
 8001088:	3204      	adds	r2, #4

0800108a <LoopFillZerobss>:
 800108a:	42a2      	cmp	r2, r4
 800108c:	d3fb      	bcc.n	8001086 <FillZerobss>
 800108e:	f7ff ffd7 	bl	8001040 <SystemInit>
 8001092:	f004 fdb9 	bl	8005c08 <__libc_init_array>
 8001096:	f7ff fa7d 	bl	8000594 <main>
 800109a:	4770      	bx	lr
 800109c:	20020000 	.word	0x20020000
 80010a0:	20000000 	.word	0x20000000
 80010a4:	2000007c 	.word	0x2000007c
 80010a8:	0800669c 	.word	0x0800669c
 80010ac:	2000007c 	.word	0x2000007c
 80010b0:	20004bc8 	.word	0x20004bc8

080010b4 <ADC_IRQHandler>:
 80010b4:	e7fe      	b.n	80010b4 <ADC_IRQHandler>
	...

080010b8 <HAL_Init>:
 80010b8:	b580      	push	{r7, lr}
 80010ba:	af00      	add	r7, sp, #0
 80010bc:	4b0e      	ldr	r3, [pc, #56]	; (80010f8 <HAL_Init+0x40>)
 80010be:	681b      	ldr	r3, [r3, #0]
 80010c0:	4a0d      	ldr	r2, [pc, #52]	; (80010f8 <HAL_Init+0x40>)
 80010c2:	f443 7300 	orr.w	r3, r3, #512	; 0x200
 80010c6:	6013      	str	r3, [r2, #0]
 80010c8:	4b0b      	ldr	r3, [pc, #44]	; (80010f8 <HAL_Init+0x40>)
 80010ca:	681b      	ldr	r3, [r3, #0]
 80010cc:	4a0a      	ldr	r2, [pc, #40]	; (80010f8 <HAL_Init+0x40>)
 80010ce:	f443 6380 	orr.w	r3, r3, #1024	; 0x400
 80010d2:	6013      	str	r3, [r2, #0]
 80010d4:	4b08      	ldr	r3, [pc, #32]	; (80010f8 <HAL_Init+0x40>)
 80010d6:	681b      	ldr	r3, [r3, #0]
 80010d8:	4a07      	ldr	r2, [pc, #28]	; (80010f8 <HAL_Init+0x40>)
 80010da:	f443 7380 	orr.w	r3, r3, #256	; 0x100
 80010de:	6013      	str	r3, [r2, #0]
 80010e0:	2003      	movs	r0, #3
 80010e2:	f000 f8d8 	bl	8001296 <HAL_NVIC_SetPriorityGrouping>
 80010e6:	200f      	movs	r0, #15
 80010e8:	f7ff febc 	bl	8000e64 <HAL_InitTick>
 80010ec:	f7ff fde2 	bl	8000cb4 <HAL_MspInit>
 80010f0:	2300      	movs	r3, #0
 80010f2:	4618      	mov	r0, r3
 80010f4:	bd80      	pop	{r7, pc}
 80010f6:	bf00      	nop
 80010f8:	40023c00 	.word	0x40023c00

080010fc <HAL_IncTick>:
 80010fc:	b480      	push	{r7}
 80010fe:	af00      	add	r7, sp, #0
 8001100:	4b06      	ldr	r3, [pc, #24]	; (800111c <HAL_IncTick+0x20>)
 8001102:	781b      	ldrb	r3, [r3, #0]
 8001104:	461a      	mov	r2, r3
 8001106:	4b06      	ldr	r3, [pc, #24]	; (8001120 <HAL_IncTick+0x24>)
 8001108:	681b      	ldr	r3, [r3, #0]
 800110a:	4413      	add	r3, r2
 800110c:	4a04      	ldr	r2, [pc, #16]	; (8001120 <HAL_IncTick+0x24>)
 800110e:	6013      	str	r3, [r2, #0]
 8001110:	bf00      	nop
 8001112:	46bd      	mov	sp, r7
 8001114:	f85d 7b04 	ldr.w	r7, [sp], #4
 8001118:	4770      	bx	lr
 800111a:	bf00      	nop
 800111c:	20000010 	.word	0x20000010
 8001120:	20000264 	.word	0x20000264

08001124 <HAL_GetTick>:
 8001124:	b480      	push	{r7}
 8001126:	af00      	add	r7, sp, #0
 8001128:	4b03      	ldr	r3, [pc, #12]	; (8001138 <HAL_GetTick+0x14>)
 800112a:	681b      	ldr	r3, [r3, #0]
 800112c:	4618      	mov	r0, r3
 800112e:	46bd      	mov	sp, r7
 8001130:	f85d 7b04 	ldr.w	r7, [sp], #4
 8001134:	4770      	bx	lr
 8001136:	bf00      	nop
 8001138:	20000264 	.word	0x20000264

0800113c <__NVIC_SetPriorityGrouping>:
 800113c:	b480      	push	{r7}
 800113e:	b085      	sub	sp, #20
 8001140:	af00      	add	r7, sp, #0
 8001142:	6078      	str	r0, [r7, #4]
 8001144:	687b      	ldr	r3, [r7, #4]
 8001146:	f003 0307 	and.w	r3, r3, #7
 800114a:	60fb      	str	r3, [r7, #12]
 800114c:	4b0c      	ldr	r3, [pc, #48]	; (8001180 <__NVIC_SetPriorityGrouping+0x44>)
 800114e:	68db      	ldr	r3, [r3, #12]
 8001150:	60bb      	str	r3, [r7, #8]
 8001152:	68ba      	ldr	r2, [r7, #8]
 8001154:	f64f 03ff 	movw	r3, #63743	; 0xf8ff
 8001158:	4013      	ands	r3, r2
 800115a:	60bb      	str	r3, [r7, #8]
 800115c:	68fb      	ldr	r3, [r7, #12]
 800115e:	021a      	lsls	r2, r3, #8
 8001160:	68bb      	ldr	r3, [r7, #8]
 8001162:	4313      	orrs	r3, r2
 8001164:	f043 63bf 	orr.w	r3, r3, #100139008	; 0x5f80000
 8001168:	f443 3300 	orr.w	r3, r3, #131072	; 0x20000
 800116c:	60bb      	str	r3, [r7, #8]
 800116e:	4a04      	ldr	r2, [pc, #16]	; (8001180 <__NVIC_SetPriorityGrouping+0x44>)
 8001170:	68bb      	ldr	r3, [r7, #8]
 8001172:	60d3      	str	r3, [r2, #12]
 8001174:	bf00      	nop
 8001176:	3714      	adds	r7, #20
 8001178:	46bd      	mov	sp, r7
 800117a:	f85d 7b04 	ldr.w	r7, [sp], #4
 800117e:	4770      	bx	lr
 8001180:	e000ed00 	.word	0xe000ed00

08001184 <__NVIC_GetPriorityGrouping>:
 8001184:	b480      	push	{r7}
 8001186:	af00      	add	r7, sp, #0
 8001188:	4b04      	ldr	r3, [pc, #16]	; (800119c <__NVIC_GetPriorityGrouping+0x18>)
 800118a:	68db      	ldr	r3, [r3, #12]
 800118c:	0a1b      	lsrs	r3, r3, #8
 800118e:	f003 0307 	and.w	r3, r3, #7
 8001192:	4618      	mov	r0, r3
 8001194:	46bd      	mov	sp, r7
 8001196:	f85d 7b04 	ldr.w	r7, [sp], #4
 800119a:	4770      	bx	lr
 800119c:	e000ed00 	.word	0xe000ed00

080011a0 <__NVIC_EnableIRQ>:
 80011a0:	b480      	push	{r7}
 80011a2:	b083      	sub	sp, #12
 80011a4:	af00      	add	r7, sp, #0
 80011a6:	4603      	mov	r3, r0
 80011a8:	71fb      	strb	r3, [r7, #7]
 80011aa:	f997 3007 	ldrsb.w	r3, [r7, #7]
 80011ae:	2b00      	cmp	r3, #0
 80011b0:	db0b      	blt.n	80011ca <__NVIC_EnableIRQ+0x2a>
 80011b2:	79fb      	ldrb	r3, [r7, #7]
 80011b4:	f003 021f 	and.w	r2, r3, #31
 80011b8:	4907      	ldr	r1, [pc, #28]	; (80011d8 <__NVIC_EnableIRQ+0x38>)
 80011ba:	f997 3007 	ldrsb.w	r3, [r7, #7]
 80011be:	095b      	lsrs	r3, r3, #5
 80011c0:	2001      	movs	r0, #1
 80011c2:	fa00 f202 	lsl.w	r2, r0, r2
 80011c6:	f841 2023 	str.w	r2, [r1, r3, lsl #2]
 80011ca:	bf00      	nop
 80011cc:	370c      	adds	r7, #12
 80011ce:	46bd      	mov	sp, r7
 80011d0:	f85d 7b04 	ldr.w	r7, [sp], #4
 80011d4:	4770      	bx	lr
 80011d6:	bf00      	nop
 80011d8:	e000e100 	.word	0xe000e100

080011dc <__NVIC_SetPriority>:
 80011dc:	b480      	push	{r7}
 80011de:	b083      	sub	sp, #12
 80011e0:	af00      	add	r7, sp, #0
 80011e2:	4603      	mov	r3, r0
 80011e4:	6039      	str	r1, [r7, #0]
 80011e6:	71fb      	strb	r3, [r7, #7]
 80011e8:	f997 3007 	ldrsb.w	r3, [r7, #7]
 80011ec:	2b00      	cmp	r3, #0
 80011ee:	db0a      	blt.n	8001206 <__NVIC_SetPriority+0x2a>
 80011f0:	683b      	ldr	r3, [r7, #0]
 80011f2:	b2da      	uxtb	r2, r3
 80011f4:	490c      	ldr	r1, [pc, #48]	; (8001228 <__NVIC_SetPriority+0x4c>)
 80011f6:	f997 3007 	ldrsb.w	r3, [r7, #7]
 80011fa:	0112      	lsls	r2, r2, #4
 80011fc:	b2d2      	uxtb	r2, r2
 80011fe:	440b      	add	r3, r1
 8001200:	f883 2300 	strb.w	r2, [r3, #768]	; 0x300
 8001204:	e00a      	b.n	800121c <__NVIC_SetPriority+0x40>
 8001206:	683b      	ldr	r3, [r7, #0]
 8001208:	b2da      	uxtb	r2, r3
 800120a:	4908      	ldr	r1, [pc, #32]	; (800122c <__NVIC_SetPriority+0x50>)
 800120c:	79fb      	ldrb	r3, [r7, #7]
 800120e:	f003 030f 	and.w	r3, r3, #15
 8001212:	3b04      	subs	r3, #4
 8001214:	0112      	lsls	r2, r2, #4
 8001216:	b2d2      	uxtb	r2, r2
 8001218:	440b      	add	r3, r1
 800121a:	761a      	strb	r2, [r3, #24]
 800121c:	bf00      	nop
 800121e:	370c      	adds	r7, #12
 8001220:	46bd      	mov	sp, r7
 8001222:	f85d 7b04 	ldr.w	r7, [sp], #4
 8001226:	4770      	bx	lr
 8001228:	e000e100 	.word	0xe000e100
 800122c:	e000ed00 	.word	0xe000ed00

08001230 <NVIC_EncodePriority>:
 8001230:	b480      	push	{r7}
 8001232:	b089      	sub	sp, #36	; 0x24
 8001234:	af00      	add	r7, sp, #0
 8001236:	60f8      	str	r0, [r7, #12]
 8001238:	60b9      	str	r1, [r7, #8]
 800123a:	607a      	str	r2, [r7, #4]
 800123c:	68fb      	ldr	r3, [r7, #12]
 800123e:	f003 0307 	and.w	r3, r3, #7
 8001242:	61fb      	str	r3, [r7, #28]
 8001244:	69fb      	ldr	r3, [r7, #28]
 8001246:	f1c3 0307 	rsb	r3, r3, #7
 800124a:	2b04      	cmp	r3, #4
 800124c:	bf28      	it	cs
 800124e:	2304      	movcs	r3, #4
 8001250:	61bb      	str	r3, [r7, #24]
 8001252:	69fb      	ldr	r3, [r7, #28]
 8001254:	3304      	adds	r3, #4
 8001256:	2b06      	cmp	r3, #6
 8001258:	d902      	bls.n	8001260 <NVIC_EncodePriority+0x30>
 800125a:	69fb      	ldr	r3, [r7, #28]
 800125c:	3b03      	subs	r3, #3
 800125e:	e000      	b.n	8001262 <NVIC_EncodePriority+0x32>
 8001260:	2300      	movs	r3, #0
 8001262:	617b      	str	r3, [r7, #20]
 8001264:	f04f 32ff 	mov.w	r2, #4294967295
 8001268:	69bb      	ldr	r3, [r7, #24]
 800126a:	fa02 f303 	lsl.w	r3, r2, r3
 800126e:	43da      	mvns	r2, r3
 8001270:	68bb      	ldr	r3, [r7, #8]
 8001272:	401a      	ands	r2, r3
 8001274:	697b      	ldr	r3, [r7, #20]
 8001276:	409a      	lsls	r2, r3
 8001278:	f04f 31ff 	mov.w	r1, #4294967295
 800127c:	697b      	ldr	r3, [r7, #20]
 800127e:	fa01 f303 	lsl.w	r3, r1, r3
 8001282:	43d9      	mvns	r1, r3
 8001284:	687b      	ldr	r3, [r7, #4]
 8001286:	400b      	ands	r3, r1
 8001288:	4313      	orrs	r3, r2
 800128a:	4618      	mov	r0, r3
 800128c:	3724      	adds	r7, #36	; 0x24
 800128e:	46bd      	mov	sp, r7
 8001290:	f85d 7b04 	ldr.w	r7, [sp], #4
 8001294:	4770      	bx	lr

08001296 <HAL_NVIC_SetPriorityGrouping>:
 8001296:	b580      	push	{r7, lr}
 8001298:	b082      	sub	sp, #8
 800129a:	af00      	add	r7, sp, #0
 800129c:	6078      	str	r0, [r7, #4]
 800129e:	6878      	ldr	r0, [r7, #4]
 80012a0:	f7ff ff4c 	bl	800113c <__NVIC_SetPriorityGrouping>
 80012a4:	bf00      	nop
 80012a6:	3708      	adds	r7, #8
 80012a8:	46bd      	mov	sp, r7
 80012aa:	bd80      	pop	{r7, pc}

080012ac <HAL_NVIC_SetPriority>:
 80012ac:	b580      	push	{r7, lr}
 80012ae:	b086      	sub	sp, #24
 80012b0:	af00      	add	r7, sp, #0
 80012b2:	4603      	mov	r3, r0
 80012b4:	60b9      	str	r1, [r7, #8]
 80012b6:	607a      	str	r2, [r7, #4]
 80012b8:	73fb      	strb	r3, [r7, #15]
 80012ba:	2300      	movs	r3, #0
 80012bc:	617b      	str	r3, [r7, #20]
 80012be:	f7ff ff61 	bl	8001184 <__NVIC_GetPriorityGrouping>
 80012c2:	6178      	str	r0, [r7, #20]
 80012c4:	687a      	ldr	r2, [r7, #4]
 80012c6:	68b9      	ldr	r1, [r7, #8]
 80012c8:	6978      	ldr	r0, [r7, #20]
 80012ca:	f7ff ffb1 	bl	8001230 <NVIC_EncodePriority>
 80012ce:	4602      	mov	r2, r0
 80012d0:	f997 300f 	ldrsb.w	r3, [r7, #15]
 80012d4:	4611      	mov	r1, r2
 80012d6:	4618      	mov	r0, r3
 80012d8:	f7ff ff80 	bl	80011dc <__NVIC_SetPriority>
 80012dc:	bf00      	nop
 80012de:	3718      	adds	r7, #24
 80012e0:	46bd      	mov	sp, r7
 80012e2:	bd80      	pop	{r7, pc}

080012e4 <HAL_NVIC_EnableIRQ>:
 80012e4:	b580      	push	{r7, lr}
 80012e6:	b082      	sub	sp, #8
 80012e8:	af00      	add	r7, sp, #0
 80012ea:	4603      	mov	r3, r0
 80012ec:	71fb      	strb	r3, [r7, #7]
 80012ee:	f997 3007 	ldrsb.w	r3, [r7, #7]
 80012f2:	4618      	mov	r0, r3
 80012f4:	f7ff ff54 	bl	80011a0 <__NVIC_EnableIRQ>
 80012f8:	bf00      	nop
 80012fa:	3708      	adds	r7, #8
 80012fc:	46bd      	mov	sp, r7
 80012fe:	bd80      	pop	{r7, pc}

08001300 <HAL_GPIO_Init>:
 8001300:	b480      	push	{r7}
 8001302:	b089      	sub	sp, #36	; 0x24
 8001304:	af00      	add	r7, sp, #0
 8001306:	6078      	str	r0, [r7, #4]
 8001308:	6039      	str	r1, [r7, #0]
 800130a:	2300      	movs	r3, #0
 800130c:	617b      	str	r3, [r7, #20]
 800130e:	2300      	movs	r3, #0
 8001310:	613b      	str	r3, [r7, #16]
 8001312:	2300      	movs	r3, #0
 8001314:	61bb      	str	r3, [r7, #24]
 8001316:	2300      	movs	r3, #0
 8001318:	61fb      	str	r3, [r7, #28]
 800131a:	e159      	b.n	80015d0 <HAL_GPIO_Init+0x2d0>
 800131c:	2201      	movs	r2, #1
 800131e:	69fb      	ldr	r3, [r7, #28]
 8001320:	fa02 f303 	lsl.w	r3, r2, r3
 8001324:	617b      	str	r3, [r7, #20]
 8001326:	683b      	ldr	r3, [r7, #0]
 8001328:	681b      	ldr	r3, [r3, #0]
 800132a:	697a      	ldr	r2, [r7, #20]
 800132c:	4013      	ands	r3, r2
 800132e:	613b      	str	r3, [r7, #16]
 8001330:	693a      	ldr	r2, [r7, #16]
 8001332:	697b      	ldr	r3, [r7, #20]
 8001334:	429a      	cmp	r2, r3
 8001336:	f040 8148 	bne.w	80015ca <HAL_GPIO_Init+0x2ca>
 800133a:	683b      	ldr	r3, [r7, #0]
 800133c:	685b      	ldr	r3, [r3, #4]
 800133e:	f003 0303 	and.w	r3, r3, #3
 8001342:	2b01      	cmp	r3, #1
 8001344:	d005      	beq.n	8001352 <HAL_GPIO_Init+0x52>
 8001346:	683b      	ldr	r3, [r7, #0]
 8001348:	685b      	ldr	r3, [r3, #4]
 800134a:	f003 0303 	and.w	r3, r3, #3
 800134e:	2b02      	cmp	r3, #2
 8001350:	d130      	bne.n	80013b4 <HAL_GPIO_Init+0xb4>
 8001352:	687b      	ldr	r3, [r7, #4]
 8001354:	689b      	ldr	r3, [r3, #8]
 8001356:	61bb      	str	r3, [r7, #24]
 8001358:	69fb      	ldr	r3, [r7, #28]
 800135a:	005b      	lsls	r3, r3, #1
 800135c:	2203      	movs	r2, #3
 800135e:	fa02 f303 	lsl.w	r3, r2, r3
 8001362:	43db      	mvns	r3, r3
 8001364:	69ba      	ldr	r2, [r7, #24]
 8001366:	4013      	ands	r3, r2
 8001368:	61bb      	str	r3, [r7, #24]
 800136a:	683b      	ldr	r3, [r7, #0]
 800136c:	68da      	ldr	r2, [r3, #12]
 800136e:	69fb      	ldr	r3, [r7, #28]
 8001370:	005b      	lsls	r3, r3, #1
 8001372:	fa02 f303 	lsl.w	r3, r2, r3
 8001376:	69ba      	ldr	r2, [r7, #24]
 8001378:	4313      	orrs	r3, r2
 800137a:	61bb      	str	r3, [r7, #24]
 800137c:	687b      	ldr	r3, [r7, #4]
 800137e:	69ba      	ldr	r2, [r7, #24]
 8001380:	609a      	str	r2, [r3, #8]
 8001382:	687b      	ldr	r3, [r7, #4]
 8001384:	685b      	ldr	r3, [r3, #4]
 8001386:	61bb      	str	r3, [r7, #24]
 8001388:	2201      	movs	r2, #1
 800138a:	69fb      	ldr	r3, [r7, #28]
 800138c:	fa02 f303 	lsl.w	r3, r2, r3
 8001390:	43db      	mvns	r3, r3
 8001392:	69ba      	ldr	r2, [r7, #24]
 8001394:	4013      	ands	r3, r2
 8001396:	61bb      	str	r3, [r7, #24]
 8001398:	683b      	ldr	r3, [r7, #0]
 800139a:	685b      	ldr	r3, [r3, #4]
 800139c:	091b      	lsrs	r3, r3, #4
 800139e:	f003 0201 	and.w	r2, r3, #1
 80013a2:	69fb      	ldr	r3, [r7, #28]
 80013a4:	fa02 f303 	lsl.w	r3, r2, r3
 80013a8:	69ba      	ldr	r2, [r7, #24]
 80013aa:	4313      	orrs	r3, r2
 80013ac:	61bb      	str	r3, [r7, #24]
 80013ae:	687b      	ldr	r3, [r7, #4]
 80013b0:	69ba      	ldr	r2, [r7, #24]
 80013b2:	605a      	str	r2, [r3, #4]
 80013b4:	683b      	ldr	r3, [r7, #0]
 80013b6:	685b      	ldr	r3, [r3, #4]
 80013b8:	f003 0303 	and.w	r3, r3, #3
 80013bc:	2b03      	cmp	r3, #3
 80013be:	d017      	beq.n	80013f0 <HAL_GPIO_Init+0xf0>
 80013c0:	687b      	ldr	r3, [r7, #4]
 80013c2:	68db      	ldr	r3, [r3, #12]
 80013c4:	61bb      	str	r3, [r7, #24]
 80013c6:	69fb      	ldr	r3, [r7, #28]
 80013c8:	005b      	lsls	r3, r3, #1
 80013ca:	2203      	movs	r2, #3
 80013cc:	fa02 f303 	lsl.w	r3, r2, r3
 80013d0:	43db      	mvns	r3, r3
 80013d2:	69ba      	ldr	r2, [r7, #24]
 80013d4:	4013      	ands	r3, r2
 80013d6:	61bb      	str	r3, [r7, #24]
 80013d8:	683b      	ldr	r3, [r7, #0]
 80013da:	689a      	ldr	r2, [r3, #8]
 80013dc:	69fb      	ldr	r3, [r7, #28]
 80013de:	005b      	lsls	r3, r3, #1
 80013e0:	fa02 f303 	lsl.w	r3, r2, r3
 80013e4:	69ba      	ldr	r2, [r7, #24]
 80013e6:	4313      	orrs	r3, r2
 80013e8:	61bb      	str	r3, [r7, #24]
 80013ea:	687b      	ldr	r3, [r7, #4]
 80013ec:	69ba      	ldr	r2, [r7, #24]
 80013ee:	60da      	str	r2, [r3, #12]
 80013f0:	683b      	ldr	r3, [r7, #0]
 80013f2:	685b      	ldr	r3, [r3, #4]
 80013f4:	f003 0303 	and.w	r3, r3, #3
 80013f8:	2b02      	cmp	r3, #2
 80013fa:	d123      	bne.n	8001444 <HAL_GPIO_Init+0x144>
 80013fc:	69fb      	ldr	r3, [r7, #28]
 80013fe:	08da      	lsrs	r2, r3, #3
 8001400:	687b      	ldr	r3, [r7, #4]
 8001402:	3208      	adds	r2, #8
 8001404:	f853 3022 	ldr.w	r3, [r3, r2, lsl #2]
 8001408:	61bb      	str	r3, [r7, #24]
 800140a:	69fb      	ldr	r3, [r7, #28]
 800140c:	f003 0307 	and.w	r3, r3, #7
 8001410:	009b      	lsls	r3, r3, #2
 8001412:	220f      	movs	r2, #15
 8001414:	fa02 f303 	lsl.w	r3, r2, r3
 8001418:	43db      	mvns	r3, r3
 800141a:	69ba      	ldr	r2, [r7, #24]
 800141c:	4013      	ands	r3, r2
 800141e:	61bb      	str	r3, [r7, #24]
 8001420:	683b      	ldr	r3, [r7, #0]
 8001422:	691a      	ldr	r2, [r3, #16]
 8001424:	69fb      	ldr	r3, [r7, #28]
 8001426:	f003 0307 	and.w	r3, r3, #7
 800142a:	009b      	lsls	r3, r3, #2
 800142c:	fa02 f303 	lsl.w	r3, r2, r3
 8001430:	69ba      	ldr	r2, [r7, #24]
 8001432:	4313      	orrs	r3, r2
 8001434:	61bb      	str	r3, [r7, #24]
 8001436:	69fb      	ldr	r3, [r7, #28]
 8001438:	08da      	lsrs	r2, r3, #3
 800143a:	687b      	ldr	r3, [r7, #4]
 800143c:	3208      	adds	r2, #8
 800143e:	69b9      	ldr	r1, [r7, #24]
 8001440:	f843 1022 	str.w	r1, [r3, r2, lsl #2]
 8001444:	687b      	ldr	r3, [r7, #4]
 8001446:	681b      	ldr	r3, [r3, #0]
 8001448:	61bb      	str	r3, [r7, #24]
 800144a:	69fb      	ldr	r3, [r7, #28]
 800144c:	005b      	lsls	r3, r3, #1
 800144e:	2203      	movs	r2, #3
 8001450:	fa02 f303 	lsl.w	r3, r2, r3
 8001454:	43db      	mvns	r3, r3
 8001456:	69ba      	ldr	r2, [r7, #24]
 8001458:	4013      	ands	r3, r2
 800145a:	61bb      	str	r3, [r7, #24]
 800145c:	683b      	ldr	r3, [r7, #0]
 800145e:	685b      	ldr	r3, [r3, #4]
 8001460:	f003 0203 	and.w	r2, r3, #3
 8001464:	69fb      	ldr	r3, [r7, #28]
 8001466:	005b      	lsls	r3, r3, #1
 8001468:	fa02 f303 	lsl.w	r3, r2, r3
 800146c:	69ba      	ldr	r2, [r7, #24]
 800146e:	4313      	orrs	r3, r2
 8001470:	61bb      	str	r3, [r7, #24]
 8001472:	687b      	ldr	r3, [r7, #4]
 8001474:	69ba      	ldr	r2, [r7, #24]
 8001476:	601a      	str	r2, [r3, #0]
 8001478:	683b      	ldr	r3, [r7, #0]
 800147a:	685b      	ldr	r3, [r3, #4]
 800147c:	f403 3340 	and.w	r3, r3, #196608	; 0x30000
 8001480:	2b00      	cmp	r3, #0
 8001482:	f000 80a2 	beq.w	80015ca <HAL_GPIO_Init+0x2ca>
 8001486:	2300      	movs	r3, #0
 8001488:	60fb      	str	r3, [r7, #12]
 800148a:	4b57      	ldr	r3, [pc, #348]	; (80015e8 <HAL_GPIO_Init+0x2e8>)
 800148c:	6c5b      	ldr	r3, [r3, #68]	; 0x44
 800148e:	4a56      	ldr	r2, [pc, #344]	; (80015e8 <HAL_GPIO_Init+0x2e8>)
 8001490:	f443 4380 	orr.w	r3, r3, #16384	; 0x4000
 8001494:	6453      	str	r3, [r2, #68]	; 0x44
 8001496:	4b54      	ldr	r3, [pc, #336]	; (80015e8 <HAL_GPIO_Init+0x2e8>)
 8001498:	6c5b      	ldr	r3, [r3, #68]	; 0x44
 800149a:	f403 4380 	and.w	r3, r3, #16384	; 0x4000
 800149e:	60fb      	str	r3, [r7, #12]
 80014a0:	68fb      	ldr	r3, [r7, #12]
 80014a2:	4a52      	ldr	r2, [pc, #328]	; (80015ec <HAL_GPIO_Init+0x2ec>)
 80014a4:	69fb      	ldr	r3, [r7, #28]
 80014a6:	089b      	lsrs	r3, r3, #2
 80014a8:	3302      	adds	r3, #2
 80014aa:	f852 3023 	ldr.w	r3, [r2, r3, lsl #2]
 80014ae:	61bb      	str	r3, [r7, #24]
 80014b0:	69fb      	ldr	r3, [r7, #28]
 80014b2:	f003 0303 	and.w	r3, r3, #3
 80014b6:	009b      	lsls	r3, r3, #2
 80014b8:	220f      	movs	r2, #15
 80014ba:	fa02 f303 	lsl.w	r3, r2, r3
 80014be:	43db      	mvns	r3, r3
 80014c0:	69ba      	ldr	r2, [r7, #24]
 80014c2:	4013      	ands	r3, r2
 80014c4:	61bb      	str	r3, [r7, #24]
 80014c6:	687b      	ldr	r3, [r7, #4]
 80014c8:	4a49      	ldr	r2, [pc, #292]	; (80015f0 <HAL_GPIO_Init+0x2f0>)
 80014ca:	4293      	cmp	r3, r2
 80014cc:	d019      	beq.n	8001502 <HAL_GPIO_Init+0x202>
 80014ce:	687b      	ldr	r3, [r7, #4]
 80014d0:	4a48      	ldr	r2, [pc, #288]	; (80015f4 <HAL_GPIO_Init+0x2f4>)
 80014d2:	4293      	cmp	r3, r2
 80014d4:	d013      	beq.n	80014fe <HAL_GPIO_Init+0x1fe>
 80014d6:	687b      	ldr	r3, [r7, #4]
 80014d8:	4a47      	ldr	r2, [pc, #284]	; (80015f8 <HAL_GPIO_Init+0x2f8>)
 80014da:	4293      	cmp	r3, r2
 80014dc:	d00d      	beq.n	80014fa <HAL_GPIO_Init+0x1fa>
 80014de:	687b      	ldr	r3, [r7, #4]
 80014e0:	4a46      	ldr	r2, [pc, #280]	; (80015fc <HAL_GPIO_Init+0x2fc>)
 80014e2:	4293      	cmp	r3, r2
 80014e4:	d007      	beq.n	80014f6 <HAL_GPIO_Init+0x1f6>
 80014e6:	687b      	ldr	r3, [r7, #4]
 80014e8:	4a45      	ldr	r2, [pc, #276]	; (8001600 <HAL_GPIO_Init+0x300>)
 80014ea:	4293      	cmp	r3, r2
 80014ec:	d101      	bne.n	80014f2 <HAL_GPIO_Init+0x1f2>
 80014ee:	2304      	movs	r3, #4
 80014f0:	e008      	b.n	8001504 <HAL_GPIO_Init+0x204>
 80014f2:	2307      	movs	r3, #7
 80014f4:	e006      	b.n	8001504 <HAL_GPIO_Init+0x204>
 80014f6:	2303      	movs	r3, #3
 80014f8:	e004      	b.n	8001504 <HAL_GPIO_Init+0x204>
 80014fa:	2302      	movs	r3, #2
 80014fc:	e002      	b.n	8001504 <HAL_GPIO_Init+0x204>
 80014fe:	2301      	movs	r3, #1
 8001500:	e000      	b.n	8001504 <HAL_GPIO_Init+0x204>
 8001502:	2300      	movs	r3, #0
 8001504:	69fa      	ldr	r2, [r7, #28]
 8001506:	f002 0203 	and.w	r2, r2, #3
 800150a:	0092      	lsls	r2, r2, #2
 800150c:	4093      	lsls	r3, r2
 800150e:	69ba      	ldr	r2, [r7, #24]
 8001510:	4313      	orrs	r3, r2
 8001512:	61bb      	str	r3, [r7, #24]
 8001514:	4935      	ldr	r1, [pc, #212]	; (80015ec <HAL_GPIO_Init+0x2ec>)
 8001516:	69fb      	ldr	r3, [r7, #28]
 8001518:	089b      	lsrs	r3, r3, #2
 800151a:	3302      	adds	r3, #2
 800151c:	69ba      	ldr	r2, [r7, #24]
 800151e:	f841 2023 	str.w	r2, [r1, r3, lsl #2]
 8001522:	4b38      	ldr	r3, [pc, #224]	; (8001604 <HAL_GPIO_Init+0x304>)
 8001524:	689b      	ldr	r3, [r3, #8]
 8001526:	61bb      	str	r3, [r7, #24]
 8001528:	693b      	ldr	r3, [r7, #16]
 800152a:	43db      	mvns	r3, r3
 800152c:	69ba      	ldr	r2, [r7, #24]
 800152e:	4013      	ands	r3, r2
 8001530:	61bb      	str	r3, [r7, #24]
 8001532:	683b      	ldr	r3, [r7, #0]
 8001534:	685b      	ldr	r3, [r3, #4]
 8001536:	f403 1380 	and.w	r3, r3, #1048576	; 0x100000
 800153a:	2b00      	cmp	r3, #0
 800153c:	d003      	beq.n	8001546 <HAL_GPIO_Init+0x246>
 800153e:	69ba      	ldr	r2, [r7, #24]
 8001540:	693b      	ldr	r3, [r7, #16]
 8001542:	4313      	orrs	r3, r2
 8001544:	61bb      	str	r3, [r7, #24]
 8001546:	4a2f      	ldr	r2, [pc, #188]	; (8001604 <HAL_GPIO_Init+0x304>)
 8001548:	69bb      	ldr	r3, [r7, #24]
 800154a:	6093      	str	r3, [r2, #8]
 800154c:	4b2d      	ldr	r3, [pc, #180]	; (8001604 <HAL_GPIO_Init+0x304>)
 800154e:	68db      	ldr	r3, [r3, #12]
 8001550:	61bb      	str	r3, [r7, #24]
 8001552:	693b      	ldr	r3, [r7, #16]
 8001554:	43db      	mvns	r3, r3
 8001556:	69ba      	ldr	r2, [r7, #24]
 8001558:	4013      	ands	r3, r2
 800155a:	61bb      	str	r3, [r7, #24]
 800155c:	683b      	ldr	r3, [r7, #0]
 800155e:	685b      	ldr	r3, [r3, #4]
 8001560:	f403 1300 	and.w	r3, r3, #2097152	; 0x200000
 8001564:	2b00      	cmp	r3, #0
 8001566:	d003      	beq.n	8001570 <HAL_GPIO_Init+0x270>
 8001568:	69ba      	ldr	r2, [r7, #24]
 800156a:	693b      	ldr	r3, [r7, #16]
 800156c:	4313      	orrs	r3, r2
 800156e:	61bb      	str	r3, [r7, #24]
 8001570:	4a24      	ldr	r2, [pc, #144]	; (8001604 <HAL_GPIO_Init+0x304>)
 8001572:	69bb      	ldr	r3, [r7, #24]
 8001574:	60d3      	str	r3, [r2, #12]
 8001576:	4b23      	ldr	r3, [pc, #140]	; (8001604 <HAL_GPIO_Init+0x304>)
 8001578:	685b      	ldr	r3, [r3, #4]
 800157a:	61bb      	str	r3, [r7, #24]
 800157c:	693b      	ldr	r3, [r7, #16]
 800157e:	43db      	mvns	r3, r3
 8001580:	69ba      	ldr	r2, [r7, #24]
 8001582:	4013      	ands	r3, r2
 8001584:	61bb      	str	r3, [r7, #24]
 8001586:	683b      	ldr	r3, [r7, #0]
 8001588:	685b      	ldr	r3, [r3, #4]
 800158a:	f403 3300 	and.w	r3, r3, #131072	; 0x20000
 800158e:	2b00      	cmp	r3, #0
 8001590:	d003      	beq.n	800159a <HAL_GPIO_Init+0x29a>
 8001592:	69ba      	ldr	r2, [r7, #24]
 8001594:	693b      	ldr	r3, [r7, #16]
 8001596:	4313      	orrs	r3, r2
 8001598:	61bb      	str	r3, [r7, #24]
 800159a:	4a1a      	ldr	r2, [pc, #104]	; (8001604 <HAL_GPIO_Init+0x304>)
 800159c:	69bb      	ldr	r3, [r7, #24]
 800159e:	6053      	str	r3, [r2, #4]
 80015a0:	4b18      	ldr	r3, [pc, #96]	; (8001604 <HAL_GPIO_Init+0x304>)
 80015a2:	681b      	ldr	r3, [r3, #0]
 80015a4:	61bb      	str	r3, [r7, #24]
 80015a6:	693b      	ldr	r3, [r7, #16]
 80015a8:	43db      	mvns	r3, r3
 80015aa:	69ba      	ldr	r2, [r7, #24]
 80015ac:	4013      	ands	r3, r2
 80015ae:	61bb      	str	r3, [r7, #24]
 80015b0:	683b      	ldr	r3, [r7, #0]
 80015b2:	685b      	ldr	r3, [r3, #4]
 80015b4:	f403 3380 	and.w	r3, r3, #65536	; 0x10000
 80015b8:	2b00      	cmp	r3, #0
 80015ba:	d003      	beq.n	80015c4 <HAL_GPIO_Init+0x2c4>
 80015bc:	69ba      	ldr	r2, [r7, #24]
 80015be:	693b      	ldr	r3, [r7, #16]
 80015c0:	4313      	orrs	r3, r2
 80015c2:	61bb      	str	r3, [r7, #24]
 80015c4:	4a0f      	ldr	r2, [pc, #60]	; (8001604 <HAL_GPIO_Init+0x304>)
 80015c6:	69bb      	ldr	r3, [r7, #24]
 80015c8:	6013      	str	r3, [r2, #0]
 80015ca:	69fb      	ldr	r3, [r7, #28]
 80015cc:	3301      	adds	r3, #1
 80015ce:	61fb      	str	r3, [r7, #28]
 80015d0:	69fb      	ldr	r3, [r7, #28]
 80015d2:	2b0f      	cmp	r3, #15
 80015d4:	f67f aea2 	bls.w	800131c <HAL_GPIO_Init+0x1c>
 80015d8:	bf00      	nop
 80015da:	bf00      	nop
 80015dc:	3724      	adds	r7, #36	; 0x24
 80015de:	46bd      	mov	sp, r7
 80015e0:	f85d 7b04 	ldr.w	r7, [sp], #4
 80015e4:	4770      	bx	lr
 80015e6:	bf00      	nop
 80015e8:	40023800 	.word	0x40023800
 80015ec:	40013800 	.word	0x40013800
 80015f0:	40020000 	.word	0x40020000
 80015f4:	40020400 	.word	0x40020400
 80015f8:	40020800 	.word	0x40020800
 80015fc:	40020c00 	.word	0x40020c00
 8001600:	40021000 	.word	0x40021000
 8001604:	40013c00 	.word	0x40013c00

08001608 <HAL_GPIO_ReadPin>:
 8001608:	b480      	push	{r7}
 800160a:	b085      	sub	sp, #20
 800160c:	af00      	add	r7, sp, #0
 800160e:	6078      	str	r0, [r7, #4]
 8001610:	460b      	mov	r3, r1
 8001612:	807b      	strh	r3, [r7, #2]
 8001614:	687b      	ldr	r3, [r7, #4]
 8001616:	691a      	ldr	r2, [r3, #16]
 8001618:	887b      	ldrh	r3, [r7, #2]
 800161a:	4013      	ands	r3, r2
 800161c:	2b00      	cmp	r3, #0
 800161e:	d002      	beq.n	8001626 <HAL_GPIO_ReadPin+0x1e>
 8001620:	2301      	movs	r3, #1
 8001622:	73fb      	strb	r3, [r7, #15]
 8001624:	e001      	b.n	800162a <HAL_GPIO_ReadPin+0x22>
 8001626:	2300      	movs	r3, #0
 8001628:	73fb      	strb	r3, [r7, #15]
 800162a:	7bfb      	ldrb	r3, [r7, #15]
 800162c:	4618      	mov	r0, r3
 800162e:	3714      	adds	r7, #20
 8001630:	46bd      	mov	sp, r7
 8001632:	f85d 7b04 	ldr.w	r7, [sp], #4
 8001636:	4770      	bx	lr

08001638 <HAL_GPIO_WritePin>:
 8001638:	b480      	push	{r7}
 800163a:	b083      	sub	sp, #12
 800163c:	af00      	add	r7, sp, #0
 800163e:	6078      	str	r0, [r7, #4]
 8001640:	460b      	mov	r3, r1
 8001642:	807b      	strh	r3, [r7, #2]
 8001644:	4613      	mov	r3, r2
 8001646:	707b      	strb	r3, [r7, #1]
 8001648:	787b      	ldrb	r3, [r7, #1]
 800164a:	2b00      	cmp	r3, #0
 800164c:	d003      	beq.n	8001656 <HAL_GPIO_WritePin+0x1e>
 800164e:	887a      	ldrh	r2, [r7, #2]
 8001650:	687b      	ldr	r3, [r7, #4]
 8001652:	619a      	str	r2, [r3, #24]
 8001654:	e003      	b.n	800165e <HAL_GPIO_WritePin+0x26>
 8001656:	887b      	ldrh	r3, [r7, #2]
 8001658:	041a      	lsls	r2, r3, #16
 800165a:	687b      	ldr	r3, [r7, #4]
 800165c:	619a      	str	r2, [r3, #24]
 800165e:	bf00      	nop
 8001660:	370c      	adds	r7, #12
 8001662:	46bd      	mov	sp, r7
 8001664:	f85d 7b04 	ldr.w	r7, [sp], #4
 8001668:	4770      	bx	lr

0800166a <HAL_GPIO_TogglePin>:
 800166a:	b480      	push	{r7}
 800166c:	b085      	sub	sp, #20
 800166e:	af00      	add	r7, sp, #0
 8001670:	6078      	str	r0, [r7, #4]
 8001672:	460b      	mov	r3, r1
 8001674:	807b      	strh	r3, [r7, #2]
 8001676:	687b      	ldr	r3, [r7, #4]
 8001678:	695b      	ldr	r3, [r3, #20]
 800167a:	60fb      	str	r3, [r7, #12]
 800167c:	887a      	ldrh	r2, [r7, #2]
 800167e:	68fb      	ldr	r3, [r7, #12]
 8001680:	4013      	ands	r3, r2
 8001682:	041a      	lsls	r2, r3, #16
 8001684:	68fb      	ldr	r3, [r7, #12]
 8001686:	43d9      	mvns	r1, r3
 8001688:	887b      	ldrh	r3, [r7, #2]
 800168a:	400b      	ands	r3, r1
 800168c:	431a      	orrs	r2, r3
 800168e:	687b      	ldr	r3, [r7, #4]
 8001690:	619a      	str	r2, [r3, #24]
 8001692:	bf00      	nop
 8001694:	3714      	adds	r7, #20
 8001696:	46bd      	mov	sp, r7
 8001698:	f85d 7b04 	ldr.w	r7, [sp], #4
 800169c:	4770      	bx	lr
	...

080016a0 <HAL_GPIO_EXTI_IRQHandler>:
 80016a0:	b580      	push	{r7, lr}
 80016a2:	b082      	sub	sp, #8
 80016a4:	af00      	add	r7, sp, #0
 80016a6:	4603      	mov	r3, r0
 80016a8:	80fb      	strh	r3, [r7, #6]
 80016aa:	4b08      	ldr	r3, [pc, #32]	; (80016cc <HAL_GPIO_EXTI_IRQHandler+0x2c>)
 80016ac:	695a      	ldr	r2, [r3, #20]
 80016ae:	88fb      	ldrh	r3, [r7, #6]
 80016b0:	4013      	ands	r3, r2
 80016b2:	2b00      	cmp	r3, #0
 80016b4:	d006      	beq.n	80016c4 <HAL_GPIO_EXTI_IRQHandler+0x24>
 80016b6:	4a05      	ldr	r2, [pc, #20]	; (80016cc <HAL_GPIO_EXTI_IRQHandler+0x2c>)
 80016b8:	88fb      	ldrh	r3, [r7, #6]
 80016ba:	6153      	str	r3, [r2, #20]
 80016bc:	88fb      	ldrh	r3, [r7, #6]
 80016be:	4618      	mov	r0, r3
 80016c0:	f7ff fa88 	bl	8000bd4 <HAL_GPIO_EXTI_Callback>
 80016c4:	bf00      	nop
 80016c6:	3708      	adds	r7, #8
 80016c8:	46bd      	mov	sp, r7
 80016ca:	bd80      	pop	{r7, pc}
 80016cc:	40013c00 	.word	0x40013c00

080016d0 <HAL_RCC_OscConfig>:
 80016d0:	b580      	push	{r7, lr}
 80016d2:	b086      	sub	sp, #24
 80016d4:	af00      	add	r7, sp, #0
 80016d6:	6078      	str	r0, [r7, #4]
 80016d8:	687b      	ldr	r3, [r7, #4]
 80016da:	2b00      	cmp	r3, #0
 80016dc:	d101      	bne.n	80016e2 <HAL_RCC_OscConfig+0x12>
 80016de:	2301      	movs	r3, #1
 80016e0:	e267      	b.n	8001bb2 <HAL_RCC_OscConfig+0x4e2>
 80016e2:	687b      	ldr	r3, [r7, #4]
 80016e4:	681b      	ldr	r3, [r3, #0]
 80016e6:	f003 0301 	and.w	r3, r3, #1
 80016ea:	2b00      	cmp	r3, #0
 80016ec:	d075      	beq.n	80017da <HAL_RCC_OscConfig+0x10a>
 80016ee:	4b88      	ldr	r3, [pc, #544]	; (8001910 <HAL_RCC_OscConfig+0x240>)
 80016f0:	689b      	ldr	r3, [r3, #8]
 80016f2:	f003 030c 	and.w	r3, r3, #12
 80016f6:	2b04      	cmp	r3, #4
 80016f8:	d00c      	beq.n	8001714 <HAL_RCC_OscConfig+0x44>
 80016fa:	4b85      	ldr	r3, [pc, #532]	; (8001910 <HAL_RCC_OscConfig+0x240>)
 80016fc:	689b      	ldr	r3, [r3, #8]
 80016fe:	f003 030c 	and.w	r3, r3, #12
 8001702:	2b08      	cmp	r3, #8
 8001704:	d112      	bne.n	800172c <HAL_RCC_OscConfig+0x5c>
 8001706:	4b82      	ldr	r3, [pc, #520]	; (8001910 <HAL_RCC_OscConfig+0x240>)
 8001708:	685b      	ldr	r3, [r3, #4]
 800170a:	f403 0380 	and.w	r3, r3, #4194304	; 0x400000
 800170e:	f5b3 0f80 	cmp.w	r3, #4194304	; 0x400000
 8001712:	d10b      	bne.n	800172c <HAL_RCC_OscConfig+0x5c>
 8001714:	4b7e      	ldr	r3, [pc, #504]	; (8001910 <HAL_RCC_OscConfig+0x240>)
 8001716:	681b      	ldr	r3, [r3, #0]
 8001718:	f403 3300 	and.w	r3, r3, #131072	; 0x20000
 800171c:	2b00      	cmp	r3, #0
 800171e:	d05b      	beq.n	80017d8 <HAL_RCC_OscConfig+0x108>
 8001720:	687b      	ldr	r3, [r7, #4]
 8001722:	685b      	ldr	r3, [r3, #4]
 8001724:	2b00      	cmp	r3, #0
 8001726:	d157      	bne.n	80017d8 <HAL_RCC_OscConfig+0x108>
 8001728:	2301      	movs	r3, #1
 800172a:	e242      	b.n	8001bb2 <HAL_RCC_OscConfig+0x4e2>
 800172c:	687b      	ldr	r3, [r7, #4]
 800172e:	685b      	ldr	r3, [r3, #4]
 8001730:	f5b3 3f80 	cmp.w	r3, #65536	; 0x10000
 8001734:	d106      	bne.n	8001744 <HAL_RCC_OscConfig+0x74>
 8001736:	4b76      	ldr	r3, [pc, #472]	; (8001910 <HAL_RCC_OscConfig+0x240>)
 8001738:	681b      	ldr	r3, [r3, #0]
 800173a:	4a75      	ldr	r2, [pc, #468]	; (8001910 <HAL_RCC_OscConfig+0x240>)
 800173c:	f443 3380 	orr.w	r3, r3, #65536	; 0x10000
 8001740:	6013      	str	r3, [r2, #0]
 8001742:	e01d      	b.n	8001780 <HAL_RCC_OscConfig+0xb0>
 8001744:	687b      	ldr	r3, [r7, #4]
 8001746:	685b      	ldr	r3, [r3, #4]
 8001748:	f5b3 2fa0 	cmp.w	r3, #327680	; 0x50000
 800174c:	d10c      	bne.n	8001768 <HAL_RCC_OscConfig+0x98>
 800174e:	4b70      	ldr	r3, [pc, #448]	; (8001910 <HAL_RCC_OscConfig+0x240>)
 8001750:	681b      	ldr	r3, [r3, #0]
 8001752:	4a6f      	ldr	r2, [pc, #444]	; (8001910 <HAL_RCC_OscConfig+0x240>)
 8001754:	f443 2380 	orr.w	r3, r3, #262144	; 0x40000
 8001758:	6013      	str	r3, [r2, #0]
 800175a:	4b6d      	ldr	r3, [pc, #436]	; (8001910 <HAL_RCC_OscConfig+0x240>)
 800175c:	681b      	ldr	r3, [r3, #0]
 800175e:	4a6c      	ldr	r2, [pc, #432]	; (8001910 <HAL_RCC_OscConfig+0x240>)
 8001760:	f443 3380 	orr.w	r3, r3, #65536	; 0x10000
 8001764:	6013      	str	r3, [r2, #0]
 8001766:	e00b      	b.n	8001780 <HAL_RCC_OscConfig+0xb0>
 8001768:	4b69      	ldr	r3, [pc, #420]	; (8001910 <HAL_RCC_OscConfig+0x240>)
 800176a:	681b      	ldr	r3, [r3, #0]
 800176c:	4a68      	ldr	r2, [pc, #416]	; (8001910 <HAL_RCC_OscConfig+0x240>)
 800176e:	f423 3380 	bic.w	r3, r3, #65536	; 0x10000
 8001772:	6013      	str	r3, [r2, #0]
 8001774:	4b66      	ldr	r3, [pc, #408]	; (8001910 <HAL_RCC_OscConfig+0x240>)
 8001776:	681b      	ldr	r3, [r3, #0]
 8001778:	4a65      	ldr	r2, [pc, #404]	; (8001910 <HAL_RCC_OscConfig+0x240>)
 800177a:	f423 2380 	bic.w	r3, r3, #262144	; 0x40000
 800177e:	6013      	str	r3, [r2, #0]
 8001780:	687b      	ldr	r3, [r7, #4]
 8001782:	685b      	ldr	r3, [r3, #4]
 8001784:	2b00      	cmp	r3, #0
 8001786:	d013      	beq.n	80017b0 <HAL_RCC_OscConfig+0xe0>
 8001788:	f7ff fccc 	bl	8001124 <HAL_GetTick>
 800178c:	6138      	str	r0, [r7, #16]
 800178e:	e008      	b.n	80017a2 <HAL_RCC_OscConfig+0xd2>
 8001790:	f7ff fcc8 	bl	8001124 <HAL_GetTick>
 8001794:	4602      	mov	r2, r0
 8001796:	693b      	ldr	r3, [r7, #16]
 8001798:	1ad3      	subs	r3, r2, r3
 800179a:	2b64      	cmp	r3, #100	; 0x64
 800179c:	d901      	bls.n	80017a2 <HAL_RCC_OscConfig+0xd2>
 800179e:	2303      	movs	r3, #3
 80017a0:	e207      	b.n	8001bb2 <HAL_RCC_OscConfig+0x4e2>
 80017a2:	4b5b      	ldr	r3, [pc, #364]	; (8001910 <HAL_RCC_OscConfig+0x240>)
 80017a4:	681b      	ldr	r3, [r3, #0]
 80017a6:	f403 3300 	and.w	r3, r3, #131072	; 0x20000
 80017aa:	2b00      	cmp	r3, #0
 80017ac:	d0f0      	beq.n	8001790 <HAL_RCC_OscConfig+0xc0>
 80017ae:	e014      	b.n	80017da <HAL_RCC_OscConfig+0x10a>
 80017b0:	f7ff fcb8 	bl	8001124 <HAL_GetTick>
 80017b4:	6138      	str	r0, [r7, #16]
 80017b6:	e008      	b.n	80017ca <HAL_RCC_OscConfig+0xfa>
 80017b8:	f7ff fcb4 	bl	8001124 <HAL_GetTick>
 80017bc:	4602      	mov	r2, r0
 80017be:	693b      	ldr	r3, [r7, #16]
 80017c0:	1ad3      	subs	r3, r2, r3
 80017c2:	2b64      	cmp	r3, #100	; 0x64
 80017c4:	d901      	bls.n	80017ca <HAL_RCC_OscConfig+0xfa>
 80017c6:	2303      	movs	r3, #3
 80017c8:	e1f3      	b.n	8001bb2 <HAL_RCC_OscConfig+0x4e2>
 80017ca:	4b51      	ldr	r3, [pc, #324]	; (8001910 <HAL_RCC_OscConfig+0x240>)
 80017cc:	681b      	ldr	r3, [r3, #0]
 80017ce:	f403 3300 	and.w	r3, r3, #131072	; 0x20000
 80017d2:	2b00      	cmp	r3, #0
 80017d4:	d1f0      	bne.n	80017b8 <HAL_RCC_OscConfig+0xe8>
 80017d6:	e000      	b.n	80017da <HAL_RCC_OscConfig+0x10a>
 80017d8:	bf00      	nop
 80017da:	687b      	ldr	r3, [r7, #4]
 80017dc:	681b      	ldr	r3, [r3, #0]
 80017de:	f003 0302 	and.w	r3, r3, #2
 80017e2:	2b00      	cmp	r3, #0
 80017e4:	d063      	beq.n	80018ae <HAL_RCC_OscConfig+0x1de>
 80017e6:	4b4a      	ldr	r3, [pc, #296]	; (8001910 <HAL_RCC_OscConfig+0x240>)
 80017e8:	689b      	ldr	r3, [r3, #8]
 80017ea:	f003 030c 	and.w	r3, r3, #12
 80017ee:	2b00      	cmp	r3, #0
 80017f0:	d00b      	beq.n	800180a <HAL_RCC_OscConfig+0x13a>
 80017f2:	4b47      	ldr	r3, [pc, #284]	; (8001910 <HAL_RCC_OscConfig+0x240>)
 80017f4:	689b      	ldr	r3, [r3, #8]
 80017f6:	f003 030c 	and.w	r3, r3, #12
 80017fa:	2b08      	cmp	r3, #8
 80017fc:	d11c      	bne.n	8001838 <HAL_RCC_OscConfig+0x168>
 80017fe:	4b44      	ldr	r3, [pc, #272]	; (8001910 <HAL_RCC_OscConfig+0x240>)
 8001800:	685b      	ldr	r3, [r3, #4]
 8001802:	f403 0380 	and.w	r3, r3, #4194304	; 0x400000
 8001806:	2b00      	cmp	r3, #0
 8001808:	d116      	bne.n	8001838 <HAL_RCC_OscConfig+0x168>
 800180a:	4b41      	ldr	r3, [pc, #260]	; (8001910 <HAL_RCC_OscConfig+0x240>)
 800180c:	681b      	ldr	r3, [r3, #0]
 800180e:	f003 0302 	and.w	r3, r3, #2
 8001812:	2b00      	cmp	r3, #0
 8001814:	d005      	beq.n	8001822 <HAL_RCC_OscConfig+0x152>
 8001816:	687b      	ldr	r3, [r7, #4]
 8001818:	68db      	ldr	r3, [r3, #12]
 800181a:	2b01      	cmp	r3, #1
 800181c:	d001      	beq.n	8001822 <HAL_RCC_OscConfig+0x152>
 800181e:	2301      	movs	r3, #1
 8001820:	e1c7      	b.n	8001bb2 <HAL_RCC_OscConfig+0x4e2>
 8001822:	4b3b      	ldr	r3, [pc, #236]	; (8001910 <HAL_RCC_OscConfig+0x240>)
 8001824:	681b      	ldr	r3, [r3, #0]
 8001826:	f023 02f8 	bic.w	r2, r3, #248	; 0xf8
 800182a:	687b      	ldr	r3, [r7, #4]
 800182c:	691b      	ldr	r3, [r3, #16]
 800182e:	00db      	lsls	r3, r3, #3
 8001830:	4937      	ldr	r1, [pc, #220]	; (8001910 <HAL_RCC_OscConfig+0x240>)
 8001832:	4313      	orrs	r3, r2
 8001834:	600b      	str	r3, [r1, #0]
 8001836:	e03a      	b.n	80018ae <HAL_RCC_OscConfig+0x1de>
 8001838:	687b      	ldr	r3, [r7, #4]
 800183a:	68db      	ldr	r3, [r3, #12]
 800183c:	2b00      	cmp	r3, #0
 800183e:	d020      	beq.n	8001882 <HAL_RCC_OscConfig+0x1b2>
 8001840:	4b34      	ldr	r3, [pc, #208]	; (8001914 <HAL_RCC_OscConfig+0x244>)
 8001842:	2201      	movs	r2, #1
 8001844:	601a      	str	r2, [r3, #0]
 8001846:	f7ff fc6d 	bl	8001124 <HAL_GetTick>
 800184a:	6138      	str	r0, [r7, #16]
 800184c:	e008      	b.n	8001860 <HAL_RCC_OscConfig+0x190>
 800184e:	f7ff fc69 	bl	8001124 <HAL_GetTick>
 8001852:	4602      	mov	r2, r0
 8001854:	693b      	ldr	r3, [r7, #16]
 8001856:	1ad3      	subs	r3, r2, r3
 8001858:	2b02      	cmp	r3, #2
 800185a:	d901      	bls.n	8001860 <HAL_RCC_OscConfig+0x190>
 800185c:	2303      	movs	r3, #3
 800185e:	e1a8      	b.n	8001bb2 <HAL_RCC_OscConfig+0x4e2>
 8001860:	4b2b      	ldr	r3, [pc, #172]	; (8001910 <HAL_RCC_OscConfig+0x240>)
 8001862:	681b      	ldr	r3, [r3, #0]
 8001864:	f003 0302 	and.w	r3, r3, #2
 8001868:	2b00      	cmp	r3, #0
 800186a:	d0f0      	beq.n	800184e <HAL_RCC_OscConfig+0x17e>
 800186c:	4b28      	ldr	r3, [pc, #160]	; (8001910 <HAL_RCC_OscConfig+0x240>)
 800186e:	681b      	ldr	r3, [r3, #0]
 8001870:	f023 02f8 	bic.w	r2, r3, #248	; 0xf8
 8001874:	687b      	ldr	r3, [r7, #4]
 8001876:	691b      	ldr	r3, [r3, #16]
 8001878:	00db      	lsls	r3, r3, #3
 800187a:	4925      	ldr	r1, [pc, #148]	; (8001910 <HAL_RCC_OscConfig+0x240>)
 800187c:	4313      	orrs	r3, r2
 800187e:	600b      	str	r3, [r1, #0]
 8001880:	e015      	b.n	80018ae <HAL_RCC_OscConfig+0x1de>
 8001882:	4b24      	ldr	r3, [pc, #144]	; (8001914 <HAL_RCC_OscConfig+0x244>)
 8001884:	2200      	movs	r2, #0
 8001886:	601a      	str	r2, [r3, #0]
 8001888:	f7ff fc4c 	bl	8001124 <HAL_GetTick>
 800188c:	6138      	str	r0, [r7, #16]
 800188e:	e008      	b.n	80018a2 <HAL_RCC_OscConfig+0x1d2>
 8001890:	f7ff fc48 	bl	8001124 <HAL_GetTick>
 8001894:	4602      	mov	r2, r0
 8001896:	693b      	ldr	r3, [r7, #16]
 8001898:	1ad3      	subs	r3, r2, r3
 800189a:	2b02      	cmp	r3, #2
 800189c:	d901      	bls.n	80018a2 <HAL_RCC_OscConfig+0x1d2>
 800189e:	2303      	movs	r3, #3
 80018a0:	e187      	b.n	8001bb2 <HAL_RCC_OscConfig+0x4e2>
 80018a2:	4b1b      	ldr	r3, [pc, #108]	; (8001910 <HAL_RCC_OscConfig+0x240>)
 80018a4:	681b      	ldr	r3, [r3, #0]
 80018a6:	f003 0302 	and.w	r3, r3, #2
 80018aa:	2b00      	cmp	r3, #0
 80018ac:	d1f0      	bne.n	8001890 <HAL_RCC_OscConfig+0x1c0>
 80018ae:	687b      	ldr	r3, [r7, #4]
 80018b0:	681b      	ldr	r3, [r3, #0]
 80018b2:	f003 0308 	and.w	r3, r3, #8
 80018b6:	2b00      	cmp	r3, #0
 80018b8:	d036      	beq.n	8001928 <HAL_RCC_OscConfig+0x258>
 80018ba:	687b      	ldr	r3, [r7, #4]
 80018bc:	695b      	ldr	r3, [r3, #20]
 80018be:	2b00      	cmp	r3, #0
 80018c0:	d016      	beq.n	80018f0 <HAL_RCC_OscConfig+0x220>
 80018c2:	4b15      	ldr	r3, [pc, #84]	; (8001918 <HAL_RCC_OscConfig+0x248>)
 80018c4:	2201      	movs	r2, #1
 80018c6:	601a      	str	r2, [r3, #0]
 80018c8:	f7ff fc2c 	bl	8001124 <HAL_GetTick>
 80018cc:	6138      	str	r0, [r7, #16]
 80018ce:	e008      	b.n	80018e2 <HAL_RCC_OscConfig+0x212>
 80018d0:	f7ff fc28 	bl	8001124 <HAL_GetTick>
 80018d4:	4602      	mov	r2, r0
 80018d6:	693b      	ldr	r3, [r7, #16]
 80018d8:	1ad3      	subs	r3, r2, r3
 80018da:	2b02      	cmp	r3, #2
 80018dc:	d901      	bls.n	80018e2 <HAL_RCC_OscConfig+0x212>
 80018de:	2303      	movs	r3, #3
 80018e0:	e167      	b.n	8001bb2 <HAL_RCC_OscConfig+0x4e2>
 80018e2:	4b0b      	ldr	r3, [pc, #44]	; (8001910 <HAL_RCC_OscConfig+0x240>)
 80018e4:	6f5b      	ldr	r3, [r3, #116]	; 0x74
 80018e6:	f003 0302 	and.w	r3, r3, #2
 80018ea:	2b00      	cmp	r3, #0
 80018ec:	d0f0      	beq.n	80018d0 <HAL_RCC_OscConfig+0x200>
 80018ee:	e01b      	b.n	8001928 <HAL_RCC_OscConfig+0x258>
 80018f0:	4b09      	ldr	r3, [pc, #36]	; (8001918 <HAL_RCC_OscConfig+0x248>)
 80018f2:	2200      	movs	r2, #0
 80018f4:	601a      	str	r2, [r3, #0]
 80018f6:	f7ff fc15 	bl	8001124 <HAL_GetTick>
 80018fa:	6138      	str	r0, [r7, #16]
 80018fc:	e00e      	b.n	800191c <HAL_RCC_OscConfig+0x24c>
 80018fe:	f7ff fc11 	bl	8001124 <HAL_GetTick>
 8001902:	4602      	mov	r2, r0
 8001904:	693b      	ldr	r3, [r7, #16]
 8001906:	1ad3      	subs	r3, r2, r3
 8001908:	2b02      	cmp	r3, #2
 800190a:	d907      	bls.n	800191c <HAL_RCC_OscConfig+0x24c>
 800190c:	2303      	movs	r3, #3
 800190e:	e150      	b.n	8001bb2 <HAL_RCC_OscConfig+0x4e2>
 8001910:	40023800 	.word	0x40023800
 8001914:	42470000 	.word	0x42470000
 8001918:	42470e80 	.word	0x42470e80
 800191c:	4b88      	ldr	r3, [pc, #544]	; (8001b40 <HAL_RCC_OscConfig+0x470>)
 800191e:	6f5b      	ldr	r3, [r3, #116]	; 0x74
 8001920:	f003 0302 	and.w	r3, r3, #2
 8001924:	2b00      	cmp	r3, #0
 8001926:	d1ea      	bne.n	80018fe <HAL_RCC_OscConfig+0x22e>
 8001928:	687b      	ldr	r3, [r7, #4]
 800192a:	681b      	ldr	r3, [r3, #0]
 800192c:	f003 0304 	and.w	r3, r3, #4
 8001930:	2b00      	cmp	r3, #0
 8001932:	f000 8097 	beq.w	8001a64 <HAL_RCC_OscConfig+0x394>
 8001936:	2300      	movs	r3, #0
 8001938:	75fb      	strb	r3, [r7, #23]
 800193a:	4b81      	ldr	r3, [pc, #516]	; (8001b40 <HAL_RCC_OscConfig+0x470>)
 800193c:	6c1b      	ldr	r3, [r3, #64]	; 0x40
 800193e:	f003 5380 	and.w	r3, r3, #268435456	; 0x10000000
 8001942:	2b00      	cmp	r3, #0
 8001944:	d10f      	bne.n	8001966 <HAL_RCC_OscConfig+0x296>
 8001946:	2300      	movs	r3, #0
 8001948:	60bb      	str	r3, [r7, #8]
 800194a:	4b7d      	ldr	r3, [pc, #500]	; (8001b40 <HAL_RCC_OscConfig+0x470>)
 800194c:	6c1b      	ldr	r3, [r3, #64]	; 0x40
 800194e:	4a7c      	ldr	r2, [pc, #496]	; (8001b40 <HAL_RCC_OscConfig+0x470>)
 8001950:	f043 5380 	orr.w	r3, r3, #268435456	; 0x10000000
 8001954:	6413      	str	r3, [r2, #64]	; 0x40
 8001956:	4b7a      	ldr	r3, [pc, #488]	; (8001b40 <HAL_RCC_OscConfig+0x470>)
 8001958:	6c1b      	ldr	r3, [r3, #64]	; 0x40
 800195a:	f003 5380 	and.w	r3, r3, #268435456	; 0x10000000
 800195e:	60bb      	str	r3, [r7, #8]
 8001960:	68bb      	ldr	r3, [r7, #8]
 8001962:	2301      	movs	r3, #1
 8001964:	75fb      	strb	r3, [r7, #23]
 8001966:	4b77      	ldr	r3, [pc, #476]	; (8001b44 <HAL_RCC_OscConfig+0x474>)
 8001968:	681b      	ldr	r3, [r3, #0]
 800196a:	f403 7380 	and.w	r3, r3, #256	; 0x100
 800196e:	2b00      	cmp	r3, #0
 8001970:	d118      	bne.n	80019a4 <HAL_RCC_OscConfig+0x2d4>
 8001972:	4b74      	ldr	r3, [pc, #464]	; (8001b44 <HAL_RCC_OscConfig+0x474>)
 8001974:	681b      	ldr	r3, [r3, #0]
 8001976:	4a73      	ldr	r2, [pc, #460]	; (8001b44 <HAL_RCC_OscConfig+0x474>)
 8001978:	f443 7380 	orr.w	r3, r3, #256	; 0x100
 800197c:	6013      	str	r3, [r2, #0]
 800197e:	f7ff fbd1 	bl	8001124 <HAL_GetTick>
 8001982:	6138      	str	r0, [r7, #16]
 8001984:	e008      	b.n	8001998 <HAL_RCC_OscConfig+0x2c8>
 8001986:	f7ff fbcd 	bl	8001124 <HAL_GetTick>
 800198a:	4602      	mov	r2, r0
 800198c:	693b      	ldr	r3, [r7, #16]
 800198e:	1ad3      	subs	r3, r2, r3
 8001990:	2b02      	cmp	r3, #2
 8001992:	d901      	bls.n	8001998 <HAL_RCC_OscConfig+0x2c8>
 8001994:	2303      	movs	r3, #3
 8001996:	e10c      	b.n	8001bb2 <HAL_RCC_OscConfig+0x4e2>
 8001998:	4b6a      	ldr	r3, [pc, #424]	; (8001b44 <HAL_RCC_OscConfig+0x474>)
 800199a:	681b      	ldr	r3, [r3, #0]
 800199c:	f403 7380 	and.w	r3, r3, #256	; 0x100
 80019a0:	2b00      	cmp	r3, #0
 80019a2:	d0f0      	beq.n	8001986 <HAL_RCC_OscConfig+0x2b6>
 80019a4:	687b      	ldr	r3, [r7, #4]
 80019a6:	689b      	ldr	r3, [r3, #8]
 80019a8:	2b01      	cmp	r3, #1
 80019aa:	d106      	bne.n	80019ba <HAL_RCC_OscConfig+0x2ea>
 80019ac:	4b64      	ldr	r3, [pc, #400]	; (8001b40 <HAL_RCC_OscConfig+0x470>)
 80019ae:	6f1b      	ldr	r3, [r3, #112]	; 0x70
 80019b0:	4a63      	ldr	r2, [pc, #396]	; (8001b40 <HAL_RCC_OscConfig+0x470>)
 80019b2:	f043 0301 	orr.w	r3, r3, #1
 80019b6:	6713      	str	r3, [r2, #112]	; 0x70
 80019b8:	e01c      	b.n	80019f4 <HAL_RCC_OscConfig+0x324>
 80019ba:	687b      	ldr	r3, [r7, #4]
 80019bc:	689b      	ldr	r3, [r3, #8]
 80019be:	2b05      	cmp	r3, #5
 80019c0:	d10c      	bne.n	80019dc <HAL_RCC_OscConfig+0x30c>
 80019c2:	4b5f      	ldr	r3, [pc, #380]	; (8001b40 <HAL_RCC_OscConfig+0x470>)
 80019c4:	6f1b      	ldr	r3, [r3, #112]	; 0x70
 80019c6:	4a5e      	ldr	r2, [pc, #376]	; (8001b40 <HAL_RCC_OscConfig+0x470>)
 80019c8:	f043 0304 	orr.w	r3, r3, #4
 80019cc:	6713      	str	r3, [r2, #112]	; 0x70
 80019ce:	4b5c      	ldr	r3, [pc, #368]	; (8001b40 <HAL_RCC_OscConfig+0x470>)
 80019d0:	6f1b      	ldr	r3, [r3, #112]	; 0x70
 80019d2:	4a5b      	ldr	r2, [pc, #364]	; (8001b40 <HAL_RCC_OscConfig+0x470>)
 80019d4:	f043 0301 	orr.w	r3, r3, #1
 80019d8:	6713      	str	r3, [r2, #112]	; 0x70
 80019da:	e00b      	b.n	80019f4 <HAL_RCC_OscConfig+0x324>
 80019dc:	4b58      	ldr	r3, [pc, #352]	; (8001b40 <HAL_RCC_OscConfig+0x470>)
 80019de:	6f1b      	ldr	r3, [r3, #112]	; 0x70
 80019e0:	4a57      	ldr	r2, [pc, #348]	; (8001b40 <HAL_RCC_OscConfig+0x470>)
 80019e2:	f023 0301 	bic.w	r3, r3, #1
 80019e6:	6713      	str	r3, [r2, #112]	; 0x70
 80019e8:	4b55      	ldr	r3, [pc, #340]	; (8001b40 <HAL_RCC_OscConfig+0x470>)
 80019ea:	6f1b      	ldr	r3, [r3, #112]	; 0x70
 80019ec:	4a54      	ldr	r2, [pc, #336]	; (8001b40 <HAL_RCC_OscConfig+0x470>)
 80019ee:	f023 0304 	bic.w	r3, r3, #4
 80019f2:	6713      	str	r3, [r2, #112]	; 0x70
 80019f4:	687b      	ldr	r3, [r7, #4]
 80019f6:	689b      	ldr	r3, [r3, #8]
 80019f8:	2b00      	cmp	r3, #0
 80019fa:	d015      	beq.n	8001a28 <HAL_RCC_OscConfig+0x358>
 80019fc:	f7ff fb92 	bl	8001124 <HAL_GetTick>
 8001a00:	6138      	str	r0, [r7, #16]
 8001a02:	e00a      	b.n	8001a1a <HAL_RCC_OscConfig+0x34a>
 8001a04:	f7ff fb8e 	bl	8001124 <HAL_GetTick>
 8001a08:	4602      	mov	r2, r0
 8001a0a:	693b      	ldr	r3, [r7, #16]
 8001a0c:	1ad3      	subs	r3, r2, r3
 8001a0e:	f241 3288 	movw	r2, #5000	; 0x1388
 8001a12:	4293      	cmp	r3, r2
 8001a14:	d901      	bls.n	8001a1a <HAL_RCC_OscConfig+0x34a>
 8001a16:	2303      	movs	r3, #3
 8001a18:	e0cb      	b.n	8001bb2 <HAL_RCC_OscConfig+0x4e2>
 8001a1a:	4b49      	ldr	r3, [pc, #292]	; (8001b40 <HAL_RCC_OscConfig+0x470>)
 8001a1c:	6f1b      	ldr	r3, [r3, #112]	; 0x70
 8001a1e:	f003 0302 	and.w	r3, r3, #2
 8001a22:	2b00      	cmp	r3, #0
 8001a24:	d0ee      	beq.n	8001a04 <HAL_RCC_OscConfig+0x334>
 8001a26:	e014      	b.n	8001a52 <HAL_RCC_OscConfig+0x382>
 8001a28:	f7ff fb7c 	bl	8001124 <HAL_GetTick>
 8001a2c:	6138      	str	r0, [r7, #16]
 8001a2e:	e00a      	b.n	8001a46 <HAL_RCC_OscConfig+0x376>
 8001a30:	f7ff fb78 	bl	8001124 <HAL_GetTick>
 8001a34:	4602      	mov	r2, r0
 8001a36:	693b      	ldr	r3, [r7, #16]
 8001a38:	1ad3      	subs	r3, r2, r3
 8001a3a:	f241 3288 	movw	r2, #5000	; 0x1388
 8001a3e:	4293      	cmp	r3, r2
 8001a40:	d901      	bls.n	8001a46 <HAL_RCC_OscConfig+0x376>
 8001a42:	2303      	movs	r3, #3
 8001a44:	e0b5      	b.n	8001bb2 <HAL_RCC_OscConfig+0x4e2>
 8001a46:	4b3e      	ldr	r3, [pc, #248]	; (8001b40 <HAL_RCC_OscConfig+0x470>)
 8001a48:	6f1b      	ldr	r3, [r3, #112]	; 0x70
 8001a4a:	f003 0302 	and.w	r3, r3, #2
 8001a4e:	2b00      	cmp	r3, #0
 8001a50:	d1ee      	bne.n	8001a30 <HAL_RCC_OscConfig+0x360>
 8001a52:	7dfb      	ldrb	r3, [r7, #23]
 8001a54:	2b01      	cmp	r3, #1
 8001a56:	d105      	bne.n	8001a64 <HAL_RCC_OscConfig+0x394>
 8001a58:	4b39      	ldr	r3, [pc, #228]	; (8001b40 <HAL_RCC_OscConfig+0x470>)
 8001a5a:	6c1b      	ldr	r3, [r3, #64]	; 0x40
 8001a5c:	4a38      	ldr	r2, [pc, #224]	; (8001b40 <HAL_RCC_OscConfig+0x470>)
 8001a5e:	f023 5380 	bic.w	r3, r3, #268435456	; 0x10000000
 8001a62:	6413      	str	r3, [r2, #64]	; 0x40
 8001a64:	687b      	ldr	r3, [r7, #4]
 8001a66:	699b      	ldr	r3, [r3, #24]
 8001a68:	2b00      	cmp	r3, #0
 8001a6a:	f000 80a1 	beq.w	8001bb0 <HAL_RCC_OscConfig+0x4e0>
 8001a6e:	4b34      	ldr	r3, [pc, #208]	; (8001b40 <HAL_RCC_OscConfig+0x470>)
 8001a70:	689b      	ldr	r3, [r3, #8]
 8001a72:	f003 030c 	and.w	r3, r3, #12
 8001a76:	2b08      	cmp	r3, #8
 8001a78:	d05c      	beq.n	8001b34 <HAL_RCC_OscConfig+0x464>
 8001a7a:	687b      	ldr	r3, [r7, #4]
 8001a7c:	699b      	ldr	r3, [r3, #24]
 8001a7e:	2b02      	cmp	r3, #2
 8001a80:	d141      	bne.n	8001b06 <HAL_RCC_OscConfig+0x436>
 8001a82:	4b31      	ldr	r3, [pc, #196]	; (8001b48 <HAL_RCC_OscConfig+0x478>)
 8001a84:	2200      	movs	r2, #0
 8001a86:	601a      	str	r2, [r3, #0]
 8001a88:	f7ff fb4c 	bl	8001124 <HAL_GetTick>
 8001a8c:	6138      	str	r0, [r7, #16]
 8001a8e:	e008      	b.n	8001aa2 <HAL_RCC_OscConfig+0x3d2>
 8001a90:	f7ff fb48 	bl	8001124 <HAL_GetTick>
 8001a94:	4602      	mov	r2, r0
 8001a96:	693b      	ldr	r3, [r7, #16]
 8001a98:	1ad3      	subs	r3, r2, r3
 8001a9a:	2b02      	cmp	r3, #2
 8001a9c:	d901      	bls.n	8001aa2 <HAL_RCC_OscConfig+0x3d2>
 8001a9e:	2303      	movs	r3, #3
 8001aa0:	e087      	b.n	8001bb2 <HAL_RCC_OscConfig+0x4e2>
 8001aa2:	4b27      	ldr	r3, [pc, #156]	; (8001b40 <HAL_RCC_OscConfig+0x470>)
 8001aa4:	681b      	ldr	r3, [r3, #0]
 8001aa6:	f003 7300 	and.w	r3, r3, #33554432	; 0x2000000
 8001aaa:	2b00      	cmp	r3, #0
 8001aac:	d1f0      	bne.n	8001a90 <HAL_RCC_OscConfig+0x3c0>
 8001aae:	687b      	ldr	r3, [r7, #4]
 8001ab0:	69da      	ldr	r2, [r3, #28]
 8001ab2:	687b      	ldr	r3, [r7, #4]
 8001ab4:	6a1b      	ldr	r3, [r3, #32]
 8001ab6:	431a      	orrs	r2, r3
 8001ab8:	687b      	ldr	r3, [r7, #4]
 8001aba:	6a5b      	ldr	r3, [r3, #36]	; 0x24
 8001abc:	019b      	lsls	r3, r3, #6
 8001abe:	431a      	orrs	r2, r3
 8001ac0:	687b      	ldr	r3, [r7, #4]
 8001ac2:	6a9b      	ldr	r3, [r3, #40]	; 0x28
 8001ac4:	085b      	lsrs	r3, r3, #1
 8001ac6:	3b01      	subs	r3, #1
 8001ac8:	041b      	lsls	r3, r3, #16
 8001aca:	431a      	orrs	r2, r3
 8001acc:	687b      	ldr	r3, [r7, #4]
 8001ace:	6adb      	ldr	r3, [r3, #44]	; 0x2c
 8001ad0:	061b      	lsls	r3, r3, #24
 8001ad2:	491b      	ldr	r1, [pc, #108]	; (8001b40 <HAL_RCC_OscConfig+0x470>)
 8001ad4:	4313      	orrs	r3, r2
 8001ad6:	604b      	str	r3, [r1, #4]
 8001ad8:	4b1b      	ldr	r3, [pc, #108]	; (8001b48 <HAL_RCC_OscConfig+0x478>)
 8001ada:	2201      	movs	r2, #1
 8001adc:	601a      	str	r2, [r3, #0]
 8001ade:	f7ff fb21 	bl	8001124 <HAL_GetTick>
 8001ae2:	6138      	str	r0, [r7, #16]
 8001ae4:	e008      	b.n	8001af8 <HAL_RCC_OscConfig+0x428>
 8001ae6:	f7ff fb1d 	bl	8001124 <HAL_GetTick>
 8001aea:	4602      	mov	r2, r0
 8001aec:	693b      	ldr	r3, [r7, #16]
 8001aee:	1ad3      	subs	r3, r2, r3
 8001af0:	2b02      	cmp	r3, #2
 8001af2:	d901      	bls.n	8001af8 <HAL_RCC_OscConfig+0x428>
 8001af4:	2303      	movs	r3, #3
 8001af6:	e05c      	b.n	8001bb2 <HAL_RCC_OscConfig+0x4e2>
 8001af8:	4b11      	ldr	r3, [pc, #68]	; (8001b40 <HAL_RCC_OscConfig+0x470>)
 8001afa:	681b      	ldr	r3, [r3, #0]
 8001afc:	f003 7300 	and.w	r3, r3, #33554432	; 0x2000000
 8001b00:	2b00      	cmp	r3, #0
 8001b02:	d0f0      	beq.n	8001ae6 <HAL_RCC_OscConfig+0x416>
 8001b04:	e054      	b.n	8001bb0 <HAL_RCC_OscConfig+0x4e0>
 8001b06:	4b10      	ldr	r3, [pc, #64]	; (8001b48 <HAL_RCC_OscConfig+0x478>)
 8001b08:	2200      	movs	r2, #0
 8001b0a:	601a      	str	r2, [r3, #0]
 8001b0c:	f7ff fb0a 	bl	8001124 <HAL_GetTick>
 8001b10:	6138      	str	r0, [r7, #16]
 8001b12:	e008      	b.n	8001b26 <HAL_RCC_OscConfig+0x456>
 8001b14:	f7ff fb06 	bl	8001124 <HAL_GetTick>
 8001b18:	4602      	mov	r2, r0
 8001b1a:	693b      	ldr	r3, [r7, #16]
 8001b1c:	1ad3      	subs	r3, r2, r3
 8001b1e:	2b02      	cmp	r3, #2
 8001b20:	d901      	bls.n	8001b26 <HAL_RCC_OscConfig+0x456>
 8001b22:	2303      	movs	r3, #3
 8001b24:	e045      	b.n	8001bb2 <HAL_RCC_OscConfig+0x4e2>
 8001b26:	4b06      	ldr	r3, [pc, #24]	; (8001b40 <HAL_RCC_OscConfig+0x470>)
 8001b28:	681b      	ldr	r3, [r3, #0]
 8001b2a:	f003 7300 	and.w	r3, r3, #33554432	; 0x2000000
 8001b2e:	2b00      	cmp	r3, #0
 8001b30:	d1f0      	bne.n	8001b14 <HAL_RCC_OscConfig+0x444>
 8001b32:	e03d      	b.n	8001bb0 <HAL_RCC_OscConfig+0x4e0>
 8001b34:	687b      	ldr	r3, [r7, #4]
 8001b36:	699b      	ldr	r3, [r3, #24]
 8001b38:	2b01      	cmp	r3, #1
 8001b3a:	d107      	bne.n	8001b4c <HAL_RCC_OscConfig+0x47c>
 8001b3c:	2301      	movs	r3, #1
 8001b3e:	e038      	b.n	8001bb2 <HAL_RCC_OscConfig+0x4e2>
 8001b40:	40023800 	.word	0x40023800
 8001b44:	40007000 	.word	0x40007000
 8001b48:	42470060 	.word	0x42470060
 8001b4c:	4b1b      	ldr	r3, [pc, #108]	; (8001bbc <HAL_RCC_OscConfig+0x4ec>)
 8001b4e:	685b      	ldr	r3, [r3, #4]
 8001b50:	60fb      	str	r3, [r7, #12]
 8001b52:	687b      	ldr	r3, [r7, #4]
 8001b54:	699b      	ldr	r3, [r3, #24]
 8001b56:	2b01      	cmp	r3, #1
 8001b58:	d028      	beq.n	8001bac <HAL_RCC_OscConfig+0x4dc>
 8001b5a:	68fb      	ldr	r3, [r7, #12]
 8001b5c:	f403 0280 	and.w	r2, r3, #4194304	; 0x400000
 8001b60:	687b      	ldr	r3, [r7, #4]
 8001b62:	69db      	ldr	r3, [r3, #28]
 8001b64:	429a      	cmp	r2, r3
 8001b66:	d121      	bne.n	8001bac <HAL_RCC_OscConfig+0x4dc>
 8001b68:	68fb      	ldr	r3, [r7, #12]
 8001b6a:	f003 023f 	and.w	r2, r3, #63	; 0x3f
 8001b6e:	687b      	ldr	r3, [r7, #4]
 8001b70:	6a1b      	ldr	r3, [r3, #32]
 8001b72:	429a      	cmp	r2, r3
 8001b74:	d11a      	bne.n	8001bac <HAL_RCC_OscConfig+0x4dc>
 8001b76:	68fa      	ldr	r2, [r7, #12]
 8001b78:	f647 73c0 	movw	r3, #32704	; 0x7fc0
 8001b7c:	4013      	ands	r3, r2
 8001b7e:	687a      	ldr	r2, [r7, #4]
 8001b80:	6a52      	ldr	r2, [r2, #36]	; 0x24
 8001b82:	0192      	lsls	r2, r2, #6
 8001b84:	4293      	cmp	r3, r2
 8001b86:	d111      	bne.n	8001bac <HAL_RCC_OscConfig+0x4dc>
 8001b88:	68fb      	ldr	r3, [r7, #12]
 8001b8a:	f403 3240 	and.w	r2, r3, #196608	; 0x30000
 8001b8e:	687b      	ldr	r3, [r7, #4]
 8001b90:	6a9b      	ldr	r3, [r3, #40]	; 0x28
 8001b92:	085b      	lsrs	r3, r3, #1
 8001b94:	3b01      	subs	r3, #1
 8001b96:	041b      	lsls	r3, r3, #16
 8001b98:	429a      	cmp	r2, r3
 8001b9a:	d107      	bne.n	8001bac <HAL_RCC_OscConfig+0x4dc>
 8001b9c:	68fb      	ldr	r3, [r7, #12]
 8001b9e:	f003 6270 	and.w	r2, r3, #251658240	; 0xf000000
 8001ba2:	687b      	ldr	r3, [r7, #4]
 8001ba4:	6adb      	ldr	r3, [r3, #44]	; 0x2c
 8001ba6:	061b      	lsls	r3, r3, #24
 8001ba8:	429a      	cmp	r2, r3
 8001baa:	d001      	beq.n	8001bb0 <HAL_RCC_OscConfig+0x4e0>
 8001bac:	2301      	movs	r3, #1
 8001bae:	e000      	b.n	8001bb2 <HAL_RCC_OscConfig+0x4e2>
 8001bb0:	2300      	movs	r3, #0
 8001bb2:	4618      	mov	r0, r3
 8001bb4:	3718      	adds	r7, #24
 8001bb6:	46bd      	mov	sp, r7
 8001bb8:	bd80      	pop	{r7, pc}
 8001bba:	bf00      	nop
 8001bbc:	40023800 	.word	0x40023800

08001bc0 <HAL_RCC_ClockConfig>:
 8001bc0:	b580      	push	{r7, lr}
 8001bc2:	b084      	sub	sp, #16
 8001bc4:	af00      	add	r7, sp, #0
 8001bc6:	6078      	str	r0, [r7, #4]
 8001bc8:	6039      	str	r1, [r7, #0]
 8001bca:	687b      	ldr	r3, [r7, #4]
 8001bcc:	2b00      	cmp	r3, #0
 8001bce:	d101      	bne.n	8001bd4 <HAL_RCC_ClockConfig+0x14>
 8001bd0:	2301      	movs	r3, #1
 8001bd2:	e0cc      	b.n	8001d6e <HAL_RCC_ClockConfig+0x1ae>
 8001bd4:	4b68      	ldr	r3, [pc, #416]	; (8001d78 <HAL_RCC_ClockConfig+0x1b8>)
 8001bd6:	681b      	ldr	r3, [r3, #0]
 8001bd8:	f003 0307 	and.w	r3, r3, #7
 8001bdc:	683a      	ldr	r2, [r7, #0]
 8001bde:	429a      	cmp	r2, r3
 8001be0:	d90c      	bls.n	8001bfc <HAL_RCC_ClockConfig+0x3c>
 8001be2:	4b65      	ldr	r3, [pc, #404]	; (8001d78 <HAL_RCC_ClockConfig+0x1b8>)
 8001be4:	683a      	ldr	r2, [r7, #0]
 8001be6:	b2d2      	uxtb	r2, r2
 8001be8:	701a      	strb	r2, [r3, #0]
 8001bea:	4b63      	ldr	r3, [pc, #396]	; (8001d78 <HAL_RCC_ClockConfig+0x1b8>)
 8001bec:	681b      	ldr	r3, [r3, #0]
 8001bee:	f003 0307 	and.w	r3, r3, #7
 8001bf2:	683a      	ldr	r2, [r7, #0]
 8001bf4:	429a      	cmp	r2, r3
 8001bf6:	d001      	beq.n	8001bfc <HAL_RCC_ClockConfig+0x3c>
 8001bf8:	2301      	movs	r3, #1
 8001bfa:	e0b8      	b.n	8001d6e <HAL_RCC_ClockConfig+0x1ae>
 8001bfc:	687b      	ldr	r3, [r7, #4]
 8001bfe:	681b      	ldr	r3, [r3, #0]
 8001c00:	f003 0302 	and.w	r3, r3, #2
 8001c04:	2b00      	cmp	r3, #0
 8001c06:	d020      	beq.n	8001c4a <HAL_RCC_ClockConfig+0x8a>
 8001c08:	687b      	ldr	r3, [r7, #4]
 8001c0a:	681b      	ldr	r3, [r3, #0]
 8001c0c:	f003 0304 	and.w	r3, r3, #4
 8001c10:	2b00      	cmp	r3, #0
 8001c12:	d005      	beq.n	8001c20 <HAL_RCC_ClockConfig+0x60>
 8001c14:	4b59      	ldr	r3, [pc, #356]	; (8001d7c <HAL_RCC_ClockConfig+0x1bc>)
 8001c16:	689b      	ldr	r3, [r3, #8]
 8001c18:	4a58      	ldr	r2, [pc, #352]	; (8001d7c <HAL_RCC_ClockConfig+0x1bc>)
 8001c1a:	f443 53e0 	orr.w	r3, r3, #7168	; 0x1c00
 8001c1e:	6093      	str	r3, [r2, #8]
 8001c20:	687b      	ldr	r3, [r7, #4]
 8001c22:	681b      	ldr	r3, [r3, #0]
 8001c24:	f003 0308 	and.w	r3, r3, #8
 8001c28:	2b00      	cmp	r3, #0
 8001c2a:	d005      	beq.n	8001c38 <HAL_RCC_ClockConfig+0x78>
 8001c2c:	4b53      	ldr	r3, [pc, #332]	; (8001d7c <HAL_RCC_ClockConfig+0x1bc>)
 8001c2e:	689b      	ldr	r3, [r3, #8]
 8001c30:	4a52      	ldr	r2, [pc, #328]	; (8001d7c <HAL_RCC_ClockConfig+0x1bc>)
 8001c32:	f443 4360 	orr.w	r3, r3, #57344	; 0xe000
 8001c36:	6093      	str	r3, [r2, #8]
 8001c38:	4b50      	ldr	r3, [pc, #320]	; (8001d7c <HAL_RCC_ClockConfig+0x1bc>)
 8001c3a:	689b      	ldr	r3, [r3, #8]
 8001c3c:	f023 02f0 	bic.w	r2, r3, #240	; 0xf0
 8001c40:	687b      	ldr	r3, [r7, #4]
 8001c42:	689b      	ldr	r3, [r3, #8]
 8001c44:	494d      	ldr	r1, [pc, #308]	; (8001d7c <HAL_RCC_ClockConfig+0x1bc>)
 8001c46:	4313      	orrs	r3, r2
 8001c48:	608b      	str	r3, [r1, #8]
 8001c4a:	687b      	ldr	r3, [r7, #4]
 8001c4c:	681b      	ldr	r3, [r3, #0]
 8001c4e:	f003 0301 	and.w	r3, r3, #1
 8001c52:	2b00      	cmp	r3, #0
 8001c54:	d044      	beq.n	8001ce0 <HAL_RCC_ClockConfig+0x120>
 8001c56:	687b      	ldr	r3, [r7, #4]
 8001c58:	685b      	ldr	r3, [r3, #4]
 8001c5a:	2b01      	cmp	r3, #1
 8001c5c:	d107      	bne.n	8001c6e <HAL_RCC_ClockConfig+0xae>
 8001c5e:	4b47      	ldr	r3, [pc, #284]	; (8001d7c <HAL_RCC_ClockConfig+0x1bc>)
 8001c60:	681b      	ldr	r3, [r3, #0]
 8001c62:	f403 3300 	and.w	r3, r3, #131072	; 0x20000
 8001c66:	2b00      	cmp	r3, #0
 8001c68:	d119      	bne.n	8001c9e <HAL_RCC_ClockConfig+0xde>
 8001c6a:	2301      	movs	r3, #1
 8001c6c:	e07f      	b.n	8001d6e <HAL_RCC_ClockConfig+0x1ae>
 8001c6e:	687b      	ldr	r3, [r7, #4]
 8001c70:	685b      	ldr	r3, [r3, #4]
 8001c72:	2b02      	cmp	r3, #2
 8001c74:	d003      	beq.n	8001c7e <HAL_RCC_ClockConfig+0xbe>
 8001c76:	687b      	ldr	r3, [r7, #4]
 8001c78:	685b      	ldr	r3, [r3, #4]
 8001c7a:	2b03      	cmp	r3, #3
 8001c7c:	d107      	bne.n	8001c8e <HAL_RCC_ClockConfig+0xce>
 8001c7e:	4b3f      	ldr	r3, [pc, #252]	; (8001d7c <HAL_RCC_ClockConfig+0x1bc>)
 8001c80:	681b      	ldr	r3, [r3, #0]
 8001c82:	f003 7300 	and.w	r3, r3, #33554432	; 0x2000000
 8001c86:	2b00      	cmp	r3, #0
 8001c88:	d109      	bne.n	8001c9e <HAL_RCC_ClockConfig+0xde>
 8001c8a:	2301      	movs	r3, #1
 8001c8c:	e06f      	b.n	8001d6e <HAL_RCC_ClockConfig+0x1ae>
 8001c8e:	4b3b      	ldr	r3, [pc, #236]	; (8001d7c <HAL_RCC_ClockConfig+0x1bc>)
 8001c90:	681b      	ldr	r3, [r3, #0]
 8001c92:	f003 0302 	and.w	r3, r3, #2
 8001c96:	2b00      	cmp	r3, #0
 8001c98:	d101      	bne.n	8001c9e <HAL_RCC_ClockConfig+0xde>
 8001c9a:	2301      	movs	r3, #1
 8001c9c:	e067      	b.n	8001d6e <HAL_RCC_ClockConfig+0x1ae>
 8001c9e:	4b37      	ldr	r3, [pc, #220]	; (8001d7c <HAL_RCC_ClockConfig+0x1bc>)
 8001ca0:	689b      	ldr	r3, [r3, #8]
 8001ca2:	f023 0203 	bic.w	r2, r3, #3
 8001ca6:	687b      	ldr	r3, [r7, #4]
 8001ca8:	685b      	ldr	r3, [r3, #4]
 8001caa:	4934      	ldr	r1, [pc, #208]	; (8001d7c <HAL_RCC_ClockConfig+0x1bc>)
 8001cac:	4313      	orrs	r3, r2
 8001cae:	608b      	str	r3, [r1, #8]
 8001cb0:	f7ff fa38 	bl	8001124 <HAL_GetTick>
 8001cb4:	60f8      	str	r0, [r7, #12]
 8001cb6:	e00a      	b.n	8001cce <HAL_RCC_ClockConfig+0x10e>
 8001cb8:	f7ff fa34 	bl	8001124 <HAL_GetTick>
 8001cbc:	4602      	mov	r2, r0
 8001cbe:	68fb      	ldr	r3, [r7, #12]
 8001cc0:	1ad3      	subs	r3, r2, r3
 8001cc2:	f241 3288 	movw	r2, #5000	; 0x1388
 8001cc6:	4293      	cmp	r3, r2
 8001cc8:	d901      	bls.n	8001cce <HAL_RCC_ClockConfig+0x10e>
 8001cca:	2303      	movs	r3, #3
 8001ccc:	e04f      	b.n	8001d6e <HAL_RCC_ClockConfig+0x1ae>
 8001cce:	4b2b      	ldr	r3, [pc, #172]	; (8001d7c <HAL_RCC_ClockConfig+0x1bc>)
 8001cd0:	689b      	ldr	r3, [r3, #8]
 8001cd2:	f003 020c 	and.w	r2, r3, #12
 8001cd6:	687b      	ldr	r3, [r7, #4]
 8001cd8:	685b      	ldr	r3, [r3, #4]
 8001cda:	009b      	lsls	r3, r3, #2
 8001cdc:	429a      	cmp	r2, r3
 8001cde:	d1eb      	bne.n	8001cb8 <HAL_RCC_ClockConfig+0xf8>
 8001ce0:	4b25      	ldr	r3, [pc, #148]	; (8001d78 <HAL_RCC_ClockConfig+0x1b8>)
 8001ce2:	681b      	ldr	r3, [r3, #0]
 8001ce4:	f003 0307 	and.w	r3, r3, #7
 8001ce8:	683a      	ldr	r2, [r7, #0]
 8001cea:	429a      	cmp	r2, r3
 8001cec:	d20c      	bcs.n	8001d08 <HAL_RCC_ClockConfig+0x148>
 8001cee:	4b22      	ldr	r3, [pc, #136]	; (8001d78 <HAL_RCC_ClockConfig+0x1b8>)
 8001cf0:	683a      	ldr	r2, [r7, #0]
 8001cf2:	b2d2      	uxtb	r2, r2
 8001cf4:	701a      	strb	r2, [r3, #0]
 8001cf6:	4b20      	ldr	r3, [pc, #128]	; (8001d78 <HAL_RCC_ClockConfig+0x1b8>)
 8001cf8:	681b      	ldr	r3, [r3, #0]
 8001cfa:	f003 0307 	and.w	r3, r3, #7
 8001cfe:	683a      	ldr	r2, [r7, #0]
 8001d00:	429a      	cmp	r2, r3
 8001d02:	d001      	beq.n	8001d08 <HAL_RCC_ClockConfig+0x148>
 8001d04:	2301      	movs	r3, #1
 8001d06:	e032      	b.n	8001d6e <HAL_RCC_ClockConfig+0x1ae>
 8001d08:	687b      	ldr	r3, [r7, #4]
 8001d0a:	681b      	ldr	r3, [r3, #0]
 8001d0c:	f003 0304 	and.w	r3, r3, #4
 8001d10:	2b00      	cmp	r3, #0
 8001d12:	d008      	beq.n	8001d26 <HAL_RCC_ClockConfig+0x166>
 8001d14:	4b19      	ldr	r3, [pc, #100]	; (8001d7c <HAL_RCC_ClockConfig+0x1bc>)
 8001d16:	689b      	ldr	r3, [r3, #8]
 8001d18:	f423 52e0 	bic.w	r2, r3, #7168	; 0x1c00
 8001d1c:	687b      	ldr	r3, [r7, #4]
 8001d1e:	68db      	ldr	r3, [r3, #12]
 8001d20:	4916      	ldr	r1, [pc, #88]	; (8001d7c <HAL_RCC_ClockConfig+0x1bc>)
 8001d22:	4313      	orrs	r3, r2
 8001d24:	608b      	str	r3, [r1, #8]
 8001d26:	687b      	ldr	r3, [r7, #4]
 8001d28:	681b      	ldr	r3, [r3, #0]
 8001d2a:	f003 0308 	and.w	r3, r3, #8
 8001d2e:	2b00      	cmp	r3, #0
 8001d30:	d009      	beq.n	8001d46 <HAL_RCC_ClockConfig+0x186>
 8001d32:	4b12      	ldr	r3, [pc, #72]	; (8001d7c <HAL_RCC_ClockConfig+0x1bc>)
 8001d34:	689b      	ldr	r3, [r3, #8]
 8001d36:	f423 4260 	bic.w	r2, r3, #57344	; 0xe000
 8001d3a:	687b      	ldr	r3, [r7, #4]
 8001d3c:	691b      	ldr	r3, [r3, #16]
 8001d3e:	00db      	lsls	r3, r3, #3
 8001d40:	490e      	ldr	r1, [pc, #56]	; (8001d7c <HAL_RCC_ClockConfig+0x1bc>)
 8001d42:	4313      	orrs	r3, r2
 8001d44:	608b      	str	r3, [r1, #8]
 8001d46:	f000 f821 	bl	8001d8c <HAL_RCC_GetSysClockFreq>
 8001d4a:	4602      	mov	r2, r0
 8001d4c:	4b0b      	ldr	r3, [pc, #44]	; (8001d7c <HAL_RCC_ClockConfig+0x1bc>)
 8001d4e:	689b      	ldr	r3, [r3, #8]
 8001d50:	091b      	lsrs	r3, r3, #4
 8001d52:	f003 030f 	and.w	r3, r3, #15
 8001d56:	490a      	ldr	r1, [pc, #40]	; (8001d80 <HAL_RCC_ClockConfig+0x1c0>)
 8001d58:	5ccb      	ldrb	r3, [r1, r3]
 8001d5a:	fa22 f303 	lsr.w	r3, r2, r3
 8001d5e:	4a09      	ldr	r2, [pc, #36]	; (8001d84 <HAL_RCC_ClockConfig+0x1c4>)
 8001d60:	6013      	str	r3, [r2, #0]
 8001d62:	4b09      	ldr	r3, [pc, #36]	; (8001d88 <HAL_RCC_ClockConfig+0x1c8>)
 8001d64:	681b      	ldr	r3, [r3, #0]
 8001d66:	4618      	mov	r0, r3
 8001d68:	f7ff f87c 	bl	8000e64 <HAL_InitTick>
 8001d6c:	2300      	movs	r3, #0
 8001d6e:	4618      	mov	r0, r3
 8001d70:	3710      	adds	r7, #16
 8001d72:	46bd      	mov	sp, r7
 8001d74:	bd80      	pop	{r7, pc}
 8001d76:	bf00      	nop
 8001d78:	40023c00 	.word	0x40023c00
 8001d7c:	40023800 	.word	0x40023800
 8001d80:	08006640 	.word	0x08006640
 8001d84:	20000008 	.word	0x20000008
 8001d88:	2000000c 	.word	0x2000000c

08001d8c <HAL_RCC_GetSysClockFreq>:
 8001d8c:	e92d 4fb0 	stmdb	sp!, {r4, r5, r7, r8, r9, sl, fp, lr}
 8001d90:	b094      	sub	sp, #80	; 0x50
 8001d92:	af00      	add	r7, sp, #0
 8001d94:	2300      	movs	r3, #0
 8001d96:	647b      	str	r3, [r7, #68]	; 0x44
 8001d98:	2300      	movs	r3, #0
 8001d9a:	64fb      	str	r3, [r7, #76]	; 0x4c
 8001d9c:	2300      	movs	r3, #0
 8001d9e:	643b      	str	r3, [r7, #64]	; 0x40
 8001da0:	2300      	movs	r3, #0
 8001da2:	64bb      	str	r3, [r7, #72]	; 0x48
 8001da4:	4b79      	ldr	r3, [pc, #484]	; (8001f8c <HAL_RCC_GetSysClockFreq+0x200>)
 8001da6:	689b      	ldr	r3, [r3, #8]
 8001da8:	f003 030c 	and.w	r3, r3, #12
 8001dac:	2b08      	cmp	r3, #8
 8001dae:	d00d      	beq.n	8001dcc <HAL_RCC_GetSysClockFreq+0x40>
 8001db0:	2b08      	cmp	r3, #8
 8001db2:	f200 80e1 	bhi.w	8001f78 <HAL_RCC_GetSysClockFreq+0x1ec>
 8001db6:	2b00      	cmp	r3, #0
 8001db8:	d002      	beq.n	8001dc0 <HAL_RCC_GetSysClockFreq+0x34>
 8001dba:	2b04      	cmp	r3, #4
 8001dbc:	d003      	beq.n	8001dc6 <HAL_RCC_GetSysClockFreq+0x3a>
 8001dbe:	e0db      	b.n	8001f78 <HAL_RCC_GetSysClockFreq+0x1ec>
 8001dc0:	4b73      	ldr	r3, [pc, #460]	; (8001f90 <HAL_RCC_GetSysClockFreq+0x204>)
 8001dc2:	64bb      	str	r3, [r7, #72]	; 0x48
 8001dc4:	e0db      	b.n	8001f7e <HAL_RCC_GetSysClockFreq+0x1f2>
 8001dc6:	4b73      	ldr	r3, [pc, #460]	; (8001f94 <HAL_RCC_GetSysClockFreq+0x208>)
 8001dc8:	64bb      	str	r3, [r7, #72]	; 0x48
 8001dca:	e0d8      	b.n	8001f7e <HAL_RCC_GetSysClockFreq+0x1f2>
 8001dcc:	4b6f      	ldr	r3, [pc, #444]	; (8001f8c <HAL_RCC_GetSysClockFreq+0x200>)
 8001dce:	685b      	ldr	r3, [r3, #4]
 8001dd0:	f003 033f 	and.w	r3, r3, #63	; 0x3f
 8001dd4:	647b      	str	r3, [r7, #68]	; 0x44
 8001dd6:	4b6d      	ldr	r3, [pc, #436]	; (8001f8c <HAL_RCC_GetSysClockFreq+0x200>)
 8001dd8:	685b      	ldr	r3, [r3, #4]
 8001dda:	f403 0380 	and.w	r3, r3, #4194304	; 0x400000
 8001dde:	2b00      	cmp	r3, #0
 8001de0:	d063      	beq.n	8001eaa <HAL_RCC_GetSysClockFreq+0x11e>
 8001de2:	4b6a      	ldr	r3, [pc, #424]	; (8001f8c <HAL_RCC_GetSysClockFreq+0x200>)
 8001de4:	685b      	ldr	r3, [r3, #4]
 8001de6:	099b      	lsrs	r3, r3, #6
 8001de8:	2200      	movs	r2, #0
 8001dea:	63bb      	str	r3, [r7, #56]	; 0x38
 8001dec:	63fa      	str	r2, [r7, #60]	; 0x3c
 8001dee:	6bbb      	ldr	r3, [r7, #56]	; 0x38
 8001df0:	f3c3 0308 	ubfx	r3, r3, #0, #9
 8001df4:	633b      	str	r3, [r7, #48]	; 0x30
 8001df6:	2300      	movs	r3, #0
 8001df8:	637b      	str	r3, [r7, #52]	; 0x34
 8001dfa:	e9d7 450c 	ldrd	r4, r5, [r7, #48]	; 0x30
 8001dfe:	4622      	mov	r2, r4
 8001e00:	462b      	mov	r3, r5
 8001e02:	f04f 0000 	mov.w	r0, #0
 8001e06:	f04f 0100 	mov.w	r1, #0
 8001e0a:	0159      	lsls	r1, r3, #5
 8001e0c:	ea41 61d2 	orr.w	r1, r1, r2, lsr #27
 8001e10:	0150      	lsls	r0, r2, #5
 8001e12:	4602      	mov	r2, r0
 8001e14:	460b      	mov	r3, r1
 8001e16:	4621      	mov	r1, r4
 8001e18:	1a51      	subs	r1, r2, r1
 8001e1a:	6139      	str	r1, [r7, #16]
 8001e1c:	4629      	mov	r1, r5
 8001e1e:	eb63 0301 	sbc.w	r3, r3, r1
 8001e22:	617b      	str	r3, [r7, #20]
 8001e24:	f04f 0200 	mov.w	r2, #0
 8001e28:	f04f 0300 	mov.w	r3, #0
 8001e2c:	e9d7 ab04 	ldrd	sl, fp, [r7, #16]
 8001e30:	4659      	mov	r1, fp
 8001e32:	018b      	lsls	r3, r1, #6
 8001e34:	4651      	mov	r1, sl
 8001e36:	ea43 6391 	orr.w	r3, r3, r1, lsr #26
 8001e3a:	4651      	mov	r1, sl
 8001e3c:	018a      	lsls	r2, r1, #6
 8001e3e:	4651      	mov	r1, sl
 8001e40:	ebb2 0801 	subs.w	r8, r2, r1
 8001e44:	4659      	mov	r1, fp
 8001e46:	eb63 0901 	sbc.w	r9, r3, r1
 8001e4a:	f04f 0200 	mov.w	r2, #0
 8001e4e:	f04f 0300 	mov.w	r3, #0
 8001e52:	ea4f 03c9 	mov.w	r3, r9, lsl #3
 8001e56:	ea43 7358 	orr.w	r3, r3, r8, lsr #29
 8001e5a:	ea4f 02c8 	mov.w	r2, r8, lsl #3
 8001e5e:	4690      	mov	r8, r2
 8001e60:	4699      	mov	r9, r3
 8001e62:	4623      	mov	r3, r4
 8001e64:	eb18 0303 	adds.w	r3, r8, r3
 8001e68:	60bb      	str	r3, [r7, #8]
 8001e6a:	462b      	mov	r3, r5
 8001e6c:	eb49 0303 	adc.w	r3, r9, r3
 8001e70:	60fb      	str	r3, [r7, #12]
 8001e72:	f04f 0200 	mov.w	r2, #0
 8001e76:	f04f 0300 	mov.w	r3, #0
 8001e7a:	e9d7 4502 	ldrd	r4, r5, [r7, #8]
 8001e7e:	4629      	mov	r1, r5
 8001e80:	024b      	lsls	r3, r1, #9
 8001e82:	4621      	mov	r1, r4
 8001e84:	ea43 53d1 	orr.w	r3, r3, r1, lsr #23
 8001e88:	4621      	mov	r1, r4
 8001e8a:	024a      	lsls	r2, r1, #9
 8001e8c:	4610      	mov	r0, r2
 8001e8e:	4619      	mov	r1, r3
 8001e90:	6c7b      	ldr	r3, [r7, #68]	; 0x44
 8001e92:	2200      	movs	r2, #0
 8001e94:	62bb      	str	r3, [r7, #40]	; 0x28
 8001e96:	62fa      	str	r2, [r7, #44]	; 0x2c
 8001e98:	e9d7 230a 	ldrd	r2, r3, [r7, #40]	; 0x28
 8001e9c:	f7fe f9f8 	bl	8000290 <__aeabi_uldivmod>
 8001ea0:	4602      	mov	r2, r0
 8001ea2:	460b      	mov	r3, r1
 8001ea4:	4613      	mov	r3, r2
 8001ea6:	64fb      	str	r3, [r7, #76]	; 0x4c
 8001ea8:	e058      	b.n	8001f5c <HAL_RCC_GetSysClockFreq+0x1d0>
 8001eaa:	4b38      	ldr	r3, [pc, #224]	; (8001f8c <HAL_RCC_GetSysClockFreq+0x200>)
 8001eac:	685b      	ldr	r3, [r3, #4]
 8001eae:	099b      	lsrs	r3, r3, #6
 8001eb0:	2200      	movs	r2, #0
 8001eb2:	4618      	mov	r0, r3
 8001eb4:	4611      	mov	r1, r2
 8001eb6:	f3c0 0308 	ubfx	r3, r0, #0, #9
 8001eba:	623b      	str	r3, [r7, #32]
 8001ebc:	2300      	movs	r3, #0
 8001ebe:	627b      	str	r3, [r7, #36]	; 0x24
 8001ec0:	e9d7 8908 	ldrd	r8, r9, [r7, #32]
 8001ec4:	4642      	mov	r2, r8
 8001ec6:	464b      	mov	r3, r9
 8001ec8:	f04f 0000 	mov.w	r0, #0
 8001ecc:	f04f 0100 	mov.w	r1, #0
 8001ed0:	0159      	lsls	r1, r3, #5
 8001ed2:	ea41 61d2 	orr.w	r1, r1, r2, lsr #27
 8001ed6:	0150      	lsls	r0, r2, #5
 8001ed8:	4602      	mov	r2, r0
 8001eda:	460b      	mov	r3, r1
 8001edc:	4641      	mov	r1, r8
 8001ede:	ebb2 0a01 	subs.w	sl, r2, r1
 8001ee2:	4649      	mov	r1, r9
 8001ee4:	eb63 0b01 	sbc.w	fp, r3, r1
 8001ee8:	f04f 0200 	mov.w	r2, #0
 8001eec:	f04f 0300 	mov.w	r3, #0
 8001ef0:	ea4f 138b 	mov.w	r3, fp, lsl #6
 8001ef4:	ea43 639a 	orr.w	r3, r3, sl, lsr #26
 8001ef8:	ea4f 128a 	mov.w	r2, sl, lsl #6
 8001efc:	ebb2 040a 	subs.w	r4, r2, sl
 8001f00:	eb63 050b 	sbc.w	r5, r3, fp
 8001f04:	f04f 0200 	mov.w	r2, #0
 8001f08:	f04f 0300 	mov.w	r3, #0
 8001f0c:	00eb      	lsls	r3, r5, #3
 8001f0e:	ea43 7354 	orr.w	r3, r3, r4, lsr #29
 8001f12:	00e2      	lsls	r2, r4, #3
 8001f14:	4614      	mov	r4, r2
 8001f16:	461d      	mov	r5, r3
 8001f18:	4643      	mov	r3, r8
 8001f1a:	18e3      	adds	r3, r4, r3
 8001f1c:	603b      	str	r3, [r7, #0]
 8001f1e:	464b      	mov	r3, r9
 8001f20:	eb45 0303 	adc.w	r3, r5, r3
 8001f24:	607b      	str	r3, [r7, #4]
 8001f26:	f04f 0200 	mov.w	r2, #0
 8001f2a:	f04f 0300 	mov.w	r3, #0
 8001f2e:	e9d7 4500 	ldrd	r4, r5, [r7]
 8001f32:	4629      	mov	r1, r5
 8001f34:	028b      	lsls	r3, r1, #10
 8001f36:	4621      	mov	r1, r4
 8001f38:	ea43 5391 	orr.w	r3, r3, r1, lsr #22
 8001f3c:	4621      	mov	r1, r4
 8001f3e:	028a      	lsls	r2, r1, #10
 8001f40:	4610      	mov	r0, r2
 8001f42:	4619      	mov	r1, r3
 8001f44:	6c7b      	ldr	r3, [r7, #68]	; 0x44
 8001f46:	2200      	movs	r2, #0
 8001f48:	61bb      	str	r3, [r7, #24]
 8001f4a:	61fa      	str	r2, [r7, #28]
 8001f4c:	e9d7 2306 	ldrd	r2, r3, [r7, #24]
 8001f50:	f7fe f99e 	bl	8000290 <__aeabi_uldivmod>
 8001f54:	4602      	mov	r2, r0
 8001f56:	460b      	mov	r3, r1
 8001f58:	4613      	mov	r3, r2
 8001f5a:	64fb      	str	r3, [r7, #76]	; 0x4c
 8001f5c:	4b0b      	ldr	r3, [pc, #44]	; (8001f8c <HAL_RCC_GetSysClockFreq+0x200>)
 8001f5e:	685b      	ldr	r3, [r3, #4]
 8001f60:	0c1b      	lsrs	r3, r3, #16
 8001f62:	f003 0303 	and.w	r3, r3, #3
 8001f66:	3301      	adds	r3, #1
 8001f68:	005b      	lsls	r3, r3, #1
 8001f6a:	643b      	str	r3, [r7, #64]	; 0x40
 8001f6c:	6cfa      	ldr	r2, [r7, #76]	; 0x4c
 8001f6e:	6c3b      	ldr	r3, [r7, #64]	; 0x40
 8001f70:	fbb2 f3f3 	udiv	r3, r2, r3
 8001f74:	64bb      	str	r3, [r7, #72]	; 0x48
 8001f76:	e002      	b.n	8001f7e <HAL_RCC_GetSysClockFreq+0x1f2>
 8001f78:	4b05      	ldr	r3, [pc, #20]	; (8001f90 <HAL_RCC_GetSysClockFreq+0x204>)
 8001f7a:	64bb      	str	r3, [r7, #72]	; 0x48
 8001f7c:	bf00      	nop
 8001f7e:	6cbb      	ldr	r3, [r7, #72]	; 0x48
 8001f80:	4618      	mov	r0, r3
 8001f82:	3750      	adds	r7, #80	; 0x50
 8001f84:	46bd      	mov	sp, r7
 8001f86:	e8bd 8fb0 	ldmia.w	sp!, {r4, r5, r7, r8, r9, sl, fp, pc}
 8001f8a:	bf00      	nop
 8001f8c:	40023800 	.word	0x40023800
 8001f90:	00f42400 	.word	0x00f42400
 8001f94:	007a1200 	.word	0x007a1200

08001f98 <HAL_RCC_GetHCLKFreq>:
 8001f98:	b480      	push	{r7}
 8001f9a:	af00      	add	r7, sp, #0
 8001f9c:	4b03      	ldr	r3, [pc, #12]	; (8001fac <HAL_RCC_GetHCLKFreq+0x14>)
 8001f9e:	681b      	ldr	r3, [r3, #0]
 8001fa0:	4618      	mov	r0, r3
 8001fa2:	46bd      	mov	sp, r7
 8001fa4:	f85d 7b04 	ldr.w	r7, [sp], #4
 8001fa8:	4770      	bx	lr
 8001faa:	bf00      	nop
 8001fac:	20000008 	.word	0x20000008

08001fb0 <HAL_RCC_GetPCLK1Freq>:
 8001fb0:	b580      	push	{r7, lr}
 8001fb2:	af00      	add	r7, sp, #0
 8001fb4:	f7ff fff0 	bl	8001f98 <HAL_RCC_GetHCLKFreq>
 8001fb8:	4602      	mov	r2, r0
 8001fba:	4b05      	ldr	r3, [pc, #20]	; (8001fd0 <HAL_RCC_GetPCLK1Freq+0x20>)
 8001fbc:	689b      	ldr	r3, [r3, #8]
 8001fbe:	0a9b      	lsrs	r3, r3, #10
 8001fc0:	f003 0307 	and.w	r3, r3, #7
 8001fc4:	4903      	ldr	r1, [pc, #12]	; (8001fd4 <HAL_RCC_GetPCLK1Freq+0x24>)
 8001fc6:	5ccb      	ldrb	r3, [r1, r3]
 8001fc8:	fa22 f303 	lsr.w	r3, r2, r3
 8001fcc:	4618      	mov	r0, r3
 8001fce:	bd80      	pop	{r7, pc}
 8001fd0:	40023800 	.word	0x40023800
 8001fd4:	08006650 	.word	0x08006650

08001fd8 <HAL_RCC_GetPCLK2Freq>:
 8001fd8:	b580      	push	{r7, lr}
 8001fda:	af00      	add	r7, sp, #0
 8001fdc:	f7ff ffdc 	bl	8001f98 <HAL_RCC_GetHCLKFreq>
 8001fe0:	4602      	mov	r2, r0
 8001fe2:	4b05      	ldr	r3, [pc, #20]	; (8001ff8 <HAL_RCC_GetPCLK2Freq+0x20>)
 8001fe4:	689b      	ldr	r3, [r3, #8]
 8001fe6:	0b5b      	lsrs	r3, r3, #13
 8001fe8:	f003 0307 	and.w	r3, r3, #7
 8001fec:	4903      	ldr	r1, [pc, #12]	; (8001ffc <HAL_RCC_GetPCLK2Freq+0x24>)
 8001fee:	5ccb      	ldrb	r3, [r1, r3]
 8001ff0:	fa22 f303 	lsr.w	r3, r2, r3
 8001ff4:	4618      	mov	r0, r3
 8001ff6:	bd80      	pop	{r7, pc}
 8001ff8:	40023800 	.word	0x40023800
 8001ffc:	08006650 	.word	0x08006650

08002000 <HAL_RCC_GetClockConfig>:
 8002000:	b480      	push	{r7}
 8002002:	b083      	sub	sp, #12
 8002004:	af00      	add	r7, sp, #0
 8002006:	6078      	str	r0, [r7, #4]
 8002008:	6039      	str	r1, [r7, #0]
 800200a:	687b      	ldr	r3, [r7, #4]
 800200c:	220f      	movs	r2, #15
 800200e:	601a      	str	r2, [r3, #0]
 8002010:	4b12      	ldr	r3, [pc, #72]	; (800205c <HAL_RCC_GetClockConfig+0x5c>)
 8002012:	689b      	ldr	r3, [r3, #8]
 8002014:	f003 0203 	and.w	r2, r3, #3
 8002018:	687b      	ldr	r3, [r7, #4]
 800201a:	605a      	str	r2, [r3, #4]
 800201c:	4b0f      	ldr	r3, [pc, #60]	; (800205c <HAL_RCC_GetClockConfig+0x5c>)
 800201e:	689b      	ldr	r3, [r3, #8]
 8002020:	f003 02f0 	and.w	r2, r3, #240	; 0xf0
 8002024:	687b      	ldr	r3, [r7, #4]
 8002026:	609a      	str	r2, [r3, #8]
 8002028:	4b0c      	ldr	r3, [pc, #48]	; (800205c <HAL_RCC_GetClockConfig+0x5c>)
 800202a:	689b      	ldr	r3, [r3, #8]
 800202c:	f403 52e0 	and.w	r2, r3, #7168	; 0x1c00
 8002030:	687b      	ldr	r3, [r7, #4]
 8002032:	60da      	str	r2, [r3, #12]
 8002034:	4b09      	ldr	r3, [pc, #36]	; (800205c <HAL_RCC_GetClockConfig+0x5c>)
 8002036:	689b      	ldr	r3, [r3, #8]
 8002038:	08db      	lsrs	r3, r3, #3
 800203a:	f403 52e0 	and.w	r2, r3, #7168	; 0x1c00
 800203e:	687b      	ldr	r3, [r7, #4]
 8002040:	611a      	str	r2, [r3, #16]
 8002042:	4b07      	ldr	r3, [pc, #28]	; (8002060 <HAL_RCC_GetClockConfig+0x60>)
 8002044:	681b      	ldr	r3, [r3, #0]
 8002046:	f003 0207 	and.w	r2, r3, #7
 800204a:	683b      	ldr	r3, [r7, #0]
 800204c:	601a      	str	r2, [r3, #0]
 800204e:	bf00      	nop
 8002050:	370c      	adds	r7, #12
 8002052:	46bd      	mov	sp, r7
 8002054:	f85d 7b04 	ldr.w	r7, [sp], #4
 8002058:	4770      	bx	lr
 800205a:	bf00      	nop
 800205c:	40023800 	.word	0x40023800
 8002060:	40023c00 	.word	0x40023c00

08002064 <HAL_TIM_Base_Init>:
 8002064:	b580      	push	{r7, lr}
 8002066:	b082      	sub	sp, #8
 8002068:	af00      	add	r7, sp, #0
 800206a:	6078      	str	r0, [r7, #4]
 800206c:	687b      	ldr	r3, [r7, #4]
 800206e:	2b00      	cmp	r3, #0
 8002070:	d101      	bne.n	8002076 <HAL_TIM_Base_Init+0x12>
 8002072:	2301      	movs	r3, #1
 8002074:	e041      	b.n	80020fa <HAL_TIM_Base_Init+0x96>
 8002076:	687b      	ldr	r3, [r7, #4]
 8002078:	f893 303d 	ldrb.w	r3, [r3, #61]	; 0x3d
 800207c:	b2db      	uxtb	r3, r3
 800207e:	2b00      	cmp	r3, #0
 8002080:	d106      	bne.n	8002090 <HAL_TIM_Base_Init+0x2c>
 8002082:	687b      	ldr	r3, [r7, #4]
 8002084:	2200      	movs	r2, #0
 8002086:	f883 203c 	strb.w	r2, [r3, #60]	; 0x3c
 800208a:	6878      	ldr	r0, [r7, #4]
 800208c:	f7fe fe3e 	bl	8000d0c <HAL_TIM_Base_MspInit>
 8002090:	687b      	ldr	r3, [r7, #4]
 8002092:	2202      	movs	r2, #2
 8002094:	f883 203d 	strb.w	r2, [r3, #61]	; 0x3d
 8002098:	687b      	ldr	r3, [r7, #4]
 800209a:	681a      	ldr	r2, [r3, #0]
 800209c:	687b      	ldr	r3, [r7, #4]
 800209e:	3304      	adds	r3, #4
 80020a0:	4619      	mov	r1, r3
 80020a2:	4610      	mov	r0, r2
 80020a4:	f000 fab6 	bl	8002614 <TIM_Base_SetConfig>
 80020a8:	687b      	ldr	r3, [r7, #4]
 80020aa:	2201      	movs	r2, #1
 80020ac:	f883 2046 	strb.w	r2, [r3, #70]	; 0x46
 80020b0:	687b      	ldr	r3, [r7, #4]
 80020b2:	2201      	movs	r2, #1
 80020b4:	f883 203e 	strb.w	r2, [r3, #62]	; 0x3e
 80020b8:	687b      	ldr	r3, [r7, #4]
 80020ba:	2201      	movs	r2, #1
 80020bc:	f883 203f 	strb.w	r2, [r3, #63]	; 0x3f
 80020c0:	687b      	ldr	r3, [r7, #4]
 80020c2:	2201      	movs	r2, #1
 80020c4:	f883 2040 	strb.w	r2, [r3, #64]	; 0x40
 80020c8:	687b      	ldr	r3, [r7, #4]
 80020ca:	2201      	movs	r2, #1
 80020cc:	f883 2041 	strb.w	r2, [r3, #65]	; 0x41
 80020d0:	687b      	ldr	r3, [r7, #4]
 80020d2:	2201      	movs	r2, #1
 80020d4:	f883 2042 	strb.w	r2, [r3, #66]	; 0x42
 80020d8:	687b      	ldr	r3, [r7, #4]
 80020da:	2201      	movs	r2, #1
 80020dc:	f883 2043 	strb.w	r2, [r3, #67]	; 0x43
 80020e0:	687b      	ldr	r3, [r7, #4]
 80020e2:	2201      	movs	r2, #1
 80020e4:	f883 2044 	strb.w	r2, [r3, #68]	; 0x44
 80020e8:	687b      	ldr	r3, [r7, #4]
 80020ea:	2201      	movs	r2, #1
 80020ec:	f883 2045 	strb.w	r2, [r3, #69]	; 0x45
 80020f0:	687b      	ldr	r3, [r7, #4]
 80020f2:	2201      	movs	r2, #1
 80020f4:	f883 203d 	strb.w	r2, [r3, #61]	; 0x3d
 80020f8:	2300      	movs	r3, #0
 80020fa:	4618      	mov	r0, r3
 80020fc:	3708      	adds	r7, #8
 80020fe:	46bd      	mov	sp, r7
 8002100:	bd80      	pop	{r7, pc}
	...

08002104 <HAL_TIM_Base_Start_IT>:
 8002104:	b480      	push	{r7}
 8002106:	b085      	sub	sp, #20
 8002108:	af00      	add	r7, sp, #0
 800210a:	6078      	str	r0, [r7, #4]
 800210c:	687b      	ldr	r3, [r7, #4]
 800210e:	f893 303d 	ldrb.w	r3, [r3, #61]	; 0x3d
 8002112:	b2db      	uxtb	r3, r3
 8002114:	2b01      	cmp	r3, #1
 8002116:	d001      	beq.n	800211c <HAL_TIM_Base_Start_IT+0x18>
 8002118:	2301      	movs	r3, #1
 800211a:	e044      	b.n	80021a6 <HAL_TIM_Base_Start_IT+0xa2>
 800211c:	687b      	ldr	r3, [r7, #4]
 800211e:	2202      	movs	r2, #2
 8002120:	f883 203d 	strb.w	r2, [r3, #61]	; 0x3d
 8002124:	687b      	ldr	r3, [r7, #4]
 8002126:	681b      	ldr	r3, [r3, #0]
 8002128:	68da      	ldr	r2, [r3, #12]
 800212a:	687b      	ldr	r3, [r7, #4]
 800212c:	681b      	ldr	r3, [r3, #0]
 800212e:	f042 0201 	orr.w	r2, r2, #1
 8002132:	60da      	str	r2, [r3, #12]
 8002134:	687b      	ldr	r3, [r7, #4]
 8002136:	681b      	ldr	r3, [r3, #0]
 8002138:	4a1e      	ldr	r2, [pc, #120]	; (80021b4 <HAL_TIM_Base_Start_IT+0xb0>)
 800213a:	4293      	cmp	r3, r2
 800213c:	d018      	beq.n	8002170 <HAL_TIM_Base_Start_IT+0x6c>
 800213e:	687b      	ldr	r3, [r7, #4]
 8002140:	681b      	ldr	r3, [r3, #0]
 8002142:	f1b3 4f80 	cmp.w	r3, #1073741824	; 0x40000000
 8002146:	d013      	beq.n	8002170 <HAL_TIM_Base_Start_IT+0x6c>
 8002148:	687b      	ldr	r3, [r7, #4]
 800214a:	681b      	ldr	r3, [r3, #0]
 800214c:	4a1a      	ldr	r2, [pc, #104]	; (80021b8 <HAL_TIM_Base_Start_IT+0xb4>)
 800214e:	4293      	cmp	r3, r2
 8002150:	d00e      	beq.n	8002170 <HAL_TIM_Base_Start_IT+0x6c>
 8002152:	687b      	ldr	r3, [r7, #4]
 8002154:	681b      	ldr	r3, [r3, #0]
 8002156:	4a19      	ldr	r2, [pc, #100]	; (80021bc <HAL_TIM_Base_Start_IT+0xb8>)
 8002158:	4293      	cmp	r3, r2
 800215a:	d009      	beq.n	8002170 <HAL_TIM_Base_Start_IT+0x6c>
 800215c:	687b      	ldr	r3, [r7, #4]
 800215e:	681b      	ldr	r3, [r3, #0]
 8002160:	4a17      	ldr	r2, [pc, #92]	; (80021c0 <HAL_TIM_Base_Start_IT+0xbc>)
 8002162:	4293      	cmp	r3, r2
 8002164:	d004      	beq.n	8002170 <HAL_TIM_Base_Start_IT+0x6c>
 8002166:	687b      	ldr	r3, [r7, #4]
 8002168:	681b      	ldr	r3, [r3, #0]
 800216a:	4a16      	ldr	r2, [pc, #88]	; (80021c4 <HAL_TIM_Base_Start_IT+0xc0>)
 800216c:	4293      	cmp	r3, r2
 800216e:	d111      	bne.n	8002194 <HAL_TIM_Base_Start_IT+0x90>
 8002170:	687b      	ldr	r3, [r7, #4]
 8002172:	681b      	ldr	r3, [r3, #0]
 8002174:	689b      	ldr	r3, [r3, #8]
 8002176:	f003 0307 	and.w	r3, r3, #7
 800217a:	60fb      	str	r3, [r7, #12]
 800217c:	68fb      	ldr	r3, [r7, #12]
 800217e:	2b06      	cmp	r3, #6
 8002180:	d010      	beq.n	80021a4 <HAL_TIM_Base_Start_IT+0xa0>
 8002182:	687b      	ldr	r3, [r7, #4]
 8002184:	681b      	ldr	r3, [r3, #0]
 8002186:	681a      	ldr	r2, [r3, #0]
 8002188:	687b      	ldr	r3, [r7, #4]
 800218a:	681b      	ldr	r3, [r3, #0]
 800218c:	f042 0201 	orr.w	r2, r2, #1
 8002190:	601a      	str	r2, [r3, #0]
 8002192:	e007      	b.n	80021a4 <HAL_TIM_Base_Start_IT+0xa0>
 8002194:	687b      	ldr	r3, [r7, #4]
 8002196:	681b      	ldr	r3, [r3, #0]
 8002198:	681a      	ldr	r2, [r3, #0]
 800219a:	687b      	ldr	r3, [r7, #4]
 800219c:	681b      	ldr	r3, [r3, #0]
 800219e:	f042 0201 	orr.w	r2, r2, #1
 80021a2:	601a      	str	r2, [r3, #0]
 80021a4:	2300      	movs	r3, #0
 80021a6:	4618      	mov	r0, r3
 80021a8:	3714      	adds	r7, #20
 80021aa:	46bd      	mov	sp, r7
 80021ac:	f85d 7b04 	ldr.w	r7, [sp], #4
 80021b0:	4770      	bx	lr
 80021b2:	bf00      	nop
 80021b4:	40010000 	.word	0x40010000
 80021b8:	40000400 	.word	0x40000400
 80021bc:	40000800 	.word	0x40000800
 80021c0:	40000c00 	.word	0x40000c00
 80021c4:	40014000 	.word	0x40014000

080021c8 <HAL_TIM_Base_Stop_IT>:
 80021c8:	b480      	push	{r7}
 80021ca:	b083      	sub	sp, #12
 80021cc:	af00      	add	r7, sp, #0
 80021ce:	6078      	str	r0, [r7, #4]
 80021d0:	687b      	ldr	r3, [r7, #4]
 80021d2:	681b      	ldr	r3, [r3, #0]
 80021d4:	68da      	ldr	r2, [r3, #12]
 80021d6:	687b      	ldr	r3, [r7, #4]
 80021d8:	681b      	ldr	r3, [r3, #0]
 80021da:	f022 0201 	bic.w	r2, r2, #1
 80021de:	60da      	str	r2, [r3, #12]
 80021e0:	687b      	ldr	r3, [r7, #4]
 80021e2:	681b      	ldr	r3, [r3, #0]
 80021e4:	6a1a      	ldr	r2, [r3, #32]
 80021e6:	f241 1311 	movw	r3, #4369	; 0x1111
 80021ea:	4013      	ands	r3, r2
 80021ec:	2b00      	cmp	r3, #0
 80021ee:	d10f      	bne.n	8002210 <HAL_TIM_Base_Stop_IT+0x48>
 80021f0:	687b      	ldr	r3, [r7, #4]
 80021f2:	681b      	ldr	r3, [r3, #0]
 80021f4:	6a1a      	ldr	r2, [r3, #32]
 80021f6:	f240 4344 	movw	r3, #1092	; 0x444
 80021fa:	4013      	ands	r3, r2
 80021fc:	2b00      	cmp	r3, #0
 80021fe:	d107      	bne.n	8002210 <HAL_TIM_Base_Stop_IT+0x48>
 8002200:	687b      	ldr	r3, [r7, #4]
 8002202:	681b      	ldr	r3, [r3, #0]
 8002204:	681a      	ldr	r2, [r3, #0]
 8002206:	687b      	ldr	r3, [r7, #4]
 8002208:	681b      	ldr	r3, [r3, #0]
 800220a:	f022 0201 	bic.w	r2, r2, #1
 800220e:	601a      	str	r2, [r3, #0]
 8002210:	687b      	ldr	r3, [r7, #4]
 8002212:	2201      	movs	r2, #1
 8002214:	f883 203d 	strb.w	r2, [r3, #61]	; 0x3d
 8002218:	2300      	movs	r3, #0
 800221a:	4618      	mov	r0, r3
 800221c:	370c      	adds	r7, #12
 800221e:	46bd      	mov	sp, r7
 8002220:	f85d 7b04 	ldr.w	r7, [sp], #4
 8002224:	4770      	bx	lr

08002226 <HAL_TIM_IRQHandler>:
 8002226:	b580      	push	{r7, lr}
 8002228:	b082      	sub	sp, #8
 800222a:	af00      	add	r7, sp, #0
 800222c:	6078      	str	r0, [r7, #4]
 800222e:	687b      	ldr	r3, [r7, #4]
 8002230:	681b      	ldr	r3, [r3, #0]
 8002232:	691b      	ldr	r3, [r3, #16]
 8002234:	f003 0302 	and.w	r3, r3, #2
 8002238:	2b02      	cmp	r3, #2
 800223a:	d122      	bne.n	8002282 <HAL_TIM_IRQHandler+0x5c>
 800223c:	687b      	ldr	r3, [r7, #4]
 800223e:	681b      	ldr	r3, [r3, #0]
 8002240:	68db      	ldr	r3, [r3, #12]
 8002242:	f003 0302 	and.w	r3, r3, #2
 8002246:	2b02      	cmp	r3, #2
 8002248:	d11b      	bne.n	8002282 <HAL_TIM_IRQHandler+0x5c>
 800224a:	687b      	ldr	r3, [r7, #4]
 800224c:	681b      	ldr	r3, [r3, #0]
 800224e:	f06f 0202 	mvn.w	r2, #2
 8002252:	611a      	str	r2, [r3, #16]
 8002254:	687b      	ldr	r3, [r7, #4]
 8002256:	2201      	movs	r2, #1
 8002258:	771a      	strb	r2, [r3, #28]
 800225a:	687b      	ldr	r3, [r7, #4]
 800225c:	681b      	ldr	r3, [r3, #0]
 800225e:	699b      	ldr	r3, [r3, #24]
 8002260:	f003 0303 	and.w	r3, r3, #3
 8002264:	2b00      	cmp	r3, #0
 8002266:	d003      	beq.n	8002270 <HAL_TIM_IRQHandler+0x4a>
 8002268:	6878      	ldr	r0, [r7, #4]
 800226a:	f000 f9b5 	bl	80025d8 <HAL_TIM_IC_CaptureCallback>
 800226e:	e005      	b.n	800227c <HAL_TIM_IRQHandler+0x56>
 8002270:	6878      	ldr	r0, [r7, #4]
 8002272:	f000 f9a7 	bl	80025c4 <HAL_TIM_OC_DelayElapsedCallback>
 8002276:	6878      	ldr	r0, [r7, #4]
 8002278:	f000 f9b8 	bl	80025ec <HAL_TIM_PWM_PulseFinishedCallback>
 800227c:	687b      	ldr	r3, [r7, #4]
 800227e:	2200      	movs	r2, #0
 8002280:	771a      	strb	r2, [r3, #28]
 8002282:	687b      	ldr	r3, [r7, #4]
 8002284:	681b      	ldr	r3, [r3, #0]
 8002286:	691b      	ldr	r3, [r3, #16]
 8002288:	f003 0304 	and.w	r3, r3, #4
 800228c:	2b04      	cmp	r3, #4
 800228e:	d122      	bne.n	80022d6 <HAL_TIM_IRQHandler+0xb0>
 8002290:	687b      	ldr	r3, [r7, #4]
 8002292:	681b      	ldr	r3, [r3, #0]
 8002294:	68db      	ldr	r3, [r3, #12]
 8002296:	f003 0304 	and.w	r3, r3, #4
 800229a:	2b04      	cmp	r3, #4
 800229c:	d11b      	bne.n	80022d6 <HAL_TIM_IRQHandler+0xb0>
 800229e:	687b      	ldr	r3, [r7, #4]
 80022a0:	681b      	ldr	r3, [r3, #0]
 80022a2:	f06f 0204 	mvn.w	r2, #4
 80022a6:	611a      	str	r2, [r3, #16]
 80022a8:	687b      	ldr	r3, [r7, #4]
 80022aa:	2202      	movs	r2, #2
 80022ac:	771a      	strb	r2, [r3, #28]
 80022ae:	687b      	ldr	r3, [r7, #4]
 80022b0:	681b      	ldr	r3, [r3, #0]
 80022b2:	699b      	ldr	r3, [r3, #24]
 80022b4:	f403 7340 	and.w	r3, r3, #768	; 0x300
 80022b8:	2b00      	cmp	r3, #0
 80022ba:	d003      	beq.n	80022c4 <HAL_TIM_IRQHandler+0x9e>
 80022bc:	6878      	ldr	r0, [r7, #4]
 80022be:	f000 f98b 	bl	80025d8 <HAL_TIM_IC_CaptureCallback>
 80022c2:	e005      	b.n	80022d0 <HAL_TIM_IRQHandler+0xaa>
 80022c4:	6878      	ldr	r0, [r7, #4]
 80022c6:	f000 f97d 	bl	80025c4 <HAL_TIM_OC_DelayElapsedCallback>
 80022ca:	6878      	ldr	r0, [r7, #4]
 80022cc:	f000 f98e 	bl	80025ec <HAL_TIM_PWM_PulseFinishedCallback>
 80022d0:	687b      	ldr	r3, [r7, #4]
 80022d2:	2200      	movs	r2, #0
 80022d4:	771a      	strb	r2, [r3, #28]
 80022d6:	687b      	ldr	r3, [r7, #4]
 80022d8:	681b      	ldr	r3, [r3, #0]
 80022da:	691b      	ldr	r3, [r3, #16]
 80022dc:	f003 0308 	and.w	r3, r3, #8
 80022e0:	2b08      	cmp	r3, #8
 80022e2:	d122      	bne.n	800232a <HAL_TIM_IRQHandler+0x104>
 80022e4:	687b      	ldr	r3, [r7, #4]
 80022e6:	681b      	ldr	r3, [r3, #0]
 80022e8:	68db      	ldr	r3, [r3, #12]
 80022ea:	f003 0308 	and.w	r3, r3, #8
 80022ee:	2b08      	cmp	r3, #8
 80022f0:	d11b      	bne.n	800232a <HAL_TIM_IRQHandler+0x104>
 80022f2:	687b      	ldr	r3, [r7, #4]
 80022f4:	681b      	ldr	r3, [r3, #0]
 80022f6:	f06f 0208 	mvn.w	r2, #8
 80022fa:	611a      	str	r2, [r3, #16]
 80022fc:	687b      	ldr	r3, [r7, #4]
 80022fe:	2204      	movs	r2, #4
 8002300:	771a      	strb	r2, [r3, #28]
 8002302:	687b      	ldr	r3, [r7, #4]
 8002304:	681b      	ldr	r3, [r3, #0]
 8002306:	69db      	ldr	r3, [r3, #28]
 8002308:	f003 0303 	and.w	r3, r3, #3
 800230c:	2b00      	cmp	r3, #0
 800230e:	d003      	beq.n	8002318 <HAL_TIM_IRQHandler+0xf2>
 8002310:	6878      	ldr	r0, [r7, #4]
 8002312:	f000 f961 	bl	80025d8 <HAL_TIM_IC_CaptureCallback>
 8002316:	e005      	b.n	8002324 <HAL_TIM_IRQHandler+0xfe>
 8002318:	6878      	ldr	r0, [r7, #4]
 800231a:	f000 f953 	bl	80025c4 <HAL_TIM_OC_DelayElapsedCallback>
 800231e:	6878      	ldr	r0, [r7, #4]
 8002320:	f000 f964 	bl	80025ec <HAL_TIM_PWM_PulseFinishedCallback>
 8002324:	687b      	ldr	r3, [r7, #4]
 8002326:	2200      	movs	r2, #0
 8002328:	771a      	strb	r2, [r3, #28]
 800232a:	687b      	ldr	r3, [r7, #4]
 800232c:	681b      	ldr	r3, [r3, #0]
 800232e:	691b      	ldr	r3, [r3, #16]
 8002330:	f003 0310 	and.w	r3, r3, #16
 8002334:	2b10      	cmp	r3, #16
 8002336:	d122      	bne.n	800237e <HAL_TIM_IRQHandler+0x158>
 8002338:	687b      	ldr	r3, [r7, #4]
 800233a:	681b      	ldr	r3, [r3, #0]
 800233c:	68db      	ldr	r3, [r3, #12]
 800233e:	f003 0310 	and.w	r3, r3, #16
 8002342:	2b10      	cmp	r3, #16
 8002344:	d11b      	bne.n	800237e <HAL_TIM_IRQHandler+0x158>
 8002346:	687b      	ldr	r3, [r7, #4]
 8002348:	681b      	ldr	r3, [r3, #0]
 800234a:	f06f 0210 	mvn.w	r2, #16
 800234e:	611a      	str	r2, [r3, #16]
 8002350:	687b      	ldr	r3, [r7, #4]
 8002352:	2208      	movs	r2, #8
 8002354:	771a      	strb	r2, [r3, #28]
 8002356:	687b      	ldr	r3, [r7, #4]
 8002358:	681b      	ldr	r3, [r3, #0]
 800235a:	69db      	ldr	r3, [r3, #28]
 800235c:	f403 7340 	and.w	r3, r3, #768	; 0x300
 8002360:	2b00      	cmp	r3, #0
 8002362:	d003      	beq.n	800236c <HAL_TIM_IRQHandler+0x146>
 8002364:	6878      	ldr	r0, [r7, #4]
 8002366:	f000 f937 	bl	80025d8 <HAL_TIM_IC_CaptureCallback>
 800236a:	e005      	b.n	8002378 <HAL_TIM_IRQHandler+0x152>
 800236c:	6878      	ldr	r0, [r7, #4]
 800236e:	f000 f929 	bl	80025c4 <HAL_TIM_OC_DelayElapsedCallback>
 8002372:	6878      	ldr	r0, [r7, #4]
 8002374:	f000 f93a 	bl	80025ec <HAL_TIM_PWM_PulseFinishedCallback>
 8002378:	687b      	ldr	r3, [r7, #4]
 800237a:	2200      	movs	r2, #0
 800237c:	771a      	strb	r2, [r3, #28]
 800237e:	687b      	ldr	r3, [r7, #4]
 8002380:	681b      	ldr	r3, [r3, #0]
 8002382:	691b      	ldr	r3, [r3, #16]
 8002384:	f003 0301 	and.w	r3, r3, #1
 8002388:	2b01      	cmp	r3, #1
 800238a:	d10e      	bne.n	80023aa <HAL_TIM_IRQHandler+0x184>
 800238c:	687b      	ldr	r3, [r7, #4]
 800238e:	681b      	ldr	r3, [r3, #0]
 8002390:	68db      	ldr	r3, [r3, #12]
 8002392:	f003 0301 	and.w	r3, r3, #1
 8002396:	2b01      	cmp	r3, #1
 8002398:	d107      	bne.n	80023aa <HAL_TIM_IRQHandler+0x184>
 800239a:	687b      	ldr	r3, [r7, #4]
 800239c:	681b      	ldr	r3, [r3, #0]
 800239e:	f06f 0201 	mvn.w	r2, #1
 80023a2:	611a      	str	r2, [r3, #16]
 80023a4:	6878      	ldr	r0, [r7, #4]
 80023a6:	f7fe fc2d 	bl	8000c04 <HAL_TIM_PeriodElapsedCallback>
 80023aa:	687b      	ldr	r3, [r7, #4]
 80023ac:	681b      	ldr	r3, [r3, #0]
 80023ae:	691b      	ldr	r3, [r3, #16]
 80023b0:	f003 0380 	and.w	r3, r3, #128	; 0x80
 80023b4:	2b80      	cmp	r3, #128	; 0x80
 80023b6:	d10e      	bne.n	80023d6 <HAL_TIM_IRQHandler+0x1b0>
 80023b8:	687b      	ldr	r3, [r7, #4]
 80023ba:	681b      	ldr	r3, [r3, #0]
 80023bc:	68db      	ldr	r3, [r3, #12]
 80023be:	f003 0380 	and.w	r3, r3, #128	; 0x80
 80023c2:	2b80      	cmp	r3, #128	; 0x80
 80023c4:	d107      	bne.n	80023d6 <HAL_TIM_IRQHandler+0x1b0>
 80023c6:	687b      	ldr	r3, [r7, #4]
 80023c8:	681b      	ldr	r3, [r3, #0]
 80023ca:	f06f 0280 	mvn.w	r2, #128	; 0x80
 80023ce:	611a      	str	r2, [r3, #16]
 80023d0:	6878      	ldr	r0, [r7, #4]
 80023d2:	f000 fab1 	bl	8002938 <HAL_TIMEx_BreakCallback>
 80023d6:	687b      	ldr	r3, [r7, #4]
 80023d8:	681b      	ldr	r3, [r3, #0]
 80023da:	691b      	ldr	r3, [r3, #16]
 80023dc:	f003 0340 	and.w	r3, r3, #64	; 0x40
 80023e0:	2b40      	cmp	r3, #64	; 0x40
 80023e2:	d10e      	bne.n	8002402 <HAL_TIM_IRQHandler+0x1dc>
 80023e4:	687b      	ldr	r3, [r7, #4]
 80023e6:	681b      	ldr	r3, [r3, #0]
 80023e8:	68db      	ldr	r3, [r3, #12]
 80023ea:	f003 0340 	and.w	r3, r3, #64	; 0x40
 80023ee:	2b40      	cmp	r3, #64	; 0x40
 80023f0:	d107      	bne.n	8002402 <HAL_TIM_IRQHandler+0x1dc>
 80023f2:	687b      	ldr	r3, [r7, #4]
 80023f4:	681b      	ldr	r3, [r3, #0]
 80023f6:	f06f 0240 	mvn.w	r2, #64	; 0x40
 80023fa:	611a      	str	r2, [r3, #16]
 80023fc:	6878      	ldr	r0, [r7, #4]
 80023fe:	f000 f8ff 	bl	8002600 <HAL_TIM_TriggerCallback>
 8002402:	687b      	ldr	r3, [r7, #4]
 8002404:	681b      	ldr	r3, [r3, #0]
 8002406:	691b      	ldr	r3, [r3, #16]
 8002408:	f003 0320 	and.w	r3, r3, #32
 800240c:	2b20      	cmp	r3, #32
 800240e:	d10e      	bne.n	800242e <HAL_TIM_IRQHandler+0x208>
 8002410:	687b      	ldr	r3, [r7, #4]
 8002412:	681b      	ldr	r3, [r3, #0]
 8002414:	68db      	ldr	r3, [r3, #12]
 8002416:	f003 0320 	and.w	r3, r3, #32
 800241a:	2b20      	cmp	r3, #32
 800241c:	d107      	bne.n	800242e <HAL_TIM_IRQHandler+0x208>
 800241e:	687b      	ldr	r3, [r7, #4]
 8002420:	681b      	ldr	r3, [r3, #0]
 8002422:	f06f 0220 	mvn.w	r2, #32
 8002426:	611a      	str	r2, [r3, #16]
 8002428:	6878      	ldr	r0, [r7, #4]
 800242a:	f000 fa7b 	bl	8002924 <HAL_TIMEx_CommutCallback>
 800242e:	bf00      	nop
 8002430:	3708      	adds	r7, #8
 8002432:	46bd      	mov	sp, r7
 8002434:	bd80      	pop	{r7, pc}

08002436 <HAL_TIM_ConfigClockSource>:
 8002436:	b580      	push	{r7, lr}
 8002438:	b084      	sub	sp, #16
 800243a:	af00      	add	r7, sp, #0
 800243c:	6078      	str	r0, [r7, #4]
 800243e:	6039      	str	r1, [r7, #0]
 8002440:	2300      	movs	r3, #0
 8002442:	73fb      	strb	r3, [r7, #15]
 8002444:	687b      	ldr	r3, [r7, #4]
 8002446:	f893 303c 	ldrb.w	r3, [r3, #60]	; 0x3c
 800244a:	2b01      	cmp	r3, #1
 800244c:	d101      	bne.n	8002452 <HAL_TIM_ConfigClockSource+0x1c>
 800244e:	2302      	movs	r3, #2
 8002450:	e0b4      	b.n	80025bc <HAL_TIM_ConfigClockSource+0x186>
 8002452:	687b      	ldr	r3, [r7, #4]
 8002454:	2201      	movs	r2, #1
 8002456:	f883 203c 	strb.w	r2, [r3, #60]	; 0x3c
 800245a:	687b      	ldr	r3, [r7, #4]
 800245c:	2202      	movs	r2, #2
 800245e:	f883 203d 	strb.w	r2, [r3, #61]	; 0x3d
 8002462:	687b      	ldr	r3, [r7, #4]
 8002464:	681b      	ldr	r3, [r3, #0]
 8002466:	689b      	ldr	r3, [r3, #8]
 8002468:	60bb      	str	r3, [r7, #8]
 800246a:	68bb      	ldr	r3, [r7, #8]
 800246c:	f023 0377 	bic.w	r3, r3, #119	; 0x77
 8002470:	60bb      	str	r3, [r7, #8]
 8002472:	68bb      	ldr	r3, [r7, #8]
 8002474:	f423 437f 	bic.w	r3, r3, #65280	; 0xff00
 8002478:	60bb      	str	r3, [r7, #8]
 800247a:	687b      	ldr	r3, [r7, #4]
 800247c:	681b      	ldr	r3, [r3, #0]
 800247e:	68ba      	ldr	r2, [r7, #8]
 8002480:	609a      	str	r2, [r3, #8]
 8002482:	683b      	ldr	r3, [r7, #0]
 8002484:	681b      	ldr	r3, [r3, #0]
 8002486:	f5b3 5f00 	cmp.w	r3, #8192	; 0x2000
 800248a:	d03e      	beq.n	800250a <HAL_TIM_ConfigClockSource+0xd4>
 800248c:	f5b3 5f00 	cmp.w	r3, #8192	; 0x2000
 8002490:	f200 8087 	bhi.w	80025a2 <HAL_TIM_ConfigClockSource+0x16c>
 8002494:	f5b3 5f80 	cmp.w	r3, #4096	; 0x1000
 8002498:	f000 8086 	beq.w	80025a8 <HAL_TIM_ConfigClockSource+0x172>
 800249c:	f5b3 5f80 	cmp.w	r3, #4096	; 0x1000
 80024a0:	d87f      	bhi.n	80025a2 <HAL_TIM_ConfigClockSource+0x16c>
 80024a2:	2b70      	cmp	r3, #112	; 0x70
 80024a4:	d01a      	beq.n	80024dc <HAL_TIM_ConfigClockSource+0xa6>
 80024a6:	2b70      	cmp	r3, #112	; 0x70
 80024a8:	d87b      	bhi.n	80025a2 <HAL_TIM_ConfigClockSource+0x16c>
 80024aa:	2b60      	cmp	r3, #96	; 0x60
 80024ac:	d050      	beq.n	8002550 <HAL_TIM_ConfigClockSource+0x11a>
 80024ae:	2b60      	cmp	r3, #96	; 0x60
 80024b0:	d877      	bhi.n	80025a2 <HAL_TIM_ConfigClockSource+0x16c>
 80024b2:	2b50      	cmp	r3, #80	; 0x50
 80024b4:	d03c      	beq.n	8002530 <HAL_TIM_ConfigClockSource+0xfa>
 80024b6:	2b50      	cmp	r3, #80	; 0x50
 80024b8:	d873      	bhi.n	80025a2 <HAL_TIM_ConfigClockSource+0x16c>
 80024ba:	2b40      	cmp	r3, #64	; 0x40
 80024bc:	d058      	beq.n	8002570 <HAL_TIM_ConfigClockSource+0x13a>
 80024be:	2b40      	cmp	r3, #64	; 0x40
 80024c0:	d86f      	bhi.n	80025a2 <HAL_TIM_ConfigClockSource+0x16c>
 80024c2:	2b30      	cmp	r3, #48	; 0x30
 80024c4:	d064      	beq.n	8002590 <HAL_TIM_ConfigClockSource+0x15a>
 80024c6:	2b30      	cmp	r3, #48	; 0x30
 80024c8:	d86b      	bhi.n	80025a2 <HAL_TIM_ConfigClockSource+0x16c>
 80024ca:	2b20      	cmp	r3, #32
 80024cc:	d060      	beq.n	8002590 <HAL_TIM_ConfigClockSource+0x15a>
 80024ce:	2b20      	cmp	r3, #32
 80024d0:	d867      	bhi.n	80025a2 <HAL_TIM_ConfigClockSource+0x16c>
 80024d2:	2b00      	cmp	r3, #0
 80024d4:	d05c      	beq.n	8002590 <HAL_TIM_ConfigClockSource+0x15a>
 80024d6:	2b10      	cmp	r3, #16
 80024d8:	d05a      	beq.n	8002590 <HAL_TIM_ConfigClockSource+0x15a>
 80024da:	e062      	b.n	80025a2 <HAL_TIM_ConfigClockSource+0x16c>
 80024dc:	687b      	ldr	r3, [r7, #4]
 80024de:	6818      	ldr	r0, [r3, #0]
 80024e0:	683b      	ldr	r3, [r7, #0]
 80024e2:	6899      	ldr	r1, [r3, #8]
 80024e4:	683b      	ldr	r3, [r7, #0]
 80024e6:	685a      	ldr	r2, [r3, #4]
 80024e8:	683b      	ldr	r3, [r7, #0]
 80024ea:	68db      	ldr	r3, [r3, #12]
 80024ec:	f000 f98c 	bl	8002808 <TIM_ETR_SetConfig>
 80024f0:	687b      	ldr	r3, [r7, #4]
 80024f2:	681b      	ldr	r3, [r3, #0]
 80024f4:	689b      	ldr	r3, [r3, #8]
 80024f6:	60bb      	str	r3, [r7, #8]
 80024f8:	68bb      	ldr	r3, [r7, #8]
 80024fa:	f043 0377 	orr.w	r3, r3, #119	; 0x77
 80024fe:	60bb      	str	r3, [r7, #8]
 8002500:	687b      	ldr	r3, [r7, #4]
 8002502:	681b      	ldr	r3, [r3, #0]
 8002504:	68ba      	ldr	r2, [r7, #8]
 8002506:	609a      	str	r2, [r3, #8]
 8002508:	e04f      	b.n	80025aa <HAL_TIM_ConfigClockSource+0x174>
 800250a:	687b      	ldr	r3, [r7, #4]
 800250c:	6818      	ldr	r0, [r3, #0]
 800250e:	683b      	ldr	r3, [r7, #0]
 8002510:	6899      	ldr	r1, [r3, #8]
 8002512:	683b      	ldr	r3, [r7, #0]
 8002514:	685a      	ldr	r2, [r3, #4]
 8002516:	683b      	ldr	r3, [r7, #0]
 8002518:	68db      	ldr	r3, [r3, #12]
 800251a:	f000 f975 	bl	8002808 <TIM_ETR_SetConfig>
 800251e:	687b      	ldr	r3, [r7, #4]
 8002520:	681b      	ldr	r3, [r3, #0]
 8002522:	689a      	ldr	r2, [r3, #8]
 8002524:	687b      	ldr	r3, [r7, #4]
 8002526:	681b      	ldr	r3, [r3, #0]
 8002528:	f442 4280 	orr.w	r2, r2, #16384	; 0x4000
 800252c:	609a      	str	r2, [r3, #8]
 800252e:	e03c      	b.n	80025aa <HAL_TIM_ConfigClockSource+0x174>
 8002530:	687b      	ldr	r3, [r7, #4]
 8002532:	6818      	ldr	r0, [r3, #0]
 8002534:	683b      	ldr	r3, [r7, #0]
 8002536:	6859      	ldr	r1, [r3, #4]
 8002538:	683b      	ldr	r3, [r7, #0]
 800253a:	68db      	ldr	r3, [r3, #12]
 800253c:	461a      	mov	r2, r3
 800253e:	f000 f8e9 	bl	8002714 <TIM_TI1_ConfigInputStage>
 8002542:	687b      	ldr	r3, [r7, #4]
 8002544:	681b      	ldr	r3, [r3, #0]
 8002546:	2150      	movs	r1, #80	; 0x50
 8002548:	4618      	mov	r0, r3
 800254a:	f000 f942 	bl	80027d2 <TIM_ITRx_SetConfig>
 800254e:	e02c      	b.n	80025aa <HAL_TIM_ConfigClockSource+0x174>
 8002550:	687b      	ldr	r3, [r7, #4]
 8002552:	6818      	ldr	r0, [r3, #0]
 8002554:	683b      	ldr	r3, [r7, #0]
 8002556:	6859      	ldr	r1, [r3, #4]
 8002558:	683b      	ldr	r3, [r7, #0]
 800255a:	68db      	ldr	r3, [r3, #12]
 800255c:	461a      	mov	r2, r3
 800255e:	f000 f908 	bl	8002772 <TIM_TI2_ConfigInputStage>
 8002562:	687b      	ldr	r3, [r7, #4]
 8002564:	681b      	ldr	r3, [r3, #0]
 8002566:	2160      	movs	r1, #96	; 0x60
 8002568:	4618      	mov	r0, r3
 800256a:	f000 f932 	bl	80027d2 <TIM_ITRx_SetConfig>
 800256e:	e01c      	b.n	80025aa <HAL_TIM_ConfigClockSource+0x174>
 8002570:	687b      	ldr	r3, [r7, #4]
 8002572:	6818      	ldr	r0, [r3, #0]
 8002574:	683b      	ldr	r3, [r7, #0]
 8002576:	6859      	ldr	r1, [r3, #4]
 8002578:	683b      	ldr	r3, [r7, #0]
 800257a:	68db      	ldr	r3, [r3, #12]
 800257c:	461a      	mov	r2, r3
 800257e:	f000 f8c9 	bl	8002714 <TIM_TI1_ConfigInputStage>
 8002582:	687b      	ldr	r3, [r7, #4]
 8002584:	681b      	ldr	r3, [r3, #0]
 8002586:	2140      	movs	r1, #64	; 0x40
 8002588:	4618      	mov	r0, r3
 800258a:	f000 f922 	bl	80027d2 <TIM_ITRx_SetConfig>
 800258e:	e00c      	b.n	80025aa <HAL_TIM_ConfigClockSource+0x174>
 8002590:	687b      	ldr	r3, [r7, #4]
 8002592:	681a      	ldr	r2, [r3, #0]
 8002594:	683b      	ldr	r3, [r7, #0]
 8002596:	681b      	ldr	r3, [r3, #0]
 8002598:	4619      	mov	r1, r3
 800259a:	4610      	mov	r0, r2
 800259c:	f000 f919 	bl	80027d2 <TIM_ITRx_SetConfig>
 80025a0:	e003      	b.n	80025aa <HAL_TIM_ConfigClockSource+0x174>
 80025a2:	2301      	movs	r3, #1
 80025a4:	73fb      	strb	r3, [r7, #15]
 80025a6:	e000      	b.n	80025aa <HAL_TIM_ConfigClockSource+0x174>
 80025a8:	bf00      	nop
 80025aa:	687b      	ldr	r3, [r7, #4]
 80025ac:	2201      	movs	r2, #1
 80025ae:	f883 203d 	strb.w	r2, [r3, #61]	; 0x3d
 80025b2:	687b      	ldr	r3, [r7, #4]
 80025b4:	2200      	movs	r2, #0
 80025b6:	f883 203c 	strb.w	r2, [r3, #60]	; 0x3c
 80025ba:	7bfb      	ldrb	r3, [r7, #15]
 80025bc:	4618      	mov	r0, r3
 80025be:	3710      	adds	r7, #16
 80025c0:	46bd      	mov	sp, r7
 80025c2:	bd80      	pop	{r7, pc}

080025c4 <HAL_TIM_OC_DelayElapsedCallback>:
 80025c4:	b480      	push	{r7}
 80025c6:	b083      	sub	sp, #12
 80025c8:	af00      	add	r7, sp, #0
 80025ca:	6078      	str	r0, [r7, #4]
 80025cc:	bf00      	nop
 80025ce:	370c      	adds	r7, #12
 80025d0:	46bd      	mov	sp, r7
 80025d2:	f85d 7b04 	ldr.w	r7, [sp], #4
 80025d6:	4770      	bx	lr

080025d8 <HAL_TIM_IC_CaptureCallback>:
 80025d8:	b480      	push	{r7}
 80025da:	b083      	sub	sp, #12
 80025dc:	af00      	add	r7, sp, #0
 80025de:	6078      	str	r0, [r7, #4]
 80025e0:	bf00      	nop
 80025e2:	370c      	adds	r7, #12
 80025e4:	46bd      	mov	sp, r7
 80025e6:	f85d 7b04 	ldr.w	r7, [sp], #4
 80025ea:	4770      	bx	lr

080025ec <HAL_TIM_PWM_PulseFinishedCallback>:
 80025ec:	b480      	push	{r7}
 80025ee:	b083      	sub	sp, #12
 80025f0:	af00      	add	r7, sp, #0
 80025f2:	6078      	str	r0, [r7, #4]
 80025f4:	bf00      	nop
 80025f6:	370c      	adds	r7, #12
 80025f8:	46bd      	mov	sp, r7
 80025fa:	f85d 7b04 	ldr.w	r7, [sp], #4
 80025fe:	4770      	bx	lr

08002600 <HAL_TIM_TriggerCallback>:
 8002600:	b480      	push	{r7}
 8002602:	b083      	sub	sp, #12
 8002604:	af00      	add	r7, sp, #0
 8002606:	6078      	str	r0, [r7, #4]
 8002608:	bf00      	nop
 800260a:	370c      	adds	r7, #12
 800260c:	46bd      	mov	sp, r7
 800260e:	f85d 7b04 	ldr.w	r7, [sp], #4
 8002612:	4770      	bx	lr

08002614 <TIM_Base_SetConfig>:
 8002614:	b480      	push	{r7}
 8002616:	b085      	sub	sp, #20
 8002618:	af00      	add	r7, sp, #0
 800261a:	6078      	str	r0, [r7, #4]
 800261c:	6039      	str	r1, [r7, #0]
 800261e:	687b      	ldr	r3, [r7, #4]
 8002620:	681b      	ldr	r3, [r3, #0]
 8002622:	60fb      	str	r3, [r7, #12]
 8002624:	687b      	ldr	r3, [r7, #4]
 8002626:	4a34      	ldr	r2, [pc, #208]	; (80026f8 <TIM_Base_SetConfig+0xe4>)
 8002628:	4293      	cmp	r3, r2
 800262a:	d00f      	beq.n	800264c <TIM_Base_SetConfig+0x38>
 800262c:	687b      	ldr	r3, [r7, #4]
 800262e:	f1b3 4f80 	cmp.w	r3, #1073741824	; 0x40000000
 8002632:	d00b      	beq.n	800264c <TIM_Base_SetConfig+0x38>
 8002634:	687b      	ldr	r3, [r7, #4]
 8002636:	4a31      	ldr	r2, [pc, #196]	; (80026fc <TIM_Base_SetConfig+0xe8>)
 8002638:	4293      	cmp	r3, r2
 800263a:	d007      	beq.n	800264c <TIM_Base_SetConfig+0x38>
 800263c:	687b      	ldr	r3, [r7, #4]
 800263e:	4a30      	ldr	r2, [pc, #192]	; (8002700 <TIM_Base_SetConfig+0xec>)
 8002640:	4293      	cmp	r3, r2
 8002642:	d003      	beq.n	800264c <TIM_Base_SetConfig+0x38>
 8002644:	687b      	ldr	r3, [r7, #4]
 8002646:	4a2f      	ldr	r2, [pc, #188]	; (8002704 <TIM_Base_SetConfig+0xf0>)
 8002648:	4293      	cmp	r3, r2
 800264a:	d108      	bne.n	800265e <TIM_Base_SetConfig+0x4a>
 800264c:	68fb      	ldr	r3, [r7, #12]
 800264e:	f023 0370 	bic.w	r3, r3, #112	; 0x70
 8002652:	60fb      	str	r3, [r7, #12]
 8002654:	683b      	ldr	r3, [r7, #0]
 8002656:	685b      	ldr	r3, [r3, #4]
 8002658:	68fa      	ldr	r2, [r7, #12]
 800265a:	4313      	orrs	r3, r2
 800265c:	60fb      	str	r3, [r7, #12]
 800265e:	687b      	ldr	r3, [r7, #4]
 8002660:	4a25      	ldr	r2, [pc, #148]	; (80026f8 <TIM_Base_SetConfig+0xe4>)
 8002662:	4293      	cmp	r3, r2
 8002664:	d01b      	beq.n	800269e <TIM_Base_SetConfig+0x8a>
 8002666:	687b      	ldr	r3, [r7, #4]
 8002668:	f1b3 4f80 	cmp.w	r3, #1073741824	; 0x40000000
 800266c:	d017      	beq.n	800269e <TIM_Base_SetConfig+0x8a>
 800266e:	687b      	ldr	r3, [r7, #4]
 8002670:	4a22      	ldr	r2, [pc, #136]	; (80026fc <TIM_Base_SetConfig+0xe8>)
 8002672:	4293      	cmp	r3, r2
 8002674:	d013      	beq.n	800269e <TIM_Base_SetConfig+0x8a>
 8002676:	687b      	ldr	r3, [r7, #4]
 8002678:	4a21      	ldr	r2, [pc, #132]	; (8002700 <TIM_Base_SetConfig+0xec>)
 800267a:	4293      	cmp	r3, r2
 800267c:	d00f      	beq.n	800269e <TIM_Base_SetConfig+0x8a>
 800267e:	687b      	ldr	r3, [r7, #4]
 8002680:	4a20      	ldr	r2, [pc, #128]	; (8002704 <TIM_Base_SetConfig+0xf0>)
 8002682:	4293      	cmp	r3, r2
 8002684:	d00b      	beq.n	800269e <TIM_Base_SetConfig+0x8a>
 8002686:	687b      	ldr	r3, [r7, #4]
 8002688:	4a1f      	ldr	r2, [pc, #124]	; (8002708 <TIM_Base_SetConfig+0xf4>)
 800268a:	4293      	cmp	r3, r2
 800268c:	d007      	beq.n	800269e <TIM_Base_SetConfig+0x8a>
 800268e:	687b      	ldr	r3, [r7, #4]
 8002690:	4a1e      	ldr	r2, [pc, #120]	; (800270c <TIM_Base_SetConfig+0xf8>)
 8002692:	4293      	cmp	r3, r2
 8002694:	d003      	beq.n	800269e <TIM_Base_SetConfig+0x8a>
 8002696:	687b      	ldr	r3, [r7, #4]
 8002698:	4a1d      	ldr	r2, [pc, #116]	; (8002710 <TIM_Base_SetConfig+0xfc>)
 800269a:	4293      	cmp	r3, r2
 800269c:	d108      	bne.n	80026b0 <TIM_Base_SetConfig+0x9c>
 800269e:	68fb      	ldr	r3, [r7, #12]
 80026a0:	f423 7340 	bic.w	r3, r3, #768	; 0x300
 80026a4:	60fb      	str	r3, [r7, #12]
 80026a6:	683b      	ldr	r3, [r7, #0]
 80026a8:	68db      	ldr	r3, [r3, #12]
 80026aa:	68fa      	ldr	r2, [r7, #12]
 80026ac:	4313      	orrs	r3, r2
 80026ae:	60fb      	str	r3, [r7, #12]
 80026b0:	68fb      	ldr	r3, [r7, #12]
 80026b2:	f023 0280 	bic.w	r2, r3, #128	; 0x80
 80026b6:	683b      	ldr	r3, [r7, #0]
 80026b8:	695b      	ldr	r3, [r3, #20]
 80026ba:	4313      	orrs	r3, r2
 80026bc:	60fb      	str	r3, [r7, #12]
 80026be:	687b      	ldr	r3, [r7, #4]
 80026c0:	68fa      	ldr	r2, [r7, #12]
 80026c2:	601a      	str	r2, [r3, #0]
 80026c4:	683b      	ldr	r3, [r7, #0]
 80026c6:	689a      	ldr	r2, [r3, #8]
 80026c8:	687b      	ldr	r3, [r7, #4]
 80026ca:	62da      	str	r2, [r3, #44]	; 0x2c
 80026cc:	683b      	ldr	r3, [r7, #0]
 80026ce:	681a      	ldr	r2, [r3, #0]
 80026d0:	687b      	ldr	r3, [r7, #4]
 80026d2:	629a      	str	r2, [r3, #40]	; 0x28
 80026d4:	687b      	ldr	r3, [r7, #4]
 80026d6:	4a08      	ldr	r2, [pc, #32]	; (80026f8 <TIM_Base_SetConfig+0xe4>)
 80026d8:	4293      	cmp	r3, r2
 80026da:	d103      	bne.n	80026e4 <TIM_Base_SetConfig+0xd0>
 80026dc:	683b      	ldr	r3, [r7, #0]
 80026de:	691a      	ldr	r2, [r3, #16]
 80026e0:	687b      	ldr	r3, [r7, #4]
 80026e2:	631a      	str	r2, [r3, #48]	; 0x30
 80026e4:	687b      	ldr	r3, [r7, #4]
 80026e6:	2201      	movs	r2, #1
 80026e8:	615a      	str	r2, [r3, #20]
 80026ea:	bf00      	nop
 80026ec:	3714      	adds	r7, #20
 80026ee:	46bd      	mov	sp, r7
 80026f0:	f85d 7b04 	ldr.w	r7, [sp], #4
 80026f4:	4770      	bx	lr
 80026f6:	bf00      	nop
 80026f8:	40010000 	.word	0x40010000
 80026fc:	40000400 	.word	0x40000400
 8002700:	40000800 	.word	0x40000800
 8002704:	40000c00 	.word	0x40000c00
 8002708:	40014000 	.word	0x40014000
 800270c:	40014400 	.word	0x40014400
 8002710:	40014800 	.word	0x40014800

08002714 <TIM_TI1_ConfigInputStage>:
 8002714:	b480      	push	{r7}
 8002716:	b087      	sub	sp, #28
 8002718:	af00      	add	r7, sp, #0
 800271a:	60f8      	str	r0, [r7, #12]
 800271c:	60b9      	str	r1, [r7, #8]
 800271e:	607a      	str	r2, [r7, #4]
 8002720:	68fb      	ldr	r3, [r7, #12]
 8002722:	6a1b      	ldr	r3, [r3, #32]
 8002724:	617b      	str	r3, [r7, #20]
 8002726:	68fb      	ldr	r3, [r7, #12]
 8002728:	6a1b      	ldr	r3, [r3, #32]
 800272a:	f023 0201 	bic.w	r2, r3, #1
 800272e:	68fb      	ldr	r3, [r7, #12]
 8002730:	621a      	str	r2, [r3, #32]
 8002732:	68fb      	ldr	r3, [r7, #12]
 8002734:	699b      	ldr	r3, [r3, #24]
 8002736:	613b      	str	r3, [r7, #16]
 8002738:	693b      	ldr	r3, [r7, #16]
 800273a:	f023 03f0 	bic.w	r3, r3, #240	; 0xf0
 800273e:	613b      	str	r3, [r7, #16]
 8002740:	687b      	ldr	r3, [r7, #4]
 8002742:	011b      	lsls	r3, r3, #4
 8002744:	693a      	ldr	r2, [r7, #16]
 8002746:	4313      	orrs	r3, r2
 8002748:	613b      	str	r3, [r7, #16]
 800274a:	697b      	ldr	r3, [r7, #20]
 800274c:	f023 030a 	bic.w	r3, r3, #10
 8002750:	617b      	str	r3, [r7, #20]
 8002752:	697a      	ldr	r2, [r7, #20]
 8002754:	68bb      	ldr	r3, [r7, #8]
 8002756:	4313      	orrs	r3, r2
 8002758:	617b      	str	r3, [r7, #20]
 800275a:	68fb      	ldr	r3, [r7, #12]
 800275c:	693a      	ldr	r2, [r7, #16]
 800275e:	619a      	str	r2, [r3, #24]
 8002760:	68fb      	ldr	r3, [r7, #12]
 8002762:	697a      	ldr	r2, [r7, #20]
 8002764:	621a      	str	r2, [r3, #32]
 8002766:	bf00      	nop
 8002768:	371c      	adds	r7, #28
 800276a:	46bd      	mov	sp, r7
 800276c:	f85d 7b04 	ldr.w	r7, [sp], #4
 8002770:	4770      	bx	lr

08002772 <TIM_TI2_ConfigInputStage>:
 8002772:	b480      	push	{r7}
 8002774:	b087      	sub	sp, #28
 8002776:	af00      	add	r7, sp, #0
 8002778:	60f8      	str	r0, [r7, #12]
 800277a:	60b9      	str	r1, [r7, #8]
 800277c:	607a      	str	r2, [r7, #4]
 800277e:	68fb      	ldr	r3, [r7, #12]
 8002780:	6a1b      	ldr	r3, [r3, #32]
 8002782:	f023 0210 	bic.w	r2, r3, #16
 8002786:	68fb      	ldr	r3, [r7, #12]
 8002788:	621a      	str	r2, [r3, #32]
 800278a:	68fb      	ldr	r3, [r7, #12]
 800278c:	699b      	ldr	r3, [r3, #24]
 800278e:	617b      	str	r3, [r7, #20]
 8002790:	68fb      	ldr	r3, [r7, #12]
 8002792:	6a1b      	ldr	r3, [r3, #32]
 8002794:	613b      	str	r3, [r7, #16]
 8002796:	697b      	ldr	r3, [r7, #20]
 8002798:	f423 4370 	bic.w	r3, r3, #61440	; 0xf000
 800279c:	617b      	str	r3, [r7, #20]
 800279e:	687b      	ldr	r3, [r7, #4]
 80027a0:	031b      	lsls	r3, r3, #12
 80027a2:	697a      	ldr	r2, [r7, #20]
 80027a4:	4313      	orrs	r3, r2
 80027a6:	617b      	str	r3, [r7, #20]
 80027a8:	693b      	ldr	r3, [r7, #16]
 80027aa:	f023 03a0 	bic.w	r3, r3, #160	; 0xa0
 80027ae:	613b      	str	r3, [r7, #16]
 80027b0:	68bb      	ldr	r3, [r7, #8]
 80027b2:	011b      	lsls	r3, r3, #4
 80027b4:	693a      	ldr	r2, [r7, #16]
 80027b6:	4313      	orrs	r3, r2
 80027b8:	613b      	str	r3, [r7, #16]
 80027ba:	68fb      	ldr	r3, [r7, #12]
 80027bc:	697a      	ldr	r2, [r7, #20]
 80027be:	619a      	str	r2, [r3, #24]
 80027c0:	68fb      	ldr	r3, [r7, #12]
 80027c2:	693a      	ldr	r2, [r7, #16]
 80027c4:	621a      	str	r2, [r3, #32]
 80027c6:	bf00      	nop
 80027c8:	371c      	adds	r7, #28
 80027ca:	46bd      	mov	sp, r7
 80027cc:	f85d 7b04 	ldr.w	r7, [sp], #4
 80027d0:	4770      	bx	lr

080027d2 <TIM_ITRx_SetConfig>:
 80027d2:	b480      	push	{r7}
 80027d4:	b085      	sub	sp, #20
 80027d6:	af00      	add	r7, sp, #0
 80027d8:	6078      	str	r0, [r7, #4]
 80027da:	6039      	str	r1, [r7, #0]
 80027dc:	687b      	ldr	r3, [r7, #4]
 80027de:	689b      	ldr	r3, [r3, #8]
 80027e0:	60fb      	str	r3, [r7, #12]
 80027e2:	68fb      	ldr	r3, [r7, #12]
 80027e4:	f023 0370 	bic.w	r3, r3, #112	; 0x70
 80027e8:	60fb      	str	r3, [r7, #12]
 80027ea:	683a      	ldr	r2, [r7, #0]
 80027ec:	68fb      	ldr	r3, [r7, #12]
 80027ee:	4313      	orrs	r3, r2
 80027f0:	f043 0307 	orr.w	r3, r3, #7
 80027f4:	60fb      	str	r3, [r7, #12]
 80027f6:	687b      	ldr	r3, [r7, #4]
 80027f8:	68fa      	ldr	r2, [r7, #12]
 80027fa:	609a      	str	r2, [r3, #8]
 80027fc:	bf00      	nop
 80027fe:	3714      	adds	r7, #20
 8002800:	46bd      	mov	sp, r7
 8002802:	f85d 7b04 	ldr.w	r7, [sp], #4
 8002806:	4770      	bx	lr

08002808 <TIM_ETR_SetConfig>:
 8002808:	b480      	push	{r7}
 800280a:	b087      	sub	sp, #28
 800280c:	af00      	add	r7, sp, #0
 800280e:	60f8      	str	r0, [r7, #12]
 8002810:	60b9      	str	r1, [r7, #8]
 8002812:	607a      	str	r2, [r7, #4]
 8002814:	603b      	str	r3, [r7, #0]
 8002816:	68fb      	ldr	r3, [r7, #12]
 8002818:	689b      	ldr	r3, [r3, #8]
 800281a:	617b      	str	r3, [r7, #20]
 800281c:	697b      	ldr	r3, [r7, #20]
 800281e:	f423 437f 	bic.w	r3, r3, #65280	; 0xff00
 8002822:	617b      	str	r3, [r7, #20]
 8002824:	683b      	ldr	r3, [r7, #0]
 8002826:	021a      	lsls	r2, r3, #8
 8002828:	687b      	ldr	r3, [r7, #4]
 800282a:	431a      	orrs	r2, r3
 800282c:	68bb      	ldr	r3, [r7, #8]
 800282e:	4313      	orrs	r3, r2
 8002830:	697a      	ldr	r2, [r7, #20]
 8002832:	4313      	orrs	r3, r2
 8002834:	617b      	str	r3, [r7, #20]
 8002836:	68fb      	ldr	r3, [r7, #12]
 8002838:	697a      	ldr	r2, [r7, #20]
 800283a:	609a      	str	r2, [r3, #8]
 800283c:	bf00      	nop
 800283e:	371c      	adds	r7, #28
 8002840:	46bd      	mov	sp, r7
 8002842:	f85d 7b04 	ldr.w	r7, [sp], #4
 8002846:	4770      	bx	lr

08002848 <HAL_TIMEx_MasterConfigSynchronization>:
 8002848:	b480      	push	{r7}
 800284a:	b085      	sub	sp, #20
 800284c:	af00      	add	r7, sp, #0
 800284e:	6078      	str	r0, [r7, #4]
 8002850:	6039      	str	r1, [r7, #0]
 8002852:	687b      	ldr	r3, [r7, #4]
 8002854:	f893 303c 	ldrb.w	r3, [r3, #60]	; 0x3c
 8002858:	2b01      	cmp	r3, #1
 800285a:	d101      	bne.n	8002860 <HAL_TIMEx_MasterConfigSynchronization+0x18>
 800285c:	2302      	movs	r3, #2
 800285e:	e050      	b.n	8002902 <HAL_TIMEx_MasterConfigSynchronization+0xba>
 8002860:	687b      	ldr	r3, [r7, #4]
 8002862:	2201      	movs	r2, #1
 8002864:	f883 203c 	strb.w	r2, [r3, #60]	; 0x3c
 8002868:	687b      	ldr	r3, [r7, #4]
 800286a:	2202      	movs	r2, #2
 800286c:	f883 203d 	strb.w	r2, [r3, #61]	; 0x3d
 8002870:	687b      	ldr	r3, [r7, #4]
 8002872:	681b      	ldr	r3, [r3, #0]
 8002874:	685b      	ldr	r3, [r3, #4]
 8002876:	60fb      	str	r3, [r7, #12]
 8002878:	687b      	ldr	r3, [r7, #4]
 800287a:	681b      	ldr	r3, [r3, #0]
 800287c:	689b      	ldr	r3, [r3, #8]
 800287e:	60bb      	str	r3, [r7, #8]
 8002880:	68fb      	ldr	r3, [r7, #12]
 8002882:	f023 0370 	bic.w	r3, r3, #112	; 0x70
 8002886:	60fb      	str	r3, [r7, #12]
 8002888:	683b      	ldr	r3, [r7, #0]
 800288a:	681b      	ldr	r3, [r3, #0]
 800288c:	68fa      	ldr	r2, [r7, #12]
 800288e:	4313      	orrs	r3, r2
 8002890:	60fb      	str	r3, [r7, #12]
 8002892:	687b      	ldr	r3, [r7, #4]
 8002894:	681b      	ldr	r3, [r3, #0]
 8002896:	68fa      	ldr	r2, [r7, #12]
 8002898:	605a      	str	r2, [r3, #4]
 800289a:	687b      	ldr	r3, [r7, #4]
 800289c:	681b      	ldr	r3, [r3, #0]
 800289e:	4a1c      	ldr	r2, [pc, #112]	; (8002910 <HAL_TIMEx_MasterConfigSynchronization+0xc8>)
 80028a0:	4293      	cmp	r3, r2
 80028a2:	d018      	beq.n	80028d6 <HAL_TIMEx_MasterConfigSynchronization+0x8e>
 80028a4:	687b      	ldr	r3, [r7, #4]
 80028a6:	681b      	ldr	r3, [r3, #0]
 80028a8:	f1b3 4f80 	cmp.w	r3, #1073741824	; 0x40000000
 80028ac:	d013      	beq.n	80028d6 <HAL_TIMEx_MasterConfigSynchronization+0x8e>
 80028ae:	687b      	ldr	r3, [r7, #4]
 80028b0:	681b      	ldr	r3, [r3, #0]
 80028b2:	4a18      	ldr	r2, [pc, #96]	; (8002914 <HAL_TIMEx_MasterConfigSynchronization+0xcc>)
 80028b4:	4293      	cmp	r3, r2
 80028b6:	d00e      	beq.n	80028d6 <HAL_TIMEx_MasterConfigSynchronization+0x8e>
 80028b8:	687b      	ldr	r3, [r7, #4]
 80028ba:	681b      	ldr	r3, [r3, #0]
 80028bc:	4a16      	ldr	r2, [pc, #88]	; (8002918 <HAL_TIMEx_MasterConfigSynchronization+0xd0>)
 80028be:	4293      	cmp	r3, r2
 80028c0:	d009      	beq.n	80028d6 <HAL_TIMEx_MasterConfigSynchronization+0x8e>
 80028c2:	687b      	ldr	r3, [r7, #4]
 80028c4:	681b      	ldr	r3, [r3, #0]
 80028c6:	4a15      	ldr	r2, [pc, #84]	; (800291c <HAL_TIMEx_MasterConfigSynchronization+0xd4>)
 80028c8:	4293      	cmp	r3, r2
 80028ca:	d004      	beq.n	80028d6 <HAL_TIMEx_MasterConfigSynchronization+0x8e>
 80028cc:	687b      	ldr	r3, [r7, #4]
 80028ce:	681b      	ldr	r3, [r3, #0]
 80028d0:	4a13      	ldr	r2, [pc, #76]	; (8002920 <HAL_TIMEx_MasterConfigSynchronization+0xd8>)
 80028d2:	4293      	cmp	r3, r2
 80028d4:	d10c      	bne.n	80028f0 <HAL_TIMEx_MasterConfigSynchronization+0xa8>
 80028d6:	68bb      	ldr	r3, [r7, #8]
 80028d8:	f023 0380 	bic.w	r3, r3, #128	; 0x80
 80028dc:	60bb      	str	r3, [r7, #8]
 80028de:	683b      	ldr	r3, [r7, #0]
 80028e0:	685b      	ldr	r3, [r3, #4]
 80028e2:	68ba      	ldr	r2, [r7, #8]
 80028e4:	4313      	orrs	r3, r2
 80028e6:	60bb      	str	r3, [r7, #8]
 80028e8:	687b      	ldr	r3, [r7, #4]
 80028ea:	681b      	ldr	r3, [r3, #0]
 80028ec:	68ba      	ldr	r2, [r7, #8]
 80028ee:	609a      	str	r2, [r3, #8]
 80028f0:	687b      	ldr	r3, [r7, #4]
 80028f2:	2201      	movs	r2, #1
 80028f4:	f883 203d 	strb.w	r2, [r3, #61]	; 0x3d
 80028f8:	687b      	ldr	r3, [r7, #4]
 80028fa:	2200      	movs	r2, #0
 80028fc:	f883 203c 	strb.w	r2, [r3, #60]	; 0x3c
 8002900:	2300      	movs	r3, #0
 8002902:	4618      	mov	r0, r3
 8002904:	3714      	adds	r7, #20
 8002906:	46bd      	mov	sp, r7
 8002908:	f85d 7b04 	ldr.w	r7, [sp], #4
 800290c:	4770      	bx	lr
 800290e:	bf00      	nop
 8002910:	40010000 	.word	0x40010000
 8002914:	40000400 	.word	0x40000400
 8002918:	40000800 	.word	0x40000800
 800291c:	40000c00 	.word	0x40000c00
 8002920:	40014000 	.word	0x40014000

08002924 <HAL_TIMEx_CommutCallback>:
 8002924:	b480      	push	{r7}
 8002926:	b083      	sub	sp, #12
 8002928:	af00      	add	r7, sp, #0
 800292a:	6078      	str	r0, [r7, #4]
 800292c:	bf00      	nop
 800292e:	370c      	adds	r7, #12
 8002930:	46bd      	mov	sp, r7
 8002932:	f85d 7b04 	ldr.w	r7, [sp], #4
 8002936:	4770      	bx	lr

08002938 <HAL_TIMEx_BreakCallback>:
 8002938:	b480      	push	{r7}
 800293a:	b083      	sub	sp, #12
 800293c:	af00      	add	r7, sp, #0
 800293e:	6078      	str	r0, [r7, #4]
 8002940:	bf00      	nop
 8002942:	370c      	adds	r7, #12
 8002944:	46bd      	mov	sp, r7
 8002946:	f85d 7b04 	ldr.w	r7, [sp], #4
 800294a:	4770      	bx	lr

0800294c <HAL_UART_Init>:
 800294c:	b580      	push	{r7, lr}
 800294e:	b082      	sub	sp, #8
 8002950:	af00      	add	r7, sp, #0
 8002952:	6078      	str	r0, [r7, #4]
 8002954:	687b      	ldr	r3, [r7, #4]
 8002956:	2b00      	cmp	r3, #0
 8002958:	d101      	bne.n	800295e <HAL_UART_Init+0x12>
 800295a:	2301      	movs	r3, #1
 800295c:	e03f      	b.n	80029de <HAL_UART_Init+0x92>
 800295e:	687b      	ldr	r3, [r7, #4]
 8002960:	f893 303d 	ldrb.w	r3, [r3, #61]	; 0x3d
 8002964:	b2db      	uxtb	r3, r3
 8002966:	2b00      	cmp	r3, #0
 8002968:	d106      	bne.n	8002978 <HAL_UART_Init+0x2c>
 800296a:	687b      	ldr	r3, [r7, #4]
 800296c:	2200      	movs	r2, #0
 800296e:	f883 203c 	strb.w	r2, [r3, #60]	; 0x3c
 8002972:	6878      	ldr	r0, [r7, #4]
 8002974:	f7fe fa2e 	bl	8000dd4 <HAL_UART_MspInit>
 8002978:	687b      	ldr	r3, [r7, #4]
 800297a:	2224      	movs	r2, #36	; 0x24
 800297c:	f883 203d 	strb.w	r2, [r3, #61]	; 0x3d
 8002980:	687b      	ldr	r3, [r7, #4]
 8002982:	681b      	ldr	r3, [r3, #0]
 8002984:	68da      	ldr	r2, [r3, #12]
 8002986:	687b      	ldr	r3, [r7, #4]
 8002988:	681b      	ldr	r3, [r3, #0]
 800298a:	f422 5200 	bic.w	r2, r2, #8192	; 0x2000
 800298e:	60da      	str	r2, [r3, #12]
 8002990:	6878      	ldr	r0, [r7, #4]
 8002992:	f000 f929 	bl	8002be8 <UART_SetConfig>
 8002996:	687b      	ldr	r3, [r7, #4]
 8002998:	681b      	ldr	r3, [r3, #0]
 800299a:	691a      	ldr	r2, [r3, #16]
 800299c:	687b      	ldr	r3, [r7, #4]
 800299e:	681b      	ldr	r3, [r3, #0]
 80029a0:	f422 4290 	bic.w	r2, r2, #18432	; 0x4800
 80029a4:	611a      	str	r2, [r3, #16]
 80029a6:	687b      	ldr	r3, [r7, #4]
 80029a8:	681b      	ldr	r3, [r3, #0]
 80029aa:	695a      	ldr	r2, [r3, #20]
 80029ac:	687b      	ldr	r3, [r7, #4]
 80029ae:	681b      	ldr	r3, [r3, #0]
 80029b0:	f022 022a 	bic.w	r2, r2, #42	; 0x2a
 80029b4:	615a      	str	r2, [r3, #20]
 80029b6:	687b      	ldr	r3, [r7, #4]
 80029b8:	681b      	ldr	r3, [r3, #0]
 80029ba:	68da      	ldr	r2, [r3, #12]
 80029bc:	687b      	ldr	r3, [r7, #4]
 80029be:	681b      	ldr	r3, [r3, #0]
 80029c0:	f442 5200 	orr.w	r2, r2, #8192	; 0x2000
 80029c4:	60da      	str	r2, [r3, #12]
 80029c6:	687b      	ldr	r3, [r7, #4]
 80029c8:	2200      	movs	r2, #0
 80029ca:	641a      	str	r2, [r3, #64]	; 0x40
 80029cc:	687b      	ldr	r3, [r7, #4]
 80029ce:	2220      	movs	r2, #32
 80029d0:	f883 203d 	strb.w	r2, [r3, #61]	; 0x3d
 80029d4:	687b      	ldr	r3, [r7, #4]
 80029d6:	2220      	movs	r2, #32
 80029d8:	f883 203e 	strb.w	r2, [r3, #62]	; 0x3e
 80029dc:	2300      	movs	r3, #0
 80029de:	4618      	mov	r0, r3
 80029e0:	3708      	adds	r7, #8
 80029e2:	46bd      	mov	sp, r7
 80029e4:	bd80      	pop	{r7, pc}

080029e6 <HAL_UART_Transmit>:
 80029e6:	b580      	push	{r7, lr}
 80029e8:	b08a      	sub	sp, #40	; 0x28
 80029ea:	af02      	add	r7, sp, #8
 80029ec:	60f8      	str	r0, [r7, #12]
 80029ee:	60b9      	str	r1, [r7, #8]
 80029f0:	603b      	str	r3, [r7, #0]
 80029f2:	4613      	mov	r3, r2
 80029f4:	80fb      	strh	r3, [r7, #6]
 80029f6:	2300      	movs	r3, #0
 80029f8:	617b      	str	r3, [r7, #20]
 80029fa:	68fb      	ldr	r3, [r7, #12]
 80029fc:	f893 303d 	ldrb.w	r3, [r3, #61]	; 0x3d
 8002a00:	b2db      	uxtb	r3, r3
 8002a02:	2b20      	cmp	r3, #32
 8002a04:	d17c      	bne.n	8002b00 <HAL_UART_Transmit+0x11a>
 8002a06:	68bb      	ldr	r3, [r7, #8]
 8002a08:	2b00      	cmp	r3, #0
 8002a0a:	d002      	beq.n	8002a12 <HAL_UART_Transmit+0x2c>
 8002a0c:	88fb      	ldrh	r3, [r7, #6]
 8002a0e:	2b00      	cmp	r3, #0
 8002a10:	d101      	bne.n	8002a16 <HAL_UART_Transmit+0x30>
 8002a12:	2301      	movs	r3, #1
 8002a14:	e075      	b.n	8002b02 <HAL_UART_Transmit+0x11c>
 8002a16:	68fb      	ldr	r3, [r7, #12]
 8002a18:	f893 303c 	ldrb.w	r3, [r3, #60]	; 0x3c
 8002a1c:	2b01      	cmp	r3, #1
 8002a1e:	d101      	bne.n	8002a24 <HAL_UART_Transmit+0x3e>
 8002a20:	2302      	movs	r3, #2
 8002a22:	e06e      	b.n	8002b02 <HAL_UART_Transmit+0x11c>
 8002a24:	68fb      	ldr	r3, [r7, #12]
 8002a26:	2201      	movs	r2, #1
 8002a28:	f883 203c 	strb.w	r2, [r3, #60]	; 0x3c
 8002a2c:	68fb      	ldr	r3, [r7, #12]
 8002a2e:	2200      	movs	r2, #0
 8002a30:	641a      	str	r2, [r3, #64]	; 0x40
 8002a32:	68fb      	ldr	r3, [r7, #12]
 8002a34:	2221      	movs	r2, #33	; 0x21
 8002a36:	f883 203d 	strb.w	r2, [r3, #61]	; 0x3d
 8002a3a:	f7fe fb73 	bl	8001124 <HAL_GetTick>
 8002a3e:	6178      	str	r0, [r7, #20]
 8002a40:	68fb      	ldr	r3, [r7, #12]
 8002a42:	88fa      	ldrh	r2, [r7, #6]
 8002a44:	849a      	strh	r2, [r3, #36]	; 0x24
 8002a46:	68fb      	ldr	r3, [r7, #12]
 8002a48:	88fa      	ldrh	r2, [r7, #6]
 8002a4a:	84da      	strh	r2, [r3, #38]	; 0x26
 8002a4c:	68fb      	ldr	r3, [r7, #12]
 8002a4e:	689b      	ldr	r3, [r3, #8]
 8002a50:	f5b3 5f80 	cmp.w	r3, #4096	; 0x1000
 8002a54:	d108      	bne.n	8002a68 <HAL_UART_Transmit+0x82>
 8002a56:	68fb      	ldr	r3, [r7, #12]
 8002a58:	691b      	ldr	r3, [r3, #16]
 8002a5a:	2b00      	cmp	r3, #0
 8002a5c:	d104      	bne.n	8002a68 <HAL_UART_Transmit+0x82>
 8002a5e:	2300      	movs	r3, #0
 8002a60:	61fb      	str	r3, [r7, #28]
 8002a62:	68bb      	ldr	r3, [r7, #8]
 8002a64:	61bb      	str	r3, [r7, #24]
 8002a66:	e003      	b.n	8002a70 <HAL_UART_Transmit+0x8a>
 8002a68:	68bb      	ldr	r3, [r7, #8]
 8002a6a:	61fb      	str	r3, [r7, #28]
 8002a6c:	2300      	movs	r3, #0
 8002a6e:	61bb      	str	r3, [r7, #24]
 8002a70:	68fb      	ldr	r3, [r7, #12]
 8002a72:	2200      	movs	r2, #0
 8002a74:	f883 203c 	strb.w	r2, [r3, #60]	; 0x3c
 8002a78:	e02a      	b.n	8002ad0 <HAL_UART_Transmit+0xea>
 8002a7a:	683b      	ldr	r3, [r7, #0]
 8002a7c:	9300      	str	r3, [sp, #0]
 8002a7e:	697b      	ldr	r3, [r7, #20]
 8002a80:	2200      	movs	r2, #0
 8002a82:	2180      	movs	r1, #128	; 0x80
 8002a84:	68f8      	ldr	r0, [r7, #12]
 8002a86:	f000 f840 	bl	8002b0a <UART_WaitOnFlagUntilTimeout>
 8002a8a:	4603      	mov	r3, r0
 8002a8c:	2b00      	cmp	r3, #0
 8002a8e:	d001      	beq.n	8002a94 <HAL_UART_Transmit+0xae>
 8002a90:	2303      	movs	r3, #3
 8002a92:	e036      	b.n	8002b02 <HAL_UART_Transmit+0x11c>
 8002a94:	69fb      	ldr	r3, [r7, #28]
 8002a96:	2b00      	cmp	r3, #0
 8002a98:	d10b      	bne.n	8002ab2 <HAL_UART_Transmit+0xcc>
 8002a9a:	69bb      	ldr	r3, [r7, #24]
 8002a9c:	881b      	ldrh	r3, [r3, #0]
 8002a9e:	461a      	mov	r2, r3
 8002aa0:	68fb      	ldr	r3, [r7, #12]
 8002aa2:	681b      	ldr	r3, [r3, #0]
 8002aa4:	f3c2 0208 	ubfx	r2, r2, #0, #9
 8002aa8:	605a      	str	r2, [r3, #4]
 8002aaa:	69bb      	ldr	r3, [r7, #24]
 8002aac:	3302      	adds	r3, #2
 8002aae:	61bb      	str	r3, [r7, #24]
 8002ab0:	e007      	b.n	8002ac2 <HAL_UART_Transmit+0xdc>
 8002ab2:	69fb      	ldr	r3, [r7, #28]
 8002ab4:	781a      	ldrb	r2, [r3, #0]
 8002ab6:	68fb      	ldr	r3, [r7, #12]
 8002ab8:	681b      	ldr	r3, [r3, #0]
 8002aba:	605a      	str	r2, [r3, #4]
 8002abc:	69fb      	ldr	r3, [r7, #28]
 8002abe:	3301      	adds	r3, #1
 8002ac0:	61fb      	str	r3, [r7, #28]
 8002ac2:	68fb      	ldr	r3, [r7, #12]
 8002ac4:	8cdb      	ldrh	r3, [r3, #38]	; 0x26
 8002ac6:	b29b      	uxth	r3, r3
 8002ac8:	3b01      	subs	r3, #1
 8002aca:	b29a      	uxth	r2, r3
 8002acc:	68fb      	ldr	r3, [r7, #12]
 8002ace:	84da      	strh	r2, [r3, #38]	; 0x26
 8002ad0:	68fb      	ldr	r3, [r7, #12]
 8002ad2:	8cdb      	ldrh	r3, [r3, #38]	; 0x26
 8002ad4:	b29b      	uxth	r3, r3
 8002ad6:	2b00      	cmp	r3, #0
 8002ad8:	d1cf      	bne.n	8002a7a <HAL_UART_Transmit+0x94>
 8002ada:	683b      	ldr	r3, [r7, #0]
 8002adc:	9300      	str	r3, [sp, #0]
 8002ade:	697b      	ldr	r3, [r7, #20]
 8002ae0:	2200      	movs	r2, #0
 8002ae2:	2140      	movs	r1, #64	; 0x40
 8002ae4:	68f8      	ldr	r0, [r7, #12]
 8002ae6:	f000 f810 	bl	8002b0a <UART_WaitOnFlagUntilTimeout>
 8002aea:	4603      	mov	r3, r0
 8002aec:	2b00      	cmp	r3, #0
 8002aee:	d001      	beq.n	8002af4 <HAL_UART_Transmit+0x10e>
 8002af0:	2303      	movs	r3, #3
 8002af2:	e006      	b.n	8002b02 <HAL_UART_Transmit+0x11c>
 8002af4:	68fb      	ldr	r3, [r7, #12]
 8002af6:	2220      	movs	r2, #32
 8002af8:	f883 203d 	strb.w	r2, [r3, #61]	; 0x3d
 8002afc:	2300      	movs	r3, #0
 8002afe:	e000      	b.n	8002b02 <HAL_UART_Transmit+0x11c>
 8002b00:	2302      	movs	r3, #2
 8002b02:	4618      	mov	r0, r3
 8002b04:	3720      	adds	r7, #32
 8002b06:	46bd      	mov	sp, r7
 8002b08:	bd80      	pop	{r7, pc}

08002b0a <UART_WaitOnFlagUntilTimeout>:
 8002b0a:	b580      	push	{r7, lr}
 8002b0c:	b090      	sub	sp, #64	; 0x40
 8002b0e:	af00      	add	r7, sp, #0
 8002b10:	60f8      	str	r0, [r7, #12]
 8002b12:	60b9      	str	r1, [r7, #8]
 8002b14:	603b      	str	r3, [r7, #0]
 8002b16:	4613      	mov	r3, r2
 8002b18:	71fb      	strb	r3, [r7, #7]
 8002b1a:	e050      	b.n	8002bbe <UART_WaitOnFlagUntilTimeout+0xb4>
 8002b1c:	6cbb      	ldr	r3, [r7, #72]	; 0x48
 8002b1e:	f1b3 3fff 	cmp.w	r3, #4294967295
 8002b22:	d04c      	beq.n	8002bbe <UART_WaitOnFlagUntilTimeout+0xb4>
 8002b24:	6cbb      	ldr	r3, [r7, #72]	; 0x48
 8002b26:	2b00      	cmp	r3, #0
 8002b28:	d007      	beq.n	8002b3a <UART_WaitOnFlagUntilTimeout+0x30>
 8002b2a:	f7fe fafb 	bl	8001124 <HAL_GetTick>
 8002b2e:	4602      	mov	r2, r0
 8002b30:	683b      	ldr	r3, [r7, #0]
 8002b32:	1ad3      	subs	r3, r2, r3
 8002b34:	6cba      	ldr	r2, [r7, #72]	; 0x48
 8002b36:	429a      	cmp	r2, r3
 8002b38:	d241      	bcs.n	8002bbe <UART_WaitOnFlagUntilTimeout+0xb4>
 8002b3a:	68fb      	ldr	r3, [r7, #12]
 8002b3c:	681b      	ldr	r3, [r3, #0]
 8002b3e:	330c      	adds	r3, #12
 8002b40:	62bb      	str	r3, [r7, #40]	; 0x28
 8002b42:	6abb      	ldr	r3, [r7, #40]	; 0x28
 8002b44:	e853 3f00 	ldrex	r3, [r3]
 8002b48:	627b      	str	r3, [r7, #36]	; 0x24
 8002b4a:	6a7b      	ldr	r3, [r7, #36]	; 0x24
 8002b4c:	f423 73d0 	bic.w	r3, r3, #416	; 0x1a0
 8002b50:	63fb      	str	r3, [r7, #60]	; 0x3c
 8002b52:	68fb      	ldr	r3, [r7, #12]
 8002b54:	681b      	ldr	r3, [r3, #0]
 8002b56:	330c      	adds	r3, #12
 8002b58:	6bfa      	ldr	r2, [r7, #60]	; 0x3c
 8002b5a:	637a      	str	r2, [r7, #52]	; 0x34
 8002b5c:	633b      	str	r3, [r7, #48]	; 0x30
 8002b5e:	6b39      	ldr	r1, [r7, #48]	; 0x30
 8002b60:	6b7a      	ldr	r2, [r7, #52]	; 0x34
 8002b62:	e841 2300 	strex	r3, r2, [r1]
 8002b66:	62fb      	str	r3, [r7, #44]	; 0x2c
 8002b68:	6afb      	ldr	r3, [r7, #44]	; 0x2c
 8002b6a:	2b00      	cmp	r3, #0
 8002b6c:	d1e5      	bne.n	8002b3a <UART_WaitOnFlagUntilTimeout+0x30>
 8002b6e:	68fb      	ldr	r3, [r7, #12]
 8002b70:	681b      	ldr	r3, [r3, #0]
 8002b72:	3314      	adds	r3, #20
 8002b74:	617b      	str	r3, [r7, #20]
 8002b76:	697b      	ldr	r3, [r7, #20]
 8002b78:	e853 3f00 	ldrex	r3, [r3]
 8002b7c:	613b      	str	r3, [r7, #16]
 8002b7e:	693b      	ldr	r3, [r7, #16]
 8002b80:	f023 0301 	bic.w	r3, r3, #1
 8002b84:	63bb      	str	r3, [r7, #56]	; 0x38
 8002b86:	68fb      	ldr	r3, [r7, #12]
 8002b88:	681b      	ldr	r3, [r3, #0]
 8002b8a:	3314      	adds	r3, #20
 8002b8c:	6bba      	ldr	r2, [r7, #56]	; 0x38
 8002b8e:	623a      	str	r2, [r7, #32]
 8002b90:	61fb      	str	r3, [r7, #28]
 8002b92:	69f9      	ldr	r1, [r7, #28]
 8002b94:	6a3a      	ldr	r2, [r7, #32]
 8002b96:	e841 2300 	strex	r3, r2, [r1]
 8002b9a:	61bb      	str	r3, [r7, #24]
 8002b9c:	69bb      	ldr	r3, [r7, #24]
 8002b9e:	2b00      	cmp	r3, #0
 8002ba0:	d1e5      	bne.n	8002b6e <UART_WaitOnFlagUntilTimeout+0x64>
 8002ba2:	68fb      	ldr	r3, [r7, #12]
 8002ba4:	2220      	movs	r2, #32
 8002ba6:	f883 203d 	strb.w	r2, [r3, #61]	; 0x3d
 8002baa:	68fb      	ldr	r3, [r7, #12]
 8002bac:	2220      	movs	r2, #32
 8002bae:	f883 203e 	strb.w	r2, [r3, #62]	; 0x3e
 8002bb2:	68fb      	ldr	r3, [r7, #12]
 8002bb4:	2200      	movs	r2, #0
 8002bb6:	f883 203c 	strb.w	r2, [r3, #60]	; 0x3c
 8002bba:	2303      	movs	r3, #3
 8002bbc:	e00f      	b.n	8002bde <UART_WaitOnFlagUntilTimeout+0xd4>
 8002bbe:	68fb      	ldr	r3, [r7, #12]
 8002bc0:	681b      	ldr	r3, [r3, #0]
 8002bc2:	681a      	ldr	r2, [r3, #0]
 8002bc4:	68bb      	ldr	r3, [r7, #8]
 8002bc6:	4013      	ands	r3, r2
 8002bc8:	68ba      	ldr	r2, [r7, #8]
 8002bca:	429a      	cmp	r2, r3
 8002bcc:	bf0c      	ite	eq
 8002bce:	2301      	moveq	r3, #1
 8002bd0:	2300      	movne	r3, #0
 8002bd2:	b2db      	uxtb	r3, r3
 8002bd4:	461a      	mov	r2, r3
 8002bd6:	79fb      	ldrb	r3, [r7, #7]
 8002bd8:	429a      	cmp	r2, r3
 8002bda:	d09f      	beq.n	8002b1c <UART_WaitOnFlagUntilTimeout+0x12>
 8002bdc:	2300      	movs	r3, #0
 8002bde:	4618      	mov	r0, r3
 8002be0:	3740      	adds	r7, #64	; 0x40
 8002be2:	46bd      	mov	sp, r7
 8002be4:	bd80      	pop	{r7, pc}
	...

08002be8 <UART_SetConfig>:
 8002be8:	e92d 4fb0 	stmdb	sp!, {r4, r5, r7, r8, r9, sl, fp, lr}
 8002bec:	b0c0      	sub	sp, #256	; 0x100
 8002bee:	af00      	add	r7, sp, #0
 8002bf0:	f8c7 00f4 	str.w	r0, [r7, #244]	; 0xf4
 8002bf4:	f8d7 30f4 	ldr.w	r3, [r7, #244]	; 0xf4
 8002bf8:	681b      	ldr	r3, [r3, #0]
 8002bfa:	691b      	ldr	r3, [r3, #16]
 8002bfc:	f423 5040 	bic.w	r0, r3, #12288	; 0x3000
 8002c00:	f8d7 30f4 	ldr.w	r3, [r7, #244]	; 0xf4
 8002c04:	68d9      	ldr	r1, [r3, #12]
 8002c06:	f8d7 30f4 	ldr.w	r3, [r7, #244]	; 0xf4
 8002c0a:	681a      	ldr	r2, [r3, #0]
 8002c0c:	ea40 0301 	orr.w	r3, r0, r1
 8002c10:	6113      	str	r3, [r2, #16]
 8002c12:	f8d7 30f4 	ldr.w	r3, [r7, #244]	; 0xf4
 8002c16:	689a      	ldr	r2, [r3, #8]
 8002c18:	f8d7 30f4 	ldr.w	r3, [r7, #244]	; 0xf4
 8002c1c:	691b      	ldr	r3, [r3, #16]
 8002c1e:	431a      	orrs	r2, r3
 8002c20:	f8d7 30f4 	ldr.w	r3, [r7, #244]	; 0xf4
 8002c24:	695b      	ldr	r3, [r3, #20]
 8002c26:	431a      	orrs	r2, r3
 8002c28:	f8d7 30f4 	ldr.w	r3, [r7, #244]	; 0xf4
 8002c2c:	69db      	ldr	r3, [r3, #28]
 8002c2e:	4313      	orrs	r3, r2
 8002c30:	f8c7 30f8 	str.w	r3, [r7, #248]	; 0xf8
 8002c34:	f8d7 30f4 	ldr.w	r3, [r7, #244]	; 0xf4
 8002c38:	681b      	ldr	r3, [r3, #0]
 8002c3a:	68db      	ldr	r3, [r3, #12]
 8002c3c:	f423 4116 	bic.w	r1, r3, #38400	; 0x9600
 8002c40:	f021 010c 	bic.w	r1, r1, #12
 8002c44:	f8d7 30f4 	ldr.w	r3, [r7, #244]	; 0xf4
 8002c48:	681a      	ldr	r2, [r3, #0]
 8002c4a:	f8d7 30f8 	ldr.w	r3, [r7, #248]	; 0xf8
 8002c4e:	430b      	orrs	r3, r1
 8002c50:	60d3      	str	r3, [r2, #12]
 8002c52:	f8d7 30f4 	ldr.w	r3, [r7, #244]	; 0xf4
 8002c56:	681b      	ldr	r3, [r3, #0]
 8002c58:	695b      	ldr	r3, [r3, #20]
 8002c5a:	f423 7040 	bic.w	r0, r3, #768	; 0x300
 8002c5e:	f8d7 30f4 	ldr.w	r3, [r7, #244]	; 0xf4
 8002c62:	6999      	ldr	r1, [r3, #24]
 8002c64:	f8d7 30f4 	ldr.w	r3, [r7, #244]	; 0xf4
 8002c68:	681a      	ldr	r2, [r3, #0]
 8002c6a:	ea40 0301 	orr.w	r3, r0, r1
 8002c6e:	6153      	str	r3, [r2, #20]
 8002c70:	f8d7 30f4 	ldr.w	r3, [r7, #244]	; 0xf4
 8002c74:	681a      	ldr	r2, [r3, #0]
 8002c76:	4b8f      	ldr	r3, [pc, #572]	; (8002eb4 <UART_SetConfig+0x2cc>)
 8002c78:	429a      	cmp	r2, r3
 8002c7a:	d005      	beq.n	8002c88 <UART_SetConfig+0xa0>
 8002c7c:	f8d7 30f4 	ldr.w	r3, [r7, #244]	; 0xf4
 8002c80:	681a      	ldr	r2, [r3, #0]
 8002c82:	4b8d      	ldr	r3, [pc, #564]	; (8002eb8 <UART_SetConfig+0x2d0>)
 8002c84:	429a      	cmp	r2, r3
 8002c86:	d104      	bne.n	8002c92 <UART_SetConfig+0xaa>
 8002c88:	f7ff f9a6 	bl	8001fd8 <HAL_RCC_GetPCLK2Freq>
 8002c8c:	f8c7 00fc 	str.w	r0, [r7, #252]	; 0xfc
 8002c90:	e003      	b.n	8002c9a <UART_SetConfig+0xb2>
 8002c92:	f7ff f98d 	bl	8001fb0 <HAL_RCC_GetPCLK1Freq>
 8002c96:	f8c7 00fc 	str.w	r0, [r7, #252]	; 0xfc
 8002c9a:	f8d7 30f4 	ldr.w	r3, [r7, #244]	; 0xf4
 8002c9e:	69db      	ldr	r3, [r3, #28]
 8002ca0:	f5b3 4f00 	cmp.w	r3, #32768	; 0x8000
 8002ca4:	f040 810c 	bne.w	8002ec0 <UART_SetConfig+0x2d8>
 8002ca8:	f8d7 30fc 	ldr.w	r3, [r7, #252]	; 0xfc
 8002cac:	2200      	movs	r2, #0
 8002cae:	f8c7 30e8 	str.w	r3, [r7, #232]	; 0xe8
 8002cb2:	f8c7 20ec 	str.w	r2, [r7, #236]	; 0xec
 8002cb6:	e9d7 453a 	ldrd	r4, r5, [r7, #232]	; 0xe8
 8002cba:	4622      	mov	r2, r4
 8002cbc:	462b      	mov	r3, r5
 8002cbe:	1891      	adds	r1, r2, r2
 8002cc0:	65b9      	str	r1, [r7, #88]	; 0x58
 8002cc2:	415b      	adcs	r3, r3
 8002cc4:	65fb      	str	r3, [r7, #92]	; 0x5c
 8002cc6:	e9d7 2316 	ldrd	r2, r3, [r7, #88]	; 0x58
 8002cca:	4621      	mov	r1, r4
 8002ccc:	eb12 0801 	adds.w	r8, r2, r1
 8002cd0:	4629      	mov	r1, r5
 8002cd2:	eb43 0901 	adc.w	r9, r3, r1
 8002cd6:	f04f 0200 	mov.w	r2, #0
 8002cda:	f04f 0300 	mov.w	r3, #0
 8002cde:	ea4f 03c9 	mov.w	r3, r9, lsl #3
 8002ce2:	ea43 7358 	orr.w	r3, r3, r8, lsr #29
 8002ce6:	ea4f 02c8 	mov.w	r2, r8, lsl #3
 8002cea:	4690      	mov	r8, r2
 8002cec:	4699      	mov	r9, r3
 8002cee:	4623      	mov	r3, r4
 8002cf0:	eb18 0303 	adds.w	r3, r8, r3
 8002cf4:	f8c7 30e0 	str.w	r3, [r7, #224]	; 0xe0
 8002cf8:	462b      	mov	r3, r5
 8002cfa:	eb49 0303 	adc.w	r3, r9, r3
 8002cfe:	f8c7 30e4 	str.w	r3, [r7, #228]	; 0xe4
 8002d02:	f8d7 30f4 	ldr.w	r3, [r7, #244]	; 0xf4
 8002d06:	685b      	ldr	r3, [r3, #4]
 8002d08:	2200      	movs	r2, #0
 8002d0a:	f8c7 30d8 	str.w	r3, [r7, #216]	; 0xd8
 8002d0e:	f8c7 20dc 	str.w	r2, [r7, #220]	; 0xdc
 8002d12:	e9d7 1236 	ldrd	r1, r2, [r7, #216]	; 0xd8
 8002d16:	460b      	mov	r3, r1
 8002d18:	18db      	adds	r3, r3, r3
 8002d1a:	653b      	str	r3, [r7, #80]	; 0x50
 8002d1c:	4613      	mov	r3, r2
 8002d1e:	eb42 0303 	adc.w	r3, r2, r3
 8002d22:	657b      	str	r3, [r7, #84]	; 0x54
 8002d24:	e9d7 2314 	ldrd	r2, r3, [r7, #80]	; 0x50
 8002d28:	e9d7 0138 	ldrd	r0, r1, [r7, #224]	; 0xe0
 8002d2c:	f7fd fab0 	bl	8000290 <__aeabi_uldivmod>
 8002d30:	4602      	mov	r2, r0
 8002d32:	460b      	mov	r3, r1
 8002d34:	4b61      	ldr	r3, [pc, #388]	; (8002ebc <UART_SetConfig+0x2d4>)
 8002d36:	fba3 2302 	umull	r2, r3, r3, r2
 8002d3a:	095b      	lsrs	r3, r3, #5
 8002d3c:	011c      	lsls	r4, r3, #4
 8002d3e:	f8d7 30fc 	ldr.w	r3, [r7, #252]	; 0xfc
 8002d42:	2200      	movs	r2, #0
 8002d44:	f8c7 30d0 	str.w	r3, [r7, #208]	; 0xd0
 8002d48:	f8c7 20d4 	str.w	r2, [r7, #212]	; 0xd4
 8002d4c:	e9d7 8934 	ldrd	r8, r9, [r7, #208]	; 0xd0
 8002d50:	4642      	mov	r2, r8
 8002d52:	464b      	mov	r3, r9
 8002d54:	1891      	adds	r1, r2, r2
 8002d56:	64b9      	str	r1, [r7, #72]	; 0x48
 8002d58:	415b      	adcs	r3, r3
 8002d5a:	64fb      	str	r3, [r7, #76]	; 0x4c
 8002d5c:	e9d7 2312 	ldrd	r2, r3, [r7, #72]	; 0x48
 8002d60:	4641      	mov	r1, r8
 8002d62:	eb12 0a01 	adds.w	sl, r2, r1
 8002d66:	4649      	mov	r1, r9
 8002d68:	eb43 0b01 	adc.w	fp, r3, r1
 8002d6c:	f04f 0200 	mov.w	r2, #0
 8002d70:	f04f 0300 	mov.w	r3, #0
 8002d74:	ea4f 03cb 	mov.w	r3, fp, lsl #3
 8002d78:	ea43 735a 	orr.w	r3, r3, sl, lsr #29
 8002d7c:	ea4f 02ca 	mov.w	r2, sl, lsl #3
 8002d80:	4692      	mov	sl, r2
 8002d82:	469b      	mov	fp, r3
 8002d84:	4643      	mov	r3, r8
 8002d86:	eb1a 0303 	adds.w	r3, sl, r3
 8002d8a:	f8c7 30c8 	str.w	r3, [r7, #200]	; 0xc8
 8002d8e:	464b      	mov	r3, r9
 8002d90:	eb4b 0303 	adc.w	r3, fp, r3
 8002d94:	f8c7 30cc 	str.w	r3, [r7, #204]	; 0xcc
 8002d98:	f8d7 30f4 	ldr.w	r3, [r7, #244]	; 0xf4
 8002d9c:	685b      	ldr	r3, [r3, #4]
 8002d9e:	2200      	movs	r2, #0
 8002da0:	f8c7 30c0 	str.w	r3, [r7, #192]	; 0xc0
 8002da4:	f8c7 20c4 	str.w	r2, [r7, #196]	; 0xc4
 8002da8:	e9d7 1230 	ldrd	r1, r2, [r7, #192]	; 0xc0
 8002dac:	460b      	mov	r3, r1
 8002dae:	18db      	adds	r3, r3, r3
 8002db0:	643b      	str	r3, [r7, #64]	; 0x40
 8002db2:	4613      	mov	r3, r2
 8002db4:	eb42 0303 	adc.w	r3, r2, r3
 8002db8:	647b      	str	r3, [r7, #68]	; 0x44
 8002dba:	e9d7 2310 	ldrd	r2, r3, [r7, #64]	; 0x40
 8002dbe:	e9d7 0132 	ldrd	r0, r1, [r7, #200]	; 0xc8
 8002dc2:	f7fd fa65 	bl	8000290 <__aeabi_uldivmod>
 8002dc6:	4602      	mov	r2, r0
 8002dc8:	460b      	mov	r3, r1
 8002dca:	4611      	mov	r1, r2
 8002dcc:	4b3b      	ldr	r3, [pc, #236]	; (8002ebc <UART_SetConfig+0x2d4>)
 8002dce:	fba3 2301 	umull	r2, r3, r3, r1
 8002dd2:	095b      	lsrs	r3, r3, #5
 8002dd4:	2264      	movs	r2, #100	; 0x64
 8002dd6:	fb02 f303 	mul.w	r3, r2, r3
 8002dda:	1acb      	subs	r3, r1, r3
 8002ddc:	00db      	lsls	r3, r3, #3
 8002dde:	f103 0232 	add.w	r2, r3, #50	; 0x32
 8002de2:	4b36      	ldr	r3, [pc, #216]	; (8002ebc <UART_SetConfig+0x2d4>)
 8002de4:	fba3 2302 	umull	r2, r3, r3, r2
 8002de8:	095b      	lsrs	r3, r3, #5
 8002dea:	005b      	lsls	r3, r3, #1
 8002dec:	f403 73f8 	and.w	r3, r3, #496	; 0x1f0
 8002df0:	441c      	add	r4, r3
 8002df2:	f8d7 30fc 	ldr.w	r3, [r7, #252]	; 0xfc
 8002df6:	2200      	movs	r2, #0
 8002df8:	f8c7 30b8 	str.w	r3, [r7, #184]	; 0xb8
 8002dfc:	f8c7 20bc 	str.w	r2, [r7, #188]	; 0xbc
 8002e00:	e9d7 892e 	ldrd	r8, r9, [r7, #184]	; 0xb8
 8002e04:	4642      	mov	r2, r8
 8002e06:	464b      	mov	r3, r9
 8002e08:	1891      	adds	r1, r2, r2
 8002e0a:	63b9      	str	r1, [r7, #56]	; 0x38
 8002e0c:	415b      	adcs	r3, r3
 8002e0e:	63fb      	str	r3, [r7, #60]	; 0x3c
 8002e10:	e9d7 230e 	ldrd	r2, r3, [r7, #56]	; 0x38
 8002e14:	4641      	mov	r1, r8
 8002e16:	1851      	adds	r1, r2, r1
 8002e18:	6339      	str	r1, [r7, #48]	; 0x30
 8002e1a:	4649      	mov	r1, r9
 8002e1c:	414b      	adcs	r3, r1
 8002e1e:	637b      	str	r3, [r7, #52]	; 0x34
 8002e20:	f04f 0200 	mov.w	r2, #0
 8002e24:	f04f 0300 	mov.w	r3, #0
 8002e28:	e9d7 ab0c 	ldrd	sl, fp, [r7, #48]	; 0x30
 8002e2c:	4659      	mov	r1, fp
 8002e2e:	00cb      	lsls	r3, r1, #3
 8002e30:	4651      	mov	r1, sl
 8002e32:	ea43 7351 	orr.w	r3, r3, r1, lsr #29
 8002e36:	4651      	mov	r1, sl
 8002e38:	00ca      	lsls	r2, r1, #3
 8002e3a:	4610      	mov	r0, r2
 8002e3c:	4619      	mov	r1, r3
 8002e3e:	4603      	mov	r3, r0
 8002e40:	4642      	mov	r2, r8
 8002e42:	189b      	adds	r3, r3, r2
 8002e44:	f8c7 30b0 	str.w	r3, [r7, #176]	; 0xb0
 8002e48:	464b      	mov	r3, r9
 8002e4a:	460a      	mov	r2, r1
 8002e4c:	eb42 0303 	adc.w	r3, r2, r3
 8002e50:	f8c7 30b4 	str.w	r3, [r7, #180]	; 0xb4
 8002e54:	f8d7 30f4 	ldr.w	r3, [r7, #244]	; 0xf4
 8002e58:	685b      	ldr	r3, [r3, #4]
 8002e5a:	2200      	movs	r2, #0
 8002e5c:	f8c7 30a8 	str.w	r3, [r7, #168]	; 0xa8
 8002e60:	f8c7 20ac 	str.w	r2, [r7, #172]	; 0xac
 8002e64:	e9d7 122a 	ldrd	r1, r2, [r7, #168]	; 0xa8
 8002e68:	460b      	mov	r3, r1
 8002e6a:	18db      	adds	r3, r3, r3
 8002e6c:	62bb      	str	r3, [r7, #40]	; 0x28
 8002e6e:	4613      	mov	r3, r2
 8002e70:	eb42 0303 	adc.w	r3, r2, r3
 8002e74:	62fb      	str	r3, [r7, #44]	; 0x2c
 8002e76:	e9d7 230a 	ldrd	r2, r3, [r7, #40]	; 0x28
 8002e7a:	e9d7 012c 	ldrd	r0, r1, [r7, #176]	; 0xb0
 8002e7e:	f7fd fa07 	bl	8000290 <__aeabi_uldivmod>
 8002e82:	4602      	mov	r2, r0
 8002e84:	460b      	mov	r3, r1
 8002e86:	4b0d      	ldr	r3, [pc, #52]	; (8002ebc <UART_SetConfig+0x2d4>)
 8002e88:	fba3 1302 	umull	r1, r3, r3, r2
 8002e8c:	095b      	lsrs	r3, r3, #5
 8002e8e:	2164      	movs	r1, #100	; 0x64
 8002e90:	fb01 f303 	mul.w	r3, r1, r3
 8002e94:	1ad3      	subs	r3, r2, r3
 8002e96:	00db      	lsls	r3, r3, #3
 8002e98:	3332      	adds	r3, #50	; 0x32
 8002e9a:	4a08      	ldr	r2, [pc, #32]	; (8002ebc <UART_SetConfig+0x2d4>)
 8002e9c:	fba2 2303 	umull	r2, r3, r2, r3
 8002ea0:	095b      	lsrs	r3, r3, #5
 8002ea2:	f003 0207 	and.w	r2, r3, #7
 8002ea6:	f8d7 30f4 	ldr.w	r3, [r7, #244]	; 0xf4
 8002eaa:	681b      	ldr	r3, [r3, #0]
 8002eac:	4422      	add	r2, r4
 8002eae:	609a      	str	r2, [r3, #8]
 8002eb0:	e105      	b.n	80030be <UART_SetConfig+0x4d6>
 8002eb2:	bf00      	nop
 8002eb4:	40011000 	.word	0x40011000
 8002eb8:	40011400 	.word	0x40011400
 8002ebc:	51eb851f 	.word	0x51eb851f
 8002ec0:	f8d7 30fc 	ldr.w	r3, [r7, #252]	; 0xfc
 8002ec4:	2200      	movs	r2, #0
 8002ec6:	f8c7 30a0 	str.w	r3, [r7, #160]	; 0xa0
 8002eca:	f8c7 20a4 	str.w	r2, [r7, #164]	; 0xa4
 8002ece:	e9d7 8928 	ldrd	r8, r9, [r7, #160]	; 0xa0
 8002ed2:	4642      	mov	r2, r8
 8002ed4:	464b      	mov	r3, r9
 8002ed6:	1891      	adds	r1, r2, r2
 8002ed8:	6239      	str	r1, [r7, #32]
 8002eda:	415b      	adcs	r3, r3
 8002edc:	627b      	str	r3, [r7, #36]	; 0x24
 8002ede:	e9d7 2308 	ldrd	r2, r3, [r7, #32]
 8002ee2:	4641      	mov	r1, r8
 8002ee4:	1854      	adds	r4, r2, r1
 8002ee6:	4649      	mov	r1, r9
 8002ee8:	eb43 0501 	adc.w	r5, r3, r1
 8002eec:	f04f 0200 	mov.w	r2, #0
 8002ef0:	f04f 0300 	mov.w	r3, #0
 8002ef4:	00eb      	lsls	r3, r5, #3
 8002ef6:	ea43 7354 	orr.w	r3, r3, r4, lsr #29
 8002efa:	00e2      	lsls	r2, r4, #3
 8002efc:	4614      	mov	r4, r2
 8002efe:	461d      	mov	r5, r3
 8002f00:	4643      	mov	r3, r8
 8002f02:	18e3      	adds	r3, r4, r3
 8002f04:	f8c7 3098 	str.w	r3, [r7, #152]	; 0x98
 8002f08:	464b      	mov	r3, r9
 8002f0a:	eb45 0303 	adc.w	r3, r5, r3
 8002f0e:	f8c7 309c 	str.w	r3, [r7, #156]	; 0x9c
 8002f12:	f8d7 30f4 	ldr.w	r3, [r7, #244]	; 0xf4
 8002f16:	685b      	ldr	r3, [r3, #4]
 8002f18:	2200      	movs	r2, #0
 8002f1a:	f8c7 3090 	str.w	r3, [r7, #144]	; 0x90
 8002f1e:	f8c7 2094 	str.w	r2, [r7, #148]	; 0x94
 8002f22:	f04f 0200 	mov.w	r2, #0
 8002f26:	f04f 0300 	mov.w	r3, #0
 8002f2a:	e9d7 4524 	ldrd	r4, r5, [r7, #144]	; 0x90
 8002f2e:	4629      	mov	r1, r5
 8002f30:	008b      	lsls	r3, r1, #2
 8002f32:	4621      	mov	r1, r4
 8002f34:	ea43 7391 	orr.w	r3, r3, r1, lsr #30
 8002f38:	4621      	mov	r1, r4
 8002f3a:	008a      	lsls	r2, r1, #2
 8002f3c:	e9d7 0126 	ldrd	r0, r1, [r7, #152]	; 0x98
 8002f40:	f7fd f9a6 	bl	8000290 <__aeabi_uldivmod>
 8002f44:	4602      	mov	r2, r0
 8002f46:	460b      	mov	r3, r1
 8002f48:	4b60      	ldr	r3, [pc, #384]	; (80030cc <UART_SetConfig+0x4e4>)
 8002f4a:	fba3 2302 	umull	r2, r3, r3, r2
 8002f4e:	095b      	lsrs	r3, r3, #5
 8002f50:	011c      	lsls	r4, r3, #4
 8002f52:	f8d7 30fc 	ldr.w	r3, [r7, #252]	; 0xfc
 8002f56:	2200      	movs	r2, #0
 8002f58:	f8c7 3088 	str.w	r3, [r7, #136]	; 0x88
 8002f5c:	f8c7 208c 	str.w	r2, [r7, #140]	; 0x8c
 8002f60:	e9d7 8922 	ldrd	r8, r9, [r7, #136]	; 0x88
 8002f64:	4642      	mov	r2, r8
 8002f66:	464b      	mov	r3, r9
 8002f68:	1891      	adds	r1, r2, r2
 8002f6a:	61b9      	str	r1, [r7, #24]
 8002f6c:	415b      	adcs	r3, r3
 8002f6e:	61fb      	str	r3, [r7, #28]
 8002f70:	e9d7 2306 	ldrd	r2, r3, [r7, #24]
 8002f74:	4641      	mov	r1, r8
 8002f76:	1851      	adds	r1, r2, r1
 8002f78:	6139      	str	r1, [r7, #16]
 8002f7a:	4649      	mov	r1, r9
 8002f7c:	414b      	adcs	r3, r1
 8002f7e:	617b      	str	r3, [r7, #20]
 8002f80:	f04f 0200 	mov.w	r2, #0
 8002f84:	f04f 0300 	mov.w	r3, #0
 8002f88:	e9d7 ab04 	ldrd	sl, fp, [r7, #16]
 8002f8c:	4659      	mov	r1, fp
 8002f8e:	00cb      	lsls	r3, r1, #3
 8002f90:	4651      	mov	r1, sl
 8002f92:	ea43 7351 	orr.w	r3, r3, r1, lsr #29
 8002f96:	4651      	mov	r1, sl
 8002f98:	00ca      	lsls	r2, r1, #3
 8002f9a:	4610      	mov	r0, r2
 8002f9c:	4619      	mov	r1, r3
 8002f9e:	4603      	mov	r3, r0
 8002fa0:	4642      	mov	r2, r8
 8002fa2:	189b      	adds	r3, r3, r2
 8002fa4:	f8c7 3080 	str.w	r3, [r7, #128]	; 0x80
 8002fa8:	464b      	mov	r3, r9
 8002faa:	460a      	mov	r2, r1
 8002fac:	eb42 0303 	adc.w	r3, r2, r3
 8002fb0:	f8c7 3084 	str.w	r3, [r7, #132]	; 0x84
 8002fb4:	f8d7 30f4 	ldr.w	r3, [r7, #244]	; 0xf4
 8002fb8:	685b      	ldr	r3, [r3, #4]
 8002fba:	2200      	movs	r2, #0
 8002fbc:	67bb      	str	r3, [r7, #120]	; 0x78
 8002fbe:	67fa      	str	r2, [r7, #124]	; 0x7c
 8002fc0:	f04f 0200 	mov.w	r2, #0
 8002fc4:	f04f 0300 	mov.w	r3, #0
 8002fc8:	e9d7 891e 	ldrd	r8, r9, [r7, #120]	; 0x78
 8002fcc:	4649      	mov	r1, r9
 8002fce:	008b      	lsls	r3, r1, #2
 8002fd0:	4641      	mov	r1, r8
 8002fd2:	ea43 7391 	orr.w	r3, r3, r1, lsr #30
 8002fd6:	4641      	mov	r1, r8
 8002fd8:	008a      	lsls	r2, r1, #2
 8002fda:	e9d7 0120 	ldrd	r0, r1, [r7, #128]	; 0x80
 8002fde:	f7fd f957 	bl	8000290 <__aeabi_uldivmod>
 8002fe2:	4602      	mov	r2, r0
 8002fe4:	460b      	mov	r3, r1
 8002fe6:	4b39      	ldr	r3, [pc, #228]	; (80030cc <UART_SetConfig+0x4e4>)
 8002fe8:	fba3 1302 	umull	r1, r3, r3, r2
 8002fec:	095b      	lsrs	r3, r3, #5
 8002fee:	2164      	movs	r1, #100	; 0x64
 8002ff0:	fb01 f303 	mul.w	r3, r1, r3
 8002ff4:	1ad3      	subs	r3, r2, r3
 8002ff6:	011b      	lsls	r3, r3, #4
 8002ff8:	3332      	adds	r3, #50	; 0x32
 8002ffa:	4a34      	ldr	r2, [pc, #208]	; (80030cc <UART_SetConfig+0x4e4>)
 8002ffc:	fba2 2303 	umull	r2, r3, r2, r3
 8003000:	095b      	lsrs	r3, r3, #5
 8003002:	f003 03f0 	and.w	r3, r3, #240	; 0xf0
 8003006:	441c      	add	r4, r3
 8003008:	f8d7 30fc 	ldr.w	r3, [r7, #252]	; 0xfc
 800300c:	2200      	movs	r2, #0
 800300e:	673b      	str	r3, [r7, #112]	; 0x70
 8003010:	677a      	str	r2, [r7, #116]	; 0x74
 8003012:	e9d7 891c 	ldrd	r8, r9, [r7, #112]	; 0x70
 8003016:	4642      	mov	r2, r8
 8003018:	464b      	mov	r3, r9
 800301a:	1891      	adds	r1, r2, r2
 800301c:	60b9      	str	r1, [r7, #8]
 800301e:	415b      	adcs	r3, r3
 8003020:	60fb      	str	r3, [r7, #12]
 8003022:	e9d7 2302 	ldrd	r2, r3, [r7, #8]
 8003026:	4641      	mov	r1, r8
 8003028:	1851      	adds	r1, r2, r1
 800302a:	6039      	str	r1, [r7, #0]
 800302c:	4649      	mov	r1, r9
 800302e:	414b      	adcs	r3, r1
 8003030:	607b      	str	r3, [r7, #4]
 8003032:	f04f 0200 	mov.w	r2, #0
 8003036:	f04f 0300 	mov.w	r3, #0
 800303a:	e9d7 ab00 	ldrd	sl, fp, [r7]
 800303e:	4659      	mov	r1, fp
 8003040:	00cb      	lsls	r3, r1, #3
 8003042:	4651      	mov	r1, sl
 8003044:	ea43 7351 	orr.w	r3, r3, r1, lsr #29
 8003048:	4651      	mov	r1, sl
 800304a:	00ca      	lsls	r2, r1, #3
 800304c:	4610      	mov	r0, r2
 800304e:	4619      	mov	r1, r3
 8003050:	4603      	mov	r3, r0
 8003052:	4642      	mov	r2, r8
 8003054:	189b      	adds	r3, r3, r2
 8003056:	66bb      	str	r3, [r7, #104]	; 0x68
 8003058:	464b      	mov	r3, r9
 800305a:	460a      	mov	r2, r1
 800305c:	eb42 0303 	adc.w	r3, r2, r3
 8003060:	66fb      	str	r3, [r7, #108]	; 0x6c
 8003062:	f8d7 30f4 	ldr.w	r3, [r7, #244]	; 0xf4
 8003066:	685b      	ldr	r3, [r3, #4]
 8003068:	2200      	movs	r2, #0
 800306a:	663b      	str	r3, [r7, #96]	; 0x60
 800306c:	667a      	str	r2, [r7, #100]	; 0x64
 800306e:	f04f 0200 	mov.w	r2, #0
 8003072:	f04f 0300 	mov.w	r3, #0
 8003076:	e9d7 8918 	ldrd	r8, r9, [r7, #96]	; 0x60
 800307a:	4649      	mov	r1, r9
 800307c:	008b      	lsls	r3, r1, #2
 800307e:	4641      	mov	r1, r8
 8003080:	ea43 7391 	orr.w	r3, r3, r1, lsr #30
 8003084:	4641      	mov	r1, r8
 8003086:	008a      	lsls	r2, r1, #2
 8003088:	e9d7 011a 	ldrd	r0, r1, [r7, #104]	; 0x68
 800308c:	f7fd f900 	bl	8000290 <__aeabi_uldivmod>
 8003090:	4602      	mov	r2, r0
 8003092:	460b      	mov	r3, r1
 8003094:	4b0d      	ldr	r3, [pc, #52]	; (80030cc <UART_SetConfig+0x4e4>)
 8003096:	fba3 1302 	umull	r1, r3, r3, r2
 800309a:	095b      	lsrs	r3, r3, #5
 800309c:	2164      	movs	r1, #100	; 0x64
 800309e:	fb01 f303 	mul.w	r3, r1, r3
 80030a2:	1ad3      	subs	r3, r2, r3
 80030a4:	011b      	lsls	r3, r3, #4
 80030a6:	3332      	adds	r3, #50	; 0x32
 80030a8:	4a08      	ldr	r2, [pc, #32]	; (80030cc <UART_SetConfig+0x4e4>)
 80030aa:	fba2 2303 	umull	r2, r3, r2, r3
 80030ae:	095b      	lsrs	r3, r3, #5
 80030b0:	f003 020f 	and.w	r2, r3, #15
 80030b4:	f8d7 30f4 	ldr.w	r3, [r7, #244]	; 0xf4
 80030b8:	681b      	ldr	r3, [r3, #0]
 80030ba:	4422      	add	r2, r4
 80030bc:	609a      	str	r2, [r3, #8]
 80030be:	bf00      	nop
 80030c0:	f507 7780 	add.w	r7, r7, #256	; 0x100
 80030c4:	46bd      	mov	sp, r7
 80030c6:	e8bd 8fb0 	ldmia.w	sp!, {r4, r5, r7, r8, r9, sl, fp, pc}
 80030ca:	bf00      	nop
 80030cc:	51eb851f 	.word	0x51eb851f

080030d0 <__NVIC_SetPriority>:
 80030d0:	b480      	push	{r7}
 80030d2:	b083      	sub	sp, #12
 80030d4:	af00      	add	r7, sp, #0
 80030d6:	4603      	mov	r3, r0
 80030d8:	6039      	str	r1, [r7, #0]
 80030da:	71fb      	strb	r3, [r7, #7]
 80030dc:	f997 3007 	ldrsb.w	r3, [r7, #7]
 80030e0:	2b00      	cmp	r3, #0
 80030e2:	db0a      	blt.n	80030fa <__NVIC_SetPriority+0x2a>
 80030e4:	683b      	ldr	r3, [r7, #0]
 80030e6:	b2da      	uxtb	r2, r3
 80030e8:	490c      	ldr	r1, [pc, #48]	; (800311c <__NVIC_SetPriority+0x4c>)
 80030ea:	f997 3007 	ldrsb.w	r3, [r7, #7]
 80030ee:	0112      	lsls	r2, r2, #4
 80030f0:	b2d2      	uxtb	r2, r2
 80030f2:	440b      	add	r3, r1
 80030f4:	f883 2300 	strb.w	r2, [r3, #768]	; 0x300
 80030f8:	e00a      	b.n	8003110 <__NVIC_SetPriority+0x40>
 80030fa:	683b      	ldr	r3, [r7, #0]
 80030fc:	b2da      	uxtb	r2, r3
 80030fe:	4908      	ldr	r1, [pc, #32]	; (8003120 <__NVIC_SetPriority+0x50>)
 8003100:	79fb      	ldrb	r3, [r7, #7]
 8003102:	f003 030f 	and.w	r3, r3, #15
 8003106:	3b04      	subs	r3, #4
 8003108:	0112      	lsls	r2, r2, #4
 800310a:	b2d2      	uxtb	r2, r2
 800310c:	440b      	add	r3, r1
 800310e:	761a      	strb	r2, [r3, #24]
 8003110:	bf00      	nop
 8003112:	370c      	adds	r7, #12
 8003114:	46bd      	mov	sp, r7
 8003116:	f85d 7b04 	ldr.w	r7, [sp], #4
 800311a:	4770      	bx	lr
 800311c:	e000e100 	.word	0xe000e100
 8003120:	e000ed00 	.word	0xe000ed00

08003124 <SysTick_Handler>:
 8003124:	b580      	push	{r7, lr}
 8003126:	af00      	add	r7, sp, #0
 8003128:	4b05      	ldr	r3, [pc, #20]	; (8003140 <SysTick_Handler+0x1c>)
 800312a:	681b      	ldr	r3, [r3, #0]
 800312c:	f001 fcfe 	bl	8004b2c <xTaskGetSchedulerState>
 8003130:	4603      	mov	r3, r0
 8003132:	2b01      	cmp	r3, #1
 8003134:	d001      	beq.n	800313a <SysTick_Handler+0x16>
 8003136:	f002 fae7 	bl	8005708 <xPortSysTickHandler>
 800313a:	bf00      	nop
 800313c:	bd80      	pop	{r7, pc}
 800313e:	bf00      	nop
 8003140:	e000e010 	.word	0xe000e010

08003144 <SVC_Setup>:
 8003144:	b580      	push	{r7, lr}
 8003146:	af00      	add	r7, sp, #0
 8003148:	2100      	movs	r1, #0
 800314a:	f06f 0004 	mvn.w	r0, #4
 800314e:	f7ff ffbf 	bl	80030d0 <__NVIC_SetPriority>
 8003152:	bf00      	nop
 8003154:	bd80      	pop	{r7, pc}
	...

08003158 <osKernelInitialize>:
 8003158:	b480      	push	{r7}
 800315a:	b083      	sub	sp, #12
 800315c:	af00      	add	r7, sp, #0
 800315e:	f3ef 8305 	mrs	r3, IPSR
 8003162:	603b      	str	r3, [r7, #0]
 8003164:	683b      	ldr	r3, [r7, #0]
 8003166:	2b00      	cmp	r3, #0
 8003168:	d003      	beq.n	8003172 <osKernelInitialize+0x1a>
 800316a:	f06f 0305 	mvn.w	r3, #5
 800316e:	607b      	str	r3, [r7, #4]
 8003170:	e00c      	b.n	800318c <osKernelInitialize+0x34>
 8003172:	4b0a      	ldr	r3, [pc, #40]	; (800319c <osKernelInitialize+0x44>)
 8003174:	681b      	ldr	r3, [r3, #0]
 8003176:	2b00      	cmp	r3, #0
 8003178:	d105      	bne.n	8003186 <osKernelInitialize+0x2e>
 800317a:	4b08      	ldr	r3, [pc, #32]	; (800319c <osKernelInitialize+0x44>)
 800317c:	2201      	movs	r2, #1
 800317e:	601a      	str	r2, [r3, #0]
 8003180:	2300      	movs	r3, #0
 8003182:	607b      	str	r3, [r7, #4]
 8003184:	e002      	b.n	800318c <osKernelInitialize+0x34>
 8003186:	f04f 33ff 	mov.w	r3, #4294967295
 800318a:	607b      	str	r3, [r7, #4]
 800318c:	687b      	ldr	r3, [r7, #4]
 800318e:	4618      	mov	r0, r3
 8003190:	370c      	adds	r7, #12
 8003192:	46bd      	mov	sp, r7
 8003194:	f85d 7b04 	ldr.w	r7, [sp], #4
 8003198:	4770      	bx	lr
 800319a:	bf00      	nop
 800319c:	20000268 	.word	0x20000268

080031a0 <osKernelStart>:
 80031a0:	b580      	push	{r7, lr}
 80031a2:	b082      	sub	sp, #8
 80031a4:	af00      	add	r7, sp, #0
 80031a6:	f3ef 8305 	mrs	r3, IPSR
 80031aa:	603b      	str	r3, [r7, #0]
 80031ac:	683b      	ldr	r3, [r7, #0]
 80031ae:	2b00      	cmp	r3, #0
 80031b0:	d003      	beq.n	80031ba <osKernelStart+0x1a>
 80031b2:	f06f 0305 	mvn.w	r3, #5
 80031b6:	607b      	str	r3, [r7, #4]
 80031b8:	e010      	b.n	80031dc <osKernelStart+0x3c>
 80031ba:	4b0b      	ldr	r3, [pc, #44]	; (80031e8 <osKernelStart+0x48>)
 80031bc:	681b      	ldr	r3, [r3, #0]
 80031be:	2b01      	cmp	r3, #1
 80031c0:	d109      	bne.n	80031d6 <osKernelStart+0x36>
 80031c2:	f7ff ffbf 	bl	8003144 <SVC_Setup>
 80031c6:	4b08      	ldr	r3, [pc, #32]	; (80031e8 <osKernelStart+0x48>)
 80031c8:	2202      	movs	r2, #2
 80031ca:	601a      	str	r2, [r3, #0]
 80031cc:	f001 f866 	bl	800429c <vTaskStartScheduler>
 80031d0:	2300      	movs	r3, #0
 80031d2:	607b      	str	r3, [r7, #4]
 80031d4:	e002      	b.n	80031dc <osKernelStart+0x3c>
 80031d6:	f04f 33ff 	mov.w	r3, #4294967295
 80031da:	607b      	str	r3, [r7, #4]
 80031dc:	687b      	ldr	r3, [r7, #4]
 80031de:	4618      	mov	r0, r3
 80031e0:	3708      	adds	r7, #8
 80031e2:	46bd      	mov	sp, r7
 80031e4:	bd80      	pop	{r7, pc}
 80031e6:	bf00      	nop
 80031e8:	20000268 	.word	0x20000268

080031ec <osThreadNew>:
 80031ec:	b580      	push	{r7, lr}
 80031ee:	b08e      	sub	sp, #56	; 0x38
 80031f0:	af04      	add	r7, sp, #16
 80031f2:	60f8      	str	r0, [r7, #12]
 80031f4:	60b9      	str	r1, [r7, #8]
 80031f6:	607a      	str	r2, [r7, #4]
 80031f8:	2300      	movs	r3, #0
 80031fa:	613b      	str	r3, [r7, #16]
 80031fc:	f3ef 8305 	mrs	r3, IPSR
 8003200:	617b      	str	r3, [r7, #20]
 8003202:	697b      	ldr	r3, [r7, #20]
 8003204:	2b00      	cmp	r3, #0
 8003206:	d17e      	bne.n	8003306 <osThreadNew+0x11a>
 8003208:	68fb      	ldr	r3, [r7, #12]
 800320a:	2b00      	cmp	r3, #0
 800320c:	d07b      	beq.n	8003306 <osThreadNew+0x11a>
 800320e:	2380      	movs	r3, #128	; 0x80
 8003210:	623b      	str	r3, [r7, #32]
 8003212:	2318      	movs	r3, #24
 8003214:	61fb      	str	r3, [r7, #28]
 8003216:	2300      	movs	r3, #0
 8003218:	627b      	str	r3, [r7, #36]	; 0x24
 800321a:	f04f 33ff 	mov.w	r3, #4294967295
 800321e:	61bb      	str	r3, [r7, #24]
 8003220:	687b      	ldr	r3, [r7, #4]
 8003222:	2b00      	cmp	r3, #0
 8003224:	d045      	beq.n	80032b2 <osThreadNew+0xc6>
 8003226:	687b      	ldr	r3, [r7, #4]
 8003228:	681b      	ldr	r3, [r3, #0]
 800322a:	2b00      	cmp	r3, #0
 800322c:	d002      	beq.n	8003234 <osThreadNew+0x48>
 800322e:	687b      	ldr	r3, [r7, #4]
 8003230:	681b      	ldr	r3, [r3, #0]
 8003232:	627b      	str	r3, [r7, #36]	; 0x24
 8003234:	687b      	ldr	r3, [r7, #4]
 8003236:	699b      	ldr	r3, [r3, #24]
 8003238:	2b00      	cmp	r3, #0
 800323a:	d002      	beq.n	8003242 <osThreadNew+0x56>
 800323c:	687b      	ldr	r3, [r7, #4]
 800323e:	699b      	ldr	r3, [r3, #24]
 8003240:	61fb      	str	r3, [r7, #28]
 8003242:	69fb      	ldr	r3, [r7, #28]
 8003244:	2b00      	cmp	r3, #0
 8003246:	d008      	beq.n	800325a <osThreadNew+0x6e>
 8003248:	69fb      	ldr	r3, [r7, #28]
 800324a:	2b38      	cmp	r3, #56	; 0x38
 800324c:	d805      	bhi.n	800325a <osThreadNew+0x6e>
 800324e:	687b      	ldr	r3, [r7, #4]
 8003250:	685b      	ldr	r3, [r3, #4]
 8003252:	f003 0301 	and.w	r3, r3, #1
 8003256:	2b00      	cmp	r3, #0
 8003258:	d001      	beq.n	800325e <osThreadNew+0x72>
 800325a:	2300      	movs	r3, #0
 800325c:	e054      	b.n	8003308 <osThreadNew+0x11c>
 800325e:	687b      	ldr	r3, [r7, #4]
 8003260:	695b      	ldr	r3, [r3, #20]
 8003262:	2b00      	cmp	r3, #0
 8003264:	d003      	beq.n	800326e <osThreadNew+0x82>
 8003266:	687b      	ldr	r3, [r7, #4]
 8003268:	695b      	ldr	r3, [r3, #20]
 800326a:	089b      	lsrs	r3, r3, #2
 800326c:	623b      	str	r3, [r7, #32]
 800326e:	687b      	ldr	r3, [r7, #4]
 8003270:	689b      	ldr	r3, [r3, #8]
 8003272:	2b00      	cmp	r3, #0
 8003274:	d00e      	beq.n	8003294 <osThreadNew+0xa8>
 8003276:	687b      	ldr	r3, [r7, #4]
 8003278:	68db      	ldr	r3, [r3, #12]
 800327a:	2b5b      	cmp	r3, #91	; 0x5b
 800327c:	d90a      	bls.n	8003294 <osThreadNew+0xa8>
 800327e:	687b      	ldr	r3, [r7, #4]
 8003280:	691b      	ldr	r3, [r3, #16]
 8003282:	2b00      	cmp	r3, #0
 8003284:	d006      	beq.n	8003294 <osThreadNew+0xa8>
 8003286:	687b      	ldr	r3, [r7, #4]
 8003288:	695b      	ldr	r3, [r3, #20]
 800328a:	2b00      	cmp	r3, #0
 800328c:	d002      	beq.n	8003294 <osThreadNew+0xa8>
 800328e:	2301      	movs	r3, #1
 8003290:	61bb      	str	r3, [r7, #24]
 8003292:	e010      	b.n	80032b6 <osThreadNew+0xca>
 8003294:	687b      	ldr	r3, [r7, #4]
 8003296:	689b      	ldr	r3, [r3, #8]
 8003298:	2b00      	cmp	r3, #0
 800329a:	d10c      	bne.n	80032b6 <osThreadNew+0xca>
 800329c:	687b      	ldr	r3, [r7, #4]
 800329e:	68db      	ldr	r3, [r3, #12]
 80032a0:	2b00      	cmp	r3, #0
 80032a2:	d108      	bne.n	80032b6 <osThreadNew+0xca>
 80032a4:	687b      	ldr	r3, [r7, #4]
 80032a6:	691b      	ldr	r3, [r3, #16]
 80032a8:	2b00      	cmp	r3, #0
 80032aa:	d104      	bne.n	80032b6 <osThreadNew+0xca>
 80032ac:	2300      	movs	r3, #0
 80032ae:	61bb      	str	r3, [r7, #24]
 80032b0:	e001      	b.n	80032b6 <osThreadNew+0xca>
 80032b2:	2300      	movs	r3, #0
 80032b4:	61bb      	str	r3, [r7, #24]
 80032b6:	69bb      	ldr	r3, [r7, #24]
 80032b8:	2b01      	cmp	r3, #1
 80032ba:	d110      	bne.n	80032de <osThreadNew+0xf2>
 80032bc:	687b      	ldr	r3, [r7, #4]
 80032be:	691b      	ldr	r3, [r3, #16]
 80032c0:	687a      	ldr	r2, [r7, #4]
 80032c2:	6892      	ldr	r2, [r2, #8]
 80032c4:	9202      	str	r2, [sp, #8]
 80032c6:	9301      	str	r3, [sp, #4]
 80032c8:	69fb      	ldr	r3, [r7, #28]
 80032ca:	9300      	str	r3, [sp, #0]
 80032cc:	68bb      	ldr	r3, [r7, #8]
 80032ce:	6a3a      	ldr	r2, [r7, #32]
 80032d0:	6a79      	ldr	r1, [r7, #36]	; 0x24
 80032d2:	68f8      	ldr	r0, [r7, #12]
 80032d4:	f000 fe0c 	bl	8003ef0 <xTaskCreateStatic>
 80032d8:	4603      	mov	r3, r0
 80032da:	613b      	str	r3, [r7, #16]
 80032dc:	e013      	b.n	8003306 <osThreadNew+0x11a>
 80032de:	69bb      	ldr	r3, [r7, #24]
 80032e0:	2b00      	cmp	r3, #0
 80032e2:	d110      	bne.n	8003306 <osThreadNew+0x11a>
 80032e4:	6a3b      	ldr	r3, [r7, #32]
 80032e6:	b29a      	uxth	r2, r3
 80032e8:	f107 0310 	add.w	r3, r7, #16
 80032ec:	9301      	str	r3, [sp, #4]
 80032ee:	69fb      	ldr	r3, [r7, #28]
 80032f0:	9300      	str	r3, [sp, #0]
 80032f2:	68bb      	ldr	r3, [r7, #8]
 80032f4:	6a79      	ldr	r1, [r7, #36]	; 0x24
 80032f6:	68f8      	ldr	r0, [r7, #12]
 80032f8:	f000 fe57 	bl	8003faa <xTaskCreate>
 80032fc:	4603      	mov	r3, r0
 80032fe:	2b01      	cmp	r3, #1
 8003300:	d001      	beq.n	8003306 <osThreadNew+0x11a>
 8003302:	2300      	movs	r3, #0
 8003304:	613b      	str	r3, [r7, #16]
 8003306:	693b      	ldr	r3, [r7, #16]
 8003308:	4618      	mov	r0, r3
 800330a:	3728      	adds	r7, #40	; 0x28
 800330c:	46bd      	mov	sp, r7
 800330e:	bd80      	pop	{r7, pc}

08003310 <osDelay>:
 8003310:	b580      	push	{r7, lr}
 8003312:	b084      	sub	sp, #16
 8003314:	af00      	add	r7, sp, #0
 8003316:	6078      	str	r0, [r7, #4]
 8003318:	f3ef 8305 	mrs	r3, IPSR
 800331c:	60bb      	str	r3, [r7, #8]
 800331e:	68bb      	ldr	r3, [r7, #8]
 8003320:	2b00      	cmp	r3, #0
 8003322:	d003      	beq.n	800332c <osDelay+0x1c>
 8003324:	f06f 0305 	mvn.w	r3, #5
 8003328:	60fb      	str	r3, [r7, #12]
 800332a:	e007      	b.n	800333c <osDelay+0x2c>
 800332c:	2300      	movs	r3, #0
 800332e:	60fb      	str	r3, [r7, #12]
 8003330:	687b      	ldr	r3, [r7, #4]
 8003332:	2b00      	cmp	r3, #0
 8003334:	d002      	beq.n	800333c <osDelay+0x2c>
 8003336:	6878      	ldr	r0, [r7, #4]
 8003338:	f000 ff7c 	bl	8004234 <vTaskDelay>
 800333c:	68fb      	ldr	r3, [r7, #12]
 800333e:	4618      	mov	r0, r3
 8003340:	3710      	adds	r7, #16
 8003342:	46bd      	mov	sp, r7
 8003344:	bd80      	pop	{r7, pc}
	...

08003348 <vApplicationGetIdleTaskMemory>:
 8003348:	b480      	push	{r7}
 800334a:	b085      	sub	sp, #20
 800334c:	af00      	add	r7, sp, #0
 800334e:	60f8      	str	r0, [r7, #12]
 8003350:	60b9      	str	r1, [r7, #8]
 8003352:	607a      	str	r2, [r7, #4]
 8003354:	68fb      	ldr	r3, [r7, #12]
 8003356:	4a07      	ldr	r2, [pc, #28]	; (8003374 <vApplicationGetIdleTaskMemory+0x2c>)
 8003358:	601a      	str	r2, [r3, #0]
 800335a:	68bb      	ldr	r3, [r7, #8]
 800335c:	4a06      	ldr	r2, [pc, #24]	; (8003378 <vApplicationGetIdleTaskMemory+0x30>)
 800335e:	601a      	str	r2, [r3, #0]
 8003360:	687b      	ldr	r3, [r7, #4]
 8003362:	2280      	movs	r2, #128	; 0x80
 8003364:	601a      	str	r2, [r3, #0]
 8003366:	bf00      	nop
 8003368:	3714      	adds	r7, #20
 800336a:	46bd      	mov	sp, r7
 800336c:	f85d 7b04 	ldr.w	r7, [sp], #4
 8003370:	4770      	bx	lr
 8003372:	bf00      	nop
 8003374:	2000026c 	.word	0x2000026c
 8003378:	200002c8 	.word	0x200002c8

0800337c <vApplicationGetTimerTaskMemory>:
 800337c:	b480      	push	{r7}
 800337e:	b085      	sub	sp, #20
 8003380:	af00      	add	r7, sp, #0
 8003382:	60f8      	str	r0, [r7, #12]
 8003384:	60b9      	str	r1, [r7, #8]
 8003386:	607a      	str	r2, [r7, #4]
 8003388:	68fb      	ldr	r3, [r7, #12]
 800338a:	4a07      	ldr	r2, [pc, #28]	; (80033a8 <vApplicationGetTimerTaskMemory+0x2c>)
 800338c:	601a      	str	r2, [r3, #0]
 800338e:	68bb      	ldr	r3, [r7, #8]
 8003390:	4a06      	ldr	r2, [pc, #24]	; (80033ac <vApplicationGetTimerTaskMemory+0x30>)
 8003392:	601a      	str	r2, [r3, #0]
 8003394:	687b      	ldr	r3, [r7, #4]
 8003396:	f44f 7280 	mov.w	r2, #256	; 0x100
 800339a:	601a      	str	r2, [r3, #0]
 800339c:	bf00      	nop
 800339e:	3714      	adds	r7, #20
 80033a0:	46bd      	mov	sp, r7
 80033a2:	f85d 7b04 	ldr.w	r7, [sp], #4
 80033a6:	4770      	bx	lr
 80033a8:	200004c8 	.word	0x200004c8
 80033ac:	20000524 	.word	0x20000524

080033b0 <vListInitialise>:
 80033b0:	b480      	push	{r7}
 80033b2:	b083      	sub	sp, #12
 80033b4:	af00      	add	r7, sp, #0
 80033b6:	6078      	str	r0, [r7, #4]
 80033b8:	687b      	ldr	r3, [r7, #4]
 80033ba:	f103 0208 	add.w	r2, r3, #8
 80033be:	687b      	ldr	r3, [r7, #4]
 80033c0:	605a      	str	r2, [r3, #4]
 80033c2:	687b      	ldr	r3, [r7, #4]
 80033c4:	f04f 32ff 	mov.w	r2, #4294967295
 80033c8:	609a      	str	r2, [r3, #8]
 80033ca:	687b      	ldr	r3, [r7, #4]
 80033cc:	f103 0208 	add.w	r2, r3, #8
 80033d0:	687b      	ldr	r3, [r7, #4]
 80033d2:	60da      	str	r2, [r3, #12]
 80033d4:	687b      	ldr	r3, [r7, #4]
 80033d6:	f103 0208 	add.w	r2, r3, #8
 80033da:	687b      	ldr	r3, [r7, #4]
 80033dc:	611a      	str	r2, [r3, #16]
 80033de:	687b      	ldr	r3, [r7, #4]
 80033e0:	2200      	movs	r2, #0
 80033e2:	601a      	str	r2, [r3, #0]
 80033e4:	bf00      	nop
 80033e6:	370c      	adds	r7, #12
 80033e8:	46bd      	mov	sp, r7
 80033ea:	f85d 7b04 	ldr.w	r7, [sp], #4
 80033ee:	4770      	bx	lr

080033f0 <vListInitialiseItem>:
 80033f0:	b480      	push	{r7}
 80033f2:	b083      	sub	sp, #12
 80033f4:	af00      	add	r7, sp, #0
 80033f6:	6078      	str	r0, [r7, #4]
 80033f8:	687b      	ldr	r3, [r7, #4]
 80033fa:	2200      	movs	r2, #0
 80033fc:	611a      	str	r2, [r3, #16]
 80033fe:	bf00      	nop
 8003400:	370c      	adds	r7, #12
 8003402:	46bd      	mov	sp, r7
 8003404:	f85d 7b04 	ldr.w	r7, [sp], #4
 8003408:	4770      	bx	lr

0800340a <vListInsertEnd>:
 800340a:	b480      	push	{r7}
 800340c:	b085      	sub	sp, #20
 800340e:	af00      	add	r7, sp, #0
 8003410:	6078      	str	r0, [r7, #4]
 8003412:	6039      	str	r1, [r7, #0]
 8003414:	687b      	ldr	r3, [r7, #4]
 8003416:	685b      	ldr	r3, [r3, #4]
 8003418:	60fb      	str	r3, [r7, #12]
 800341a:	683b      	ldr	r3, [r7, #0]
 800341c:	68fa      	ldr	r2, [r7, #12]
 800341e:	605a      	str	r2, [r3, #4]
 8003420:	68fb      	ldr	r3, [r7, #12]
 8003422:	689a      	ldr	r2, [r3, #8]
 8003424:	683b      	ldr	r3, [r7, #0]
 8003426:	609a      	str	r2, [r3, #8]
 8003428:	68fb      	ldr	r3, [r7, #12]
 800342a:	689b      	ldr	r3, [r3, #8]
 800342c:	683a      	ldr	r2, [r7, #0]
 800342e:	605a      	str	r2, [r3, #4]
 8003430:	68fb      	ldr	r3, [r7, #12]
 8003432:	683a      	ldr	r2, [r7, #0]
 8003434:	609a      	str	r2, [r3, #8]
 8003436:	683b      	ldr	r3, [r7, #0]
 8003438:	687a      	ldr	r2, [r7, #4]
 800343a:	611a      	str	r2, [r3, #16]
 800343c:	687b      	ldr	r3, [r7, #4]
 800343e:	681b      	ldr	r3, [r3, #0]
 8003440:	1c5a      	adds	r2, r3, #1
 8003442:	687b      	ldr	r3, [r7, #4]
 8003444:	601a      	str	r2, [r3, #0]
 8003446:	bf00      	nop
 8003448:	3714      	adds	r7, #20
 800344a:	46bd      	mov	sp, r7
 800344c:	f85d 7b04 	ldr.w	r7, [sp], #4
 8003450:	4770      	bx	lr

08003452 <vListInsert>:
 8003452:	b480      	push	{r7}
 8003454:	b085      	sub	sp, #20
 8003456:	af00      	add	r7, sp, #0
 8003458:	6078      	str	r0, [r7, #4]
 800345a:	6039      	str	r1, [r7, #0]
 800345c:	683b      	ldr	r3, [r7, #0]
 800345e:	681b      	ldr	r3, [r3, #0]
 8003460:	60bb      	str	r3, [r7, #8]
 8003462:	68bb      	ldr	r3, [r7, #8]
 8003464:	f1b3 3fff 	cmp.w	r3, #4294967295
 8003468:	d103      	bne.n	8003472 <vListInsert+0x20>
 800346a:	687b      	ldr	r3, [r7, #4]
 800346c:	691b      	ldr	r3, [r3, #16]
 800346e:	60fb      	str	r3, [r7, #12]
 8003470:	e00c      	b.n	800348c <vListInsert+0x3a>
 8003472:	687b      	ldr	r3, [r7, #4]
 8003474:	3308      	adds	r3, #8
 8003476:	60fb      	str	r3, [r7, #12]
 8003478:	e002      	b.n	8003480 <vListInsert+0x2e>
 800347a:	68fb      	ldr	r3, [r7, #12]
 800347c:	685b      	ldr	r3, [r3, #4]
 800347e:	60fb      	str	r3, [r7, #12]
 8003480:	68fb      	ldr	r3, [r7, #12]
 8003482:	685b      	ldr	r3, [r3, #4]
 8003484:	681b      	ldr	r3, [r3, #0]
 8003486:	68ba      	ldr	r2, [r7, #8]
 8003488:	429a      	cmp	r2, r3
 800348a:	d2f6      	bcs.n	800347a <vListInsert+0x28>
 800348c:	68fb      	ldr	r3, [r7, #12]
 800348e:	685a      	ldr	r2, [r3, #4]
 8003490:	683b      	ldr	r3, [r7, #0]
 8003492:	605a      	str	r2, [r3, #4]
 8003494:	683b      	ldr	r3, [r7, #0]
 8003496:	685b      	ldr	r3, [r3, #4]
 8003498:	683a      	ldr	r2, [r7, #0]
 800349a:	609a      	str	r2, [r3, #8]
 800349c:	683b      	ldr	r3, [r7, #0]
 800349e:	68fa      	ldr	r2, [r7, #12]
 80034a0:	609a      	str	r2, [r3, #8]
 80034a2:	68fb      	ldr	r3, [r7, #12]
 80034a4:	683a      	ldr	r2, [r7, #0]
 80034a6:	605a      	str	r2, [r3, #4]
 80034a8:	683b      	ldr	r3, [r7, #0]
 80034aa:	687a      	ldr	r2, [r7, #4]
 80034ac:	611a      	str	r2, [r3, #16]
 80034ae:	687b      	ldr	r3, [r7, #4]
 80034b0:	681b      	ldr	r3, [r3, #0]
 80034b2:	1c5a      	adds	r2, r3, #1
 80034b4:	687b      	ldr	r3, [r7, #4]
 80034b6:	601a      	str	r2, [r3, #0]
 80034b8:	bf00      	nop
 80034ba:	3714      	adds	r7, #20
 80034bc:	46bd      	mov	sp, r7
 80034be:	f85d 7b04 	ldr.w	r7, [sp], #4
 80034c2:	4770      	bx	lr

080034c4 <uxListRemove>:
 80034c4:	b480      	push	{r7}
 80034c6:	b085      	sub	sp, #20
 80034c8:	af00      	add	r7, sp, #0
 80034ca:	6078      	str	r0, [r7, #4]
 80034cc:	687b      	ldr	r3, [r7, #4]
 80034ce:	691b      	ldr	r3, [r3, #16]
 80034d0:	60fb      	str	r3, [r7, #12]
 80034d2:	687b      	ldr	r3, [r7, #4]
 80034d4:	685b      	ldr	r3, [r3, #4]
 80034d6:	687a      	ldr	r2, [r7, #4]
 80034d8:	6892      	ldr	r2, [r2, #8]
 80034da:	609a      	str	r2, [r3, #8]
 80034dc:	687b      	ldr	r3, [r7, #4]
 80034de:	689b      	ldr	r3, [r3, #8]
 80034e0:	687a      	ldr	r2, [r7, #4]
 80034e2:	6852      	ldr	r2, [r2, #4]
 80034e4:	605a      	str	r2, [r3, #4]
 80034e6:	68fb      	ldr	r3, [r7, #12]
 80034e8:	685b      	ldr	r3, [r3, #4]
 80034ea:	687a      	ldr	r2, [r7, #4]
 80034ec:	429a      	cmp	r2, r3
 80034ee:	d103      	bne.n	80034f8 <uxListRemove+0x34>
 80034f0:	687b      	ldr	r3, [r7, #4]
 80034f2:	689a      	ldr	r2, [r3, #8]
 80034f4:	68fb      	ldr	r3, [r7, #12]
 80034f6:	605a      	str	r2, [r3, #4]
 80034f8:	687b      	ldr	r3, [r7, #4]
 80034fa:	2200      	movs	r2, #0
 80034fc:	611a      	str	r2, [r3, #16]
 80034fe:	68fb      	ldr	r3, [r7, #12]
 8003500:	681b      	ldr	r3, [r3, #0]
 8003502:	1e5a      	subs	r2, r3, #1
 8003504:	68fb      	ldr	r3, [r7, #12]
 8003506:	601a      	str	r2, [r3, #0]
 8003508:	68fb      	ldr	r3, [r7, #12]
 800350a:	681b      	ldr	r3, [r3, #0]
 800350c:	4618      	mov	r0, r3
 800350e:	3714      	adds	r7, #20
 8003510:	46bd      	mov	sp, r7
 8003512:	f85d 7b04 	ldr.w	r7, [sp], #4
 8003516:	4770      	bx	lr

08003518 <xQueueGenericReset>:
 8003518:	b580      	push	{r7, lr}
 800351a:	b084      	sub	sp, #16
 800351c:	af00      	add	r7, sp, #0
 800351e:	6078      	str	r0, [r7, #4]
 8003520:	6039      	str	r1, [r7, #0]
 8003522:	687b      	ldr	r3, [r7, #4]
 8003524:	60fb      	str	r3, [r7, #12]
 8003526:	68fb      	ldr	r3, [r7, #12]
 8003528:	2b00      	cmp	r3, #0
 800352a:	d10a      	bne.n	8003542 <xQueueGenericReset+0x2a>
 800352c:	f04f 0350 	mov.w	r3, #80	; 0x50
 8003530:	f383 8811 	msr	BASEPRI, r3
 8003534:	f3bf 8f6f 	isb	sy
 8003538:	f3bf 8f4f 	dsb	sy
 800353c:	60bb      	str	r3, [r7, #8]
 800353e:	bf00      	nop
 8003540:	e7fe      	b.n	8003540 <xQueueGenericReset+0x28>
 8003542:	f002 f84f 	bl	80055e4 <vPortEnterCritical>
 8003546:	68fb      	ldr	r3, [r7, #12]
 8003548:	681a      	ldr	r2, [r3, #0]
 800354a:	68fb      	ldr	r3, [r7, #12]
 800354c:	6bdb      	ldr	r3, [r3, #60]	; 0x3c
 800354e:	68f9      	ldr	r1, [r7, #12]
 8003550:	6c09      	ldr	r1, [r1, #64]	; 0x40
 8003552:	fb01 f303 	mul.w	r3, r1, r3
 8003556:	441a      	add	r2, r3
 8003558:	68fb      	ldr	r3, [r7, #12]
 800355a:	609a      	str	r2, [r3, #8]
 800355c:	68fb      	ldr	r3, [r7, #12]
 800355e:	2200      	movs	r2, #0
 8003560:	639a      	str	r2, [r3, #56]	; 0x38
 8003562:	68fb      	ldr	r3, [r7, #12]
 8003564:	681a      	ldr	r2, [r3, #0]
 8003566:	68fb      	ldr	r3, [r7, #12]
 8003568:	605a      	str	r2, [r3, #4]
 800356a:	68fb      	ldr	r3, [r7, #12]
 800356c:	681a      	ldr	r2, [r3, #0]
 800356e:	68fb      	ldr	r3, [r7, #12]
 8003570:	6bdb      	ldr	r3, [r3, #60]	; 0x3c
 8003572:	3b01      	subs	r3, #1
 8003574:	68f9      	ldr	r1, [r7, #12]
 8003576:	6c09      	ldr	r1, [r1, #64]	; 0x40
 8003578:	fb01 f303 	mul.w	r3, r1, r3
 800357c:	441a      	add	r2, r3
 800357e:	68fb      	ldr	r3, [r7, #12]
 8003580:	60da      	str	r2, [r3, #12]
 8003582:	68fb      	ldr	r3, [r7, #12]
 8003584:	22ff      	movs	r2, #255	; 0xff
 8003586:	f883 2044 	strb.w	r2, [r3, #68]	; 0x44
 800358a:	68fb      	ldr	r3, [r7, #12]
 800358c:	22ff      	movs	r2, #255	; 0xff
 800358e:	f883 2045 	strb.w	r2, [r3, #69]	; 0x45
 8003592:	683b      	ldr	r3, [r7, #0]
 8003594:	2b00      	cmp	r3, #0
 8003596:	d114      	bne.n	80035c2 <xQueueGenericReset+0xaa>
 8003598:	68fb      	ldr	r3, [r7, #12]
 800359a:	691b      	ldr	r3, [r3, #16]
 800359c:	2b00      	cmp	r3, #0
 800359e:	d01a      	beq.n	80035d6 <xQueueGenericReset+0xbe>
 80035a0:	68fb      	ldr	r3, [r7, #12]
 80035a2:	3310      	adds	r3, #16
 80035a4:	4618      	mov	r0, r3
 80035a6:	f001 f903 	bl	80047b0 <xTaskRemoveFromEventList>
 80035aa:	4603      	mov	r3, r0
 80035ac:	2b00      	cmp	r3, #0
 80035ae:	d012      	beq.n	80035d6 <xQueueGenericReset+0xbe>
 80035b0:	4b0c      	ldr	r3, [pc, #48]	; (80035e4 <xQueueGenericReset+0xcc>)
 80035b2:	f04f 5280 	mov.w	r2, #268435456	; 0x10000000
 80035b6:	601a      	str	r2, [r3, #0]
 80035b8:	f3bf 8f4f 	dsb	sy
 80035bc:	f3bf 8f6f 	isb	sy
 80035c0:	e009      	b.n	80035d6 <xQueueGenericReset+0xbe>
 80035c2:	68fb      	ldr	r3, [r7, #12]
 80035c4:	3310      	adds	r3, #16
 80035c6:	4618      	mov	r0, r3
 80035c8:	f7ff fef2 	bl	80033b0 <vListInitialise>
 80035cc:	68fb      	ldr	r3, [r7, #12]
 80035ce:	3324      	adds	r3, #36	; 0x24
 80035d0:	4618      	mov	r0, r3
 80035d2:	f7ff feed 	bl	80033b0 <vListInitialise>
 80035d6:	f002 f835 	bl	8005644 <vPortExitCritical>
 80035da:	2301      	movs	r3, #1
 80035dc:	4618      	mov	r0, r3
 80035de:	3710      	adds	r7, #16
 80035e0:	46bd      	mov	sp, r7
 80035e2:	bd80      	pop	{r7, pc}
 80035e4:	e000ed04 	.word	0xe000ed04

080035e8 <xQueueGenericCreateStatic>:
 80035e8:	b580      	push	{r7, lr}
 80035ea:	b08e      	sub	sp, #56	; 0x38
 80035ec:	af02      	add	r7, sp, #8
 80035ee:	60f8      	str	r0, [r7, #12]
 80035f0:	60b9      	str	r1, [r7, #8]
 80035f2:	607a      	str	r2, [r7, #4]
 80035f4:	603b      	str	r3, [r7, #0]
 80035f6:	68fb      	ldr	r3, [r7, #12]
 80035f8:	2b00      	cmp	r3, #0
 80035fa:	d10a      	bne.n	8003612 <xQueueGenericCreateStatic+0x2a>
 80035fc:	f04f 0350 	mov.w	r3, #80	; 0x50
 8003600:	f383 8811 	msr	BASEPRI, r3
 8003604:	f3bf 8f6f 	isb	sy
 8003608:	f3bf 8f4f 	dsb	sy
 800360c:	62bb      	str	r3, [r7, #40]	; 0x28
 800360e:	bf00      	nop
 8003610:	e7fe      	b.n	8003610 <xQueueGenericCreateStatic+0x28>
 8003612:	683b      	ldr	r3, [r7, #0]
 8003614:	2b00      	cmp	r3, #0
 8003616:	d10a      	bne.n	800362e <xQueueGenericCreateStatic+0x46>
 8003618:	f04f 0350 	mov.w	r3, #80	; 0x50
 800361c:	f383 8811 	msr	BASEPRI, r3
 8003620:	f3bf 8f6f 	isb	sy
 8003624:	f3bf 8f4f 	dsb	sy
 8003628:	627b      	str	r3, [r7, #36]	; 0x24
 800362a:	bf00      	nop
 800362c:	e7fe      	b.n	800362c <xQueueGenericCreateStatic+0x44>
 800362e:	687b      	ldr	r3, [r7, #4]
 8003630:	2b00      	cmp	r3, #0
 8003632:	d002      	beq.n	800363a <xQueueGenericCreateStatic+0x52>
 8003634:	68bb      	ldr	r3, [r7, #8]
 8003636:	2b00      	cmp	r3, #0
 8003638:	d001      	beq.n	800363e <xQueueGenericCreateStatic+0x56>
 800363a:	2301      	movs	r3, #1
 800363c:	e000      	b.n	8003640 <xQueueGenericCreateStatic+0x58>
 800363e:	2300      	movs	r3, #0
 8003640:	2b00      	cmp	r3, #0
 8003642:	d10a      	bne.n	800365a <xQueueGenericCreateStatic+0x72>
 8003644:	f04f 0350 	mov.w	r3, #80	; 0x50
 8003648:	f383 8811 	msr	BASEPRI, r3
 800364c:	f3bf 8f6f 	isb	sy
 8003650:	f3bf 8f4f 	dsb	sy
 8003654:	623b      	str	r3, [r7, #32]
 8003656:	bf00      	nop
 8003658:	e7fe      	b.n	8003658 <xQueueGenericCreateStatic+0x70>
 800365a:	687b      	ldr	r3, [r7, #4]
 800365c:	2b00      	cmp	r3, #0
 800365e:	d102      	bne.n	8003666 <xQueueGenericCreateStatic+0x7e>
 8003660:	68bb      	ldr	r3, [r7, #8]
 8003662:	2b00      	cmp	r3, #0
 8003664:	d101      	bne.n	800366a <xQueueGenericCreateStatic+0x82>
 8003666:	2301      	movs	r3, #1
 8003668:	e000      	b.n	800366c <xQueueGenericCreateStatic+0x84>
 800366a:	2300      	movs	r3, #0
 800366c:	2b00      	cmp	r3, #0
 800366e:	d10a      	bne.n	8003686 <xQueueGenericCreateStatic+0x9e>
 8003670:	f04f 0350 	mov.w	r3, #80	; 0x50
 8003674:	f383 8811 	msr	BASEPRI, r3
 8003678:	f3bf 8f6f 	isb	sy
 800367c:	f3bf 8f4f 	dsb	sy
 8003680:	61fb      	str	r3, [r7, #28]
 8003682:	bf00      	nop
 8003684:	e7fe      	b.n	8003684 <xQueueGenericCreateStatic+0x9c>
 8003686:	2350      	movs	r3, #80	; 0x50
 8003688:	617b      	str	r3, [r7, #20]
 800368a:	697b      	ldr	r3, [r7, #20]
 800368c:	2b50      	cmp	r3, #80	; 0x50
 800368e:	d00a      	beq.n	80036a6 <xQueueGenericCreateStatic+0xbe>
 8003690:	f04f 0350 	mov.w	r3, #80	; 0x50
 8003694:	f383 8811 	msr	BASEPRI, r3
 8003698:	f3bf 8f6f 	isb	sy
 800369c:	f3bf 8f4f 	dsb	sy
 80036a0:	61bb      	str	r3, [r7, #24]
 80036a2:	bf00      	nop
 80036a4:	e7fe      	b.n	80036a4 <xQueueGenericCreateStatic+0xbc>
 80036a6:	697b      	ldr	r3, [r7, #20]
 80036a8:	683b      	ldr	r3, [r7, #0]
 80036aa:	62fb      	str	r3, [r7, #44]	; 0x2c
 80036ac:	6afb      	ldr	r3, [r7, #44]	; 0x2c
 80036ae:	2b00      	cmp	r3, #0
 80036b0:	d00d      	beq.n	80036ce <xQueueGenericCreateStatic+0xe6>
 80036b2:	6afb      	ldr	r3, [r7, #44]	; 0x2c
 80036b4:	2201      	movs	r2, #1
 80036b6:	f883 2046 	strb.w	r2, [r3, #70]	; 0x46
 80036ba:	f897 2038 	ldrb.w	r2, [r7, #56]	; 0x38
 80036be:	6afb      	ldr	r3, [r7, #44]	; 0x2c
 80036c0:	9300      	str	r3, [sp, #0]
 80036c2:	4613      	mov	r3, r2
 80036c4:	687a      	ldr	r2, [r7, #4]
 80036c6:	68b9      	ldr	r1, [r7, #8]
 80036c8:	68f8      	ldr	r0, [r7, #12]
 80036ca:	f000 f805 	bl	80036d8 <prvInitialiseNewQueue>
 80036ce:	6afb      	ldr	r3, [r7, #44]	; 0x2c
 80036d0:	4618      	mov	r0, r3
 80036d2:	3730      	adds	r7, #48	; 0x30
 80036d4:	46bd      	mov	sp, r7
 80036d6:	bd80      	pop	{r7, pc}

080036d8 <prvInitialiseNewQueue>:
 80036d8:	b580      	push	{r7, lr}
 80036da:	b084      	sub	sp, #16
 80036dc:	af00      	add	r7, sp, #0
 80036de:	60f8      	str	r0, [r7, #12]
 80036e0:	60b9      	str	r1, [r7, #8]
 80036e2:	607a      	str	r2, [r7, #4]
 80036e4:	70fb      	strb	r3, [r7, #3]
 80036e6:	68bb      	ldr	r3, [r7, #8]
 80036e8:	2b00      	cmp	r3, #0
 80036ea:	d103      	bne.n	80036f4 <prvInitialiseNewQueue+0x1c>
 80036ec:	69bb      	ldr	r3, [r7, #24]
 80036ee:	69ba      	ldr	r2, [r7, #24]
 80036f0:	601a      	str	r2, [r3, #0]
 80036f2:	e002      	b.n	80036fa <prvInitialiseNewQueue+0x22>
 80036f4:	69bb      	ldr	r3, [r7, #24]
 80036f6:	687a      	ldr	r2, [r7, #4]
 80036f8:	601a      	str	r2, [r3, #0]
 80036fa:	69bb      	ldr	r3, [r7, #24]
 80036fc:	68fa      	ldr	r2, [r7, #12]
 80036fe:	63da      	str	r2, [r3, #60]	; 0x3c
 8003700:	69bb      	ldr	r3, [r7, #24]
 8003702:	68ba      	ldr	r2, [r7, #8]
 8003704:	641a      	str	r2, [r3, #64]	; 0x40
 8003706:	2101      	movs	r1, #1
 8003708:	69b8      	ldr	r0, [r7, #24]
 800370a:	f7ff ff05 	bl	8003518 <xQueueGenericReset>
 800370e:	69bb      	ldr	r3, [r7, #24]
 8003710:	78fa      	ldrb	r2, [r7, #3]
 8003712:	f883 204c 	strb.w	r2, [r3, #76]	; 0x4c
 8003716:	bf00      	nop
 8003718:	3710      	adds	r7, #16
 800371a:	46bd      	mov	sp, r7
 800371c:	bd80      	pop	{r7, pc}
	...

08003720 <xQueueGenericSend>:
 8003720:	b580      	push	{r7, lr}
 8003722:	b08e      	sub	sp, #56	; 0x38
 8003724:	af00      	add	r7, sp, #0
 8003726:	60f8      	str	r0, [r7, #12]
 8003728:	60b9      	str	r1, [r7, #8]
 800372a:	607a      	str	r2, [r7, #4]
 800372c:	603b      	str	r3, [r7, #0]
 800372e:	2300      	movs	r3, #0
 8003730:	637b      	str	r3, [r7, #52]	; 0x34
 8003732:	68fb      	ldr	r3, [r7, #12]
 8003734:	633b      	str	r3, [r7, #48]	; 0x30
 8003736:	6b3b      	ldr	r3, [r7, #48]	; 0x30
 8003738:	2b00      	cmp	r3, #0
 800373a:	d10a      	bne.n	8003752 <xQueueGenericSend+0x32>
 800373c:	f04f 0350 	mov.w	r3, #80	; 0x50
 8003740:	f383 8811 	msr	BASEPRI, r3
 8003744:	f3bf 8f6f 	isb	sy
 8003748:	f3bf 8f4f 	dsb	sy
 800374c:	62bb      	str	r3, [r7, #40]	; 0x28
 800374e:	bf00      	nop
 8003750:	e7fe      	b.n	8003750 <xQueueGenericSend+0x30>
 8003752:	68bb      	ldr	r3, [r7, #8]
 8003754:	2b00      	cmp	r3, #0
 8003756:	d103      	bne.n	8003760 <xQueueGenericSend+0x40>
 8003758:	6b3b      	ldr	r3, [r7, #48]	; 0x30
 800375a:	6c1b      	ldr	r3, [r3, #64]	; 0x40
 800375c:	2b00      	cmp	r3, #0
 800375e:	d101      	bne.n	8003764 <xQueueGenericSend+0x44>
 8003760:	2301      	movs	r3, #1
 8003762:	e000      	b.n	8003766 <xQueueGenericSend+0x46>
 8003764:	2300      	movs	r3, #0
 8003766:	2b00      	cmp	r3, #0
 8003768:	d10a      	bne.n	8003780 <xQueueGenericSend+0x60>
 800376a:	f04f 0350 	mov.w	r3, #80	; 0x50
 800376e:	f383 8811 	msr	BASEPRI, r3
 8003772:	f3bf 8f6f 	isb	sy
 8003776:	f3bf 8f4f 	dsb	sy
 800377a:	627b      	str	r3, [r7, #36]	; 0x24
 800377c:	bf00      	nop
 800377e:	e7fe      	b.n	800377e <xQueueGenericSend+0x5e>
 8003780:	683b      	ldr	r3, [r7, #0]
 8003782:	2b02      	cmp	r3, #2
 8003784:	d103      	bne.n	800378e <xQueueGenericSend+0x6e>
 8003786:	6b3b      	ldr	r3, [r7, #48]	; 0x30
 8003788:	6bdb      	ldr	r3, [r3, #60]	; 0x3c
 800378a:	2b01      	cmp	r3, #1
 800378c:	d101      	bne.n	8003792 <xQueueGenericSend+0x72>
 800378e:	2301      	movs	r3, #1
 8003790:	e000      	b.n	8003794 <xQueueGenericSend+0x74>
 8003792:	2300      	movs	r3, #0
 8003794:	2b00      	cmp	r3, #0
 8003796:	d10a      	bne.n	80037ae <xQueueGenericSend+0x8e>
 8003798:	f04f 0350 	mov.w	r3, #80	; 0x50
 800379c:	f383 8811 	msr	BASEPRI, r3
 80037a0:	f3bf 8f6f 	isb	sy
 80037a4:	f3bf 8f4f 	dsb	sy
 80037a8:	623b      	str	r3, [r7, #32]
 80037aa:	bf00      	nop
 80037ac:	e7fe      	b.n	80037ac <xQueueGenericSend+0x8c>
 80037ae:	f001 f9bd 	bl	8004b2c <xTaskGetSchedulerState>
 80037b2:	4603      	mov	r3, r0
 80037b4:	2b00      	cmp	r3, #0
 80037b6:	d102      	bne.n	80037be <xQueueGenericSend+0x9e>
 80037b8:	687b      	ldr	r3, [r7, #4]
 80037ba:	2b00      	cmp	r3, #0
 80037bc:	d101      	bne.n	80037c2 <xQueueGenericSend+0xa2>
 80037be:	2301      	movs	r3, #1
 80037c0:	e000      	b.n	80037c4 <xQueueGenericSend+0xa4>
 80037c2:	2300      	movs	r3, #0
 80037c4:	2b00      	cmp	r3, #0
 80037c6:	d10a      	bne.n	80037de <xQueueGenericSend+0xbe>
 80037c8:	f04f 0350 	mov.w	r3, #80	; 0x50
 80037cc:	f383 8811 	msr	BASEPRI, r3
 80037d0:	f3bf 8f6f 	isb	sy
 80037d4:	f3bf 8f4f 	dsb	sy
 80037d8:	61fb      	str	r3, [r7, #28]
 80037da:	bf00      	nop
 80037dc:	e7fe      	b.n	80037dc <xQueueGenericSend+0xbc>
 80037de:	f001 ff01 	bl	80055e4 <vPortEnterCritical>
 80037e2:	6b3b      	ldr	r3, [r7, #48]	; 0x30
 80037e4:	6b9a      	ldr	r2, [r3, #56]	; 0x38
 80037e6:	6b3b      	ldr	r3, [r7, #48]	; 0x30
 80037e8:	6bdb      	ldr	r3, [r3, #60]	; 0x3c
 80037ea:	429a      	cmp	r2, r3
 80037ec:	d302      	bcc.n	80037f4 <xQueueGenericSend+0xd4>
 80037ee:	683b      	ldr	r3, [r7, #0]
 80037f0:	2b02      	cmp	r3, #2
 80037f2:	d129      	bne.n	8003848 <xQueueGenericSend+0x128>
 80037f4:	683a      	ldr	r2, [r7, #0]
 80037f6:	68b9      	ldr	r1, [r7, #8]
 80037f8:	6b38      	ldr	r0, [r7, #48]	; 0x30
 80037fa:	f000 fa0b 	bl	8003c14 <prvCopyDataToQueue>
 80037fe:	62f8      	str	r0, [r7, #44]	; 0x2c
 8003800:	6b3b      	ldr	r3, [r7, #48]	; 0x30
 8003802:	6a5b      	ldr	r3, [r3, #36]	; 0x24
 8003804:	2b00      	cmp	r3, #0
 8003806:	d010      	beq.n	800382a <xQueueGenericSend+0x10a>
 8003808:	6b3b      	ldr	r3, [r7, #48]	; 0x30
 800380a:	3324      	adds	r3, #36	; 0x24
 800380c:	4618      	mov	r0, r3
 800380e:	f000 ffcf 	bl	80047b0 <xTaskRemoveFromEventList>
 8003812:	4603      	mov	r3, r0
 8003814:	2b00      	cmp	r3, #0
 8003816:	d013      	beq.n	8003840 <xQueueGenericSend+0x120>
 8003818:	4b3f      	ldr	r3, [pc, #252]	; (8003918 <xQueueGenericSend+0x1f8>)
 800381a:	f04f 5280 	mov.w	r2, #268435456	; 0x10000000
 800381e:	601a      	str	r2, [r3, #0]
 8003820:	f3bf 8f4f 	dsb	sy
 8003824:	f3bf 8f6f 	isb	sy
 8003828:	e00a      	b.n	8003840 <xQueueGenericSend+0x120>
 800382a:	6afb      	ldr	r3, [r7, #44]	; 0x2c
 800382c:	2b00      	cmp	r3, #0
 800382e:	d007      	beq.n	8003840 <xQueueGenericSend+0x120>
 8003830:	4b39      	ldr	r3, [pc, #228]	; (8003918 <xQueueGenericSend+0x1f8>)
 8003832:	f04f 5280 	mov.w	r2, #268435456	; 0x10000000
 8003836:	601a      	str	r2, [r3, #0]
 8003838:	f3bf 8f4f 	dsb	sy
 800383c:	f3bf 8f6f 	isb	sy
 8003840:	f001 ff00 	bl	8005644 <vPortExitCritical>
 8003844:	2301      	movs	r3, #1
 8003846:	e063      	b.n	8003910 <xQueueGenericSend+0x1f0>
 8003848:	687b      	ldr	r3, [r7, #4]
 800384a:	2b00      	cmp	r3, #0
 800384c:	d103      	bne.n	8003856 <xQueueGenericSend+0x136>
 800384e:	f001 fef9 	bl	8005644 <vPortExitCritical>
 8003852:	2300      	movs	r3, #0
 8003854:	e05c      	b.n	8003910 <xQueueGenericSend+0x1f0>
 8003856:	6b7b      	ldr	r3, [r7, #52]	; 0x34
 8003858:	2b00      	cmp	r3, #0
 800385a:	d106      	bne.n	800386a <xQueueGenericSend+0x14a>
 800385c:	f107 0314 	add.w	r3, r7, #20
 8003860:	4618      	mov	r0, r3
 8003862:	f001 f809 	bl	8004878 <vTaskInternalSetTimeOutState>
 8003866:	2301      	movs	r3, #1
 8003868:	637b      	str	r3, [r7, #52]	; 0x34
 800386a:	f001 feeb 	bl	8005644 <vPortExitCritical>
 800386e:	f000 fd7b 	bl	8004368 <vTaskSuspendAll>
 8003872:	f001 feb7 	bl	80055e4 <vPortEnterCritical>
 8003876:	6b3b      	ldr	r3, [r7, #48]	; 0x30
 8003878:	f893 3044 	ldrb.w	r3, [r3, #68]	; 0x44
 800387c:	b25b      	sxtb	r3, r3
 800387e:	f1b3 3fff 	cmp.w	r3, #4294967295
 8003882:	d103      	bne.n	800388c <xQueueGenericSend+0x16c>
 8003884:	6b3b      	ldr	r3, [r7, #48]	; 0x30
 8003886:	2200      	movs	r2, #0
 8003888:	f883 2044 	strb.w	r2, [r3, #68]	; 0x44
 800388c:	6b3b      	ldr	r3, [r7, #48]	; 0x30
 800388e:	f893 3045 	ldrb.w	r3, [r3, #69]	; 0x45
 8003892:	b25b      	sxtb	r3, r3
 8003894:	f1b3 3fff 	cmp.w	r3, #4294967295
 8003898:	d103      	bne.n	80038a2 <xQueueGenericSend+0x182>
 800389a:	6b3b      	ldr	r3, [r7, #48]	; 0x30
 800389c:	2200      	movs	r2, #0
 800389e:	f883 2045 	strb.w	r2, [r3, #69]	; 0x45
 80038a2:	f001 fecf 	bl	8005644 <vPortExitCritical>
 80038a6:	1d3a      	adds	r2, r7, #4
 80038a8:	f107 0314 	add.w	r3, r7, #20
 80038ac:	4611      	mov	r1, r2
 80038ae:	4618      	mov	r0, r3
 80038b0:	f000 fff8 	bl	80048a4 <xTaskCheckForTimeOut>
 80038b4:	4603      	mov	r3, r0
 80038b6:	2b00      	cmp	r3, #0
 80038b8:	d124      	bne.n	8003904 <xQueueGenericSend+0x1e4>
 80038ba:	6b38      	ldr	r0, [r7, #48]	; 0x30
 80038bc:	f000 faa2 	bl	8003e04 <prvIsQueueFull>
 80038c0:	4603      	mov	r3, r0
 80038c2:	2b00      	cmp	r3, #0
 80038c4:	d018      	beq.n	80038f8 <xQueueGenericSend+0x1d8>
 80038c6:	6b3b      	ldr	r3, [r7, #48]	; 0x30
 80038c8:	3310      	adds	r3, #16
 80038ca:	687a      	ldr	r2, [r7, #4]
 80038cc:	4611      	mov	r1, r2
 80038ce:	4618      	mov	r0, r3
 80038d0:	f000 ff1e 	bl	8004710 <vTaskPlaceOnEventList>
 80038d4:	6b38      	ldr	r0, [r7, #48]	; 0x30
 80038d6:	f000 fa2d 	bl	8003d34 <prvUnlockQueue>
 80038da:	f000 fd53 	bl	8004384 <xTaskResumeAll>
 80038de:	4603      	mov	r3, r0
 80038e0:	2b00      	cmp	r3, #0
 80038e2:	f47f af7c 	bne.w	80037de <xQueueGenericSend+0xbe>
 80038e6:	4b0c      	ldr	r3, [pc, #48]	; (8003918 <xQueueGenericSend+0x1f8>)
 80038e8:	f04f 5280 	mov.w	r2, #268435456	; 0x10000000
 80038ec:	601a      	str	r2, [r3, #0]
 80038ee:	f3bf 8f4f 	dsb	sy
 80038f2:	f3bf 8f6f 	isb	sy
 80038f6:	e772      	b.n	80037de <xQueueGenericSend+0xbe>
 80038f8:	6b38      	ldr	r0, [r7, #48]	; 0x30
 80038fa:	f000 fa1b 	bl	8003d34 <prvUnlockQueue>
 80038fe:	f000 fd41 	bl	8004384 <xTaskResumeAll>
 8003902:	e76c      	b.n	80037de <xQueueGenericSend+0xbe>
 8003904:	6b38      	ldr	r0, [r7, #48]	; 0x30
 8003906:	f000 fa15 	bl	8003d34 <prvUnlockQueue>
 800390a:	f000 fd3b 	bl	8004384 <xTaskResumeAll>
 800390e:	2300      	movs	r3, #0
 8003910:	4618      	mov	r0, r3
 8003912:	3738      	adds	r7, #56	; 0x38
 8003914:	46bd      	mov	sp, r7
 8003916:	bd80      	pop	{r7, pc}
 8003918:	e000ed04 	.word	0xe000ed04

0800391c <xQueueGenericSendFromISR>:
 800391c:	b580      	push	{r7, lr}
 800391e:	b090      	sub	sp, #64	; 0x40
 8003920:	af00      	add	r7, sp, #0
 8003922:	60f8      	str	r0, [r7, #12]
 8003924:	60b9      	str	r1, [r7, #8]
 8003926:	607a      	str	r2, [r7, #4]
 8003928:	603b      	str	r3, [r7, #0]
 800392a:	68fb      	ldr	r3, [r7, #12]
 800392c:	63bb      	str	r3, [r7, #56]	; 0x38
 800392e:	6bbb      	ldr	r3, [r7, #56]	; 0x38
 8003930:	2b00      	cmp	r3, #0
 8003932:	d10a      	bne.n	800394a <xQueueGenericSendFromISR+0x2e>
 8003934:	f04f 0350 	mov.w	r3, #80	; 0x50
 8003938:	f383 8811 	msr	BASEPRI, r3
 800393c:	f3bf 8f6f 	isb	sy
 8003940:	f3bf 8f4f 	dsb	sy
 8003944:	62bb      	str	r3, [r7, #40]	; 0x28
 8003946:	bf00      	nop
 8003948:	e7fe      	b.n	8003948 <xQueueGenericSendFromISR+0x2c>
 800394a:	68bb      	ldr	r3, [r7, #8]
 800394c:	2b00      	cmp	r3, #0
 800394e:	d103      	bne.n	8003958 <xQueueGenericSendFromISR+0x3c>
 8003950:	6bbb      	ldr	r3, [r7, #56]	; 0x38
 8003952:	6c1b      	ldr	r3, [r3, #64]	; 0x40
 8003954:	2b00      	cmp	r3, #0
 8003956:	d101      	bne.n	800395c <xQueueGenericSendFromISR+0x40>
 8003958:	2301      	movs	r3, #1
 800395a:	e000      	b.n	800395e <xQueueGenericSendFromISR+0x42>
 800395c:	2300      	movs	r3, #0
 800395e:	2b00      	cmp	r3, #0
 8003960:	d10a      	bne.n	8003978 <xQueueGenericSendFromISR+0x5c>
 8003962:	f04f 0350 	mov.w	r3, #80	; 0x50
 8003966:	f383 8811 	msr	BASEPRI, r3
 800396a:	f3bf 8f6f 	isb	sy
 800396e:	f3bf 8f4f 	dsb	sy
 8003972:	627b      	str	r3, [r7, #36]	; 0x24
 8003974:	bf00      	nop
 8003976:	e7fe      	b.n	8003976 <xQueueGenericSendFromISR+0x5a>
 8003978:	683b      	ldr	r3, [r7, #0]
 800397a:	2b02      	cmp	r3, #2
 800397c:	d103      	bne.n	8003986 <xQueueGenericSendFromISR+0x6a>
 800397e:	6bbb      	ldr	r3, [r7, #56]	; 0x38
 8003980:	6bdb      	ldr	r3, [r3, #60]	; 0x3c
 8003982:	2b01      	cmp	r3, #1
 8003984:	d101      	bne.n	800398a <xQueueGenericSendFromISR+0x6e>
 8003986:	2301      	movs	r3, #1
 8003988:	e000      	b.n	800398c <xQueueGenericSendFromISR+0x70>
 800398a:	2300      	movs	r3, #0
 800398c:	2b00      	cmp	r3, #0
 800398e:	d10a      	bne.n	80039a6 <xQueueGenericSendFromISR+0x8a>
 8003990:	f04f 0350 	mov.w	r3, #80	; 0x50
 8003994:	f383 8811 	msr	BASEPRI, r3
 8003998:	f3bf 8f6f 	isb	sy
 800399c:	f3bf 8f4f 	dsb	sy
 80039a0:	623b      	str	r3, [r7, #32]
 80039a2:	bf00      	nop
 80039a4:	e7fe      	b.n	80039a4 <xQueueGenericSendFromISR+0x88>
 80039a6:	f001 feff 	bl	80057a8 <vPortValidateInterruptPriority>
 80039aa:	f3ef 8211 	mrs	r2, BASEPRI
 80039ae:	f04f 0350 	mov.w	r3, #80	; 0x50
 80039b2:	f383 8811 	msr	BASEPRI, r3
 80039b6:	f3bf 8f6f 	isb	sy
 80039ba:	f3bf 8f4f 	dsb	sy
 80039be:	61fa      	str	r2, [r7, #28]
 80039c0:	61bb      	str	r3, [r7, #24]
 80039c2:	69fb      	ldr	r3, [r7, #28]
 80039c4:	637b      	str	r3, [r7, #52]	; 0x34
 80039c6:	6bbb      	ldr	r3, [r7, #56]	; 0x38
 80039c8:	6b9a      	ldr	r2, [r3, #56]	; 0x38
 80039ca:	6bbb      	ldr	r3, [r7, #56]	; 0x38
 80039cc:	6bdb      	ldr	r3, [r3, #60]	; 0x3c
 80039ce:	429a      	cmp	r2, r3
 80039d0:	d302      	bcc.n	80039d8 <xQueueGenericSendFromISR+0xbc>
 80039d2:	683b      	ldr	r3, [r7, #0]
 80039d4:	2b02      	cmp	r3, #2
 80039d6:	d12f      	bne.n	8003a38 <xQueueGenericSendFromISR+0x11c>
 80039d8:	6bbb      	ldr	r3, [r7, #56]	; 0x38
 80039da:	f893 3045 	ldrb.w	r3, [r3, #69]	; 0x45
 80039de:	f887 3033 	strb.w	r3, [r7, #51]	; 0x33
 80039e2:	6bbb      	ldr	r3, [r7, #56]	; 0x38
 80039e4:	6b9b      	ldr	r3, [r3, #56]	; 0x38
 80039e6:	62fb      	str	r3, [r7, #44]	; 0x2c
 80039e8:	683a      	ldr	r2, [r7, #0]
 80039ea:	68b9      	ldr	r1, [r7, #8]
 80039ec:	6bb8      	ldr	r0, [r7, #56]	; 0x38
 80039ee:	f000 f911 	bl	8003c14 <prvCopyDataToQueue>
 80039f2:	f997 3033 	ldrsb.w	r3, [r7, #51]	; 0x33
 80039f6:	f1b3 3fff 	cmp.w	r3, #4294967295
 80039fa:	d112      	bne.n	8003a22 <xQueueGenericSendFromISR+0x106>
 80039fc:	6bbb      	ldr	r3, [r7, #56]	; 0x38
 80039fe:	6a5b      	ldr	r3, [r3, #36]	; 0x24
 8003a00:	2b00      	cmp	r3, #0
 8003a02:	d016      	beq.n	8003a32 <xQueueGenericSendFromISR+0x116>
 8003a04:	6bbb      	ldr	r3, [r7, #56]	; 0x38
 8003a06:	3324      	adds	r3, #36	; 0x24
 8003a08:	4618      	mov	r0, r3
 8003a0a:	f000 fed1 	bl	80047b0 <xTaskRemoveFromEventList>
 8003a0e:	4603      	mov	r3, r0
 8003a10:	2b00      	cmp	r3, #0
 8003a12:	d00e      	beq.n	8003a32 <xQueueGenericSendFromISR+0x116>
 8003a14:	687b      	ldr	r3, [r7, #4]
 8003a16:	2b00      	cmp	r3, #0
 8003a18:	d00b      	beq.n	8003a32 <xQueueGenericSendFromISR+0x116>
 8003a1a:	687b      	ldr	r3, [r7, #4]
 8003a1c:	2201      	movs	r2, #1
 8003a1e:	601a      	str	r2, [r3, #0]
 8003a20:	e007      	b.n	8003a32 <xQueueGenericSendFromISR+0x116>
 8003a22:	f897 3033 	ldrb.w	r3, [r7, #51]	; 0x33
 8003a26:	3301      	adds	r3, #1
 8003a28:	b2db      	uxtb	r3, r3
 8003a2a:	b25a      	sxtb	r2, r3
 8003a2c:	6bbb      	ldr	r3, [r7, #56]	; 0x38
 8003a2e:	f883 2045 	strb.w	r2, [r3, #69]	; 0x45
 8003a32:	2301      	movs	r3, #1
 8003a34:	63fb      	str	r3, [r7, #60]	; 0x3c
 8003a36:	e001      	b.n	8003a3c <xQueueGenericSendFromISR+0x120>
 8003a38:	2300      	movs	r3, #0
 8003a3a:	63fb      	str	r3, [r7, #60]	; 0x3c
 8003a3c:	6b7b      	ldr	r3, [r7, #52]	; 0x34
 8003a3e:	617b      	str	r3, [r7, #20]
 8003a40:	697b      	ldr	r3, [r7, #20]
 8003a42:	f383 8811 	msr	BASEPRI, r3
 8003a46:	bf00      	nop
 8003a48:	6bfb      	ldr	r3, [r7, #60]	; 0x3c
 8003a4a:	4618      	mov	r0, r3
 8003a4c:	3740      	adds	r7, #64	; 0x40
 8003a4e:	46bd      	mov	sp, r7
 8003a50:	bd80      	pop	{r7, pc}
	...

08003a54 <xQueueReceive>:
 8003a54:	b580      	push	{r7, lr}
 8003a56:	b08c      	sub	sp, #48	; 0x30
 8003a58:	af00      	add	r7, sp, #0
 8003a5a:	60f8      	str	r0, [r7, #12]
 8003a5c:	60b9      	str	r1, [r7, #8]
 8003a5e:	607a      	str	r2, [r7, #4]
 8003a60:	2300      	movs	r3, #0
 8003a62:	62fb      	str	r3, [r7, #44]	; 0x2c
 8003a64:	68fb      	ldr	r3, [r7, #12]
 8003a66:	62bb      	str	r3, [r7, #40]	; 0x28
 8003a68:	6abb      	ldr	r3, [r7, #40]	; 0x28
 8003a6a:	2b00      	cmp	r3, #0
 8003a6c:	d10a      	bne.n	8003a84 <xQueueReceive+0x30>
 8003a6e:	f04f 0350 	mov.w	r3, #80	; 0x50
 8003a72:	f383 8811 	msr	BASEPRI, r3
 8003a76:	f3bf 8f6f 	isb	sy
 8003a7a:	f3bf 8f4f 	dsb	sy
 8003a7e:	623b      	str	r3, [r7, #32]
 8003a80:	bf00      	nop
 8003a82:	e7fe      	b.n	8003a82 <xQueueReceive+0x2e>
 8003a84:	68bb      	ldr	r3, [r7, #8]
 8003a86:	2b00      	cmp	r3, #0
 8003a88:	d103      	bne.n	8003a92 <xQueueReceive+0x3e>
 8003a8a:	6abb      	ldr	r3, [r7, #40]	; 0x28
 8003a8c:	6c1b      	ldr	r3, [r3, #64]	; 0x40
 8003a8e:	2b00      	cmp	r3, #0
 8003a90:	d101      	bne.n	8003a96 <xQueueReceive+0x42>
 8003a92:	2301      	movs	r3, #1
 8003a94:	e000      	b.n	8003a98 <xQueueReceive+0x44>
 8003a96:	2300      	movs	r3, #0
 8003a98:	2b00      	cmp	r3, #0
 8003a9a:	d10a      	bne.n	8003ab2 <xQueueReceive+0x5e>
 8003a9c:	f04f 0350 	mov.w	r3, #80	; 0x50
 8003aa0:	f383 8811 	msr	BASEPRI, r3
 8003aa4:	f3bf 8f6f 	isb	sy
 8003aa8:	f3bf 8f4f 	dsb	sy
 8003aac:	61fb      	str	r3, [r7, #28]
 8003aae:	bf00      	nop
 8003ab0:	e7fe      	b.n	8003ab0 <xQueueReceive+0x5c>
 8003ab2:	f001 f83b 	bl	8004b2c <xTaskGetSchedulerState>
 8003ab6:	4603      	mov	r3, r0
 8003ab8:	2b00      	cmp	r3, #0
 8003aba:	d102      	bne.n	8003ac2 <xQueueReceive+0x6e>
 8003abc:	687b      	ldr	r3, [r7, #4]
 8003abe:	2b00      	cmp	r3, #0
 8003ac0:	d101      	bne.n	8003ac6 <xQueueReceive+0x72>
 8003ac2:	2301      	movs	r3, #1
 8003ac4:	e000      	b.n	8003ac8 <xQueueReceive+0x74>
 8003ac6:	2300      	movs	r3, #0
 8003ac8:	2b00      	cmp	r3, #0
 8003aca:	d10a      	bne.n	8003ae2 <xQueueReceive+0x8e>
 8003acc:	f04f 0350 	mov.w	r3, #80	; 0x50
 8003ad0:	f383 8811 	msr	BASEPRI, r3
 8003ad4:	f3bf 8f6f 	isb	sy
 8003ad8:	f3bf 8f4f 	dsb	sy
 8003adc:	61bb      	str	r3, [r7, #24]
 8003ade:	bf00      	nop
 8003ae0:	e7fe      	b.n	8003ae0 <xQueueReceive+0x8c>
 8003ae2:	f001 fd7f 	bl	80055e4 <vPortEnterCritical>
 8003ae6:	6abb      	ldr	r3, [r7, #40]	; 0x28
 8003ae8:	6b9b      	ldr	r3, [r3, #56]	; 0x38
 8003aea:	627b      	str	r3, [r7, #36]	; 0x24
 8003aec:	6a7b      	ldr	r3, [r7, #36]	; 0x24
 8003aee:	2b00      	cmp	r3, #0
 8003af0:	d01f      	beq.n	8003b32 <xQueueReceive+0xde>
 8003af2:	68b9      	ldr	r1, [r7, #8]
 8003af4:	6ab8      	ldr	r0, [r7, #40]	; 0x28
 8003af6:	f000 f8f7 	bl	8003ce8 <prvCopyDataFromQueue>
 8003afa:	6a7b      	ldr	r3, [r7, #36]	; 0x24
 8003afc:	1e5a      	subs	r2, r3, #1
 8003afe:	6abb      	ldr	r3, [r7, #40]	; 0x28
 8003b00:	639a      	str	r2, [r3, #56]	; 0x38
 8003b02:	6abb      	ldr	r3, [r7, #40]	; 0x28
 8003b04:	691b      	ldr	r3, [r3, #16]
 8003b06:	2b00      	cmp	r3, #0
 8003b08:	d00f      	beq.n	8003b2a <xQueueReceive+0xd6>
 8003b0a:	6abb      	ldr	r3, [r7, #40]	; 0x28
 8003b0c:	3310      	adds	r3, #16
 8003b0e:	4618      	mov	r0, r3
 8003b10:	f000 fe4e 	bl	80047b0 <xTaskRemoveFromEventList>
 8003b14:	4603      	mov	r3, r0
 8003b16:	2b00      	cmp	r3, #0
 8003b18:	d007      	beq.n	8003b2a <xQueueReceive+0xd6>
 8003b1a:	4b3d      	ldr	r3, [pc, #244]	; (8003c10 <xQueueReceive+0x1bc>)
 8003b1c:	f04f 5280 	mov.w	r2, #268435456	; 0x10000000
 8003b20:	601a      	str	r2, [r3, #0]
 8003b22:	f3bf 8f4f 	dsb	sy
 8003b26:	f3bf 8f6f 	isb	sy
 8003b2a:	f001 fd8b 	bl	8005644 <vPortExitCritical>
 8003b2e:	2301      	movs	r3, #1
 8003b30:	e069      	b.n	8003c06 <xQueueReceive+0x1b2>
 8003b32:	687b      	ldr	r3, [r7, #4]
 8003b34:	2b00      	cmp	r3, #0
 8003b36:	d103      	bne.n	8003b40 <xQueueReceive+0xec>
 8003b38:	f001 fd84 	bl	8005644 <vPortExitCritical>
 8003b3c:	2300      	movs	r3, #0
 8003b3e:	e062      	b.n	8003c06 <xQueueReceive+0x1b2>
 8003b40:	6afb      	ldr	r3, [r7, #44]	; 0x2c
 8003b42:	2b00      	cmp	r3, #0
 8003b44:	d106      	bne.n	8003b54 <xQueueReceive+0x100>
 8003b46:	f107 0310 	add.w	r3, r7, #16
 8003b4a:	4618      	mov	r0, r3
 8003b4c:	f000 fe94 	bl	8004878 <vTaskInternalSetTimeOutState>
 8003b50:	2301      	movs	r3, #1
 8003b52:	62fb      	str	r3, [r7, #44]	; 0x2c
 8003b54:	f001 fd76 	bl	8005644 <vPortExitCritical>
 8003b58:	f000 fc06 	bl	8004368 <vTaskSuspendAll>
 8003b5c:	f001 fd42 	bl	80055e4 <vPortEnterCritical>
 8003b60:	6abb      	ldr	r3, [r7, #40]	; 0x28
 8003b62:	f893 3044 	ldrb.w	r3, [r3, #68]	; 0x44
 8003b66:	b25b      	sxtb	r3, r3
 8003b68:	f1b3 3fff 	cmp.w	r3, #4294967295
 8003b6c:	d103      	bne.n	8003b76 <xQueueReceive+0x122>
 8003b6e:	6abb      	ldr	r3, [r7, #40]	; 0x28
 8003b70:	2200      	movs	r2, #0
 8003b72:	f883 2044 	strb.w	r2, [r3, #68]	; 0x44
 8003b76:	6abb      	ldr	r3, [r7, #40]	; 0x28
 8003b78:	f893 3045 	ldrb.w	r3, [r3, #69]	; 0x45
 8003b7c:	b25b      	sxtb	r3, r3
 8003b7e:	f1b3 3fff 	cmp.w	r3, #4294967295
 8003b82:	d103      	bne.n	8003b8c <xQueueReceive+0x138>
 8003b84:	6abb      	ldr	r3, [r7, #40]	; 0x28
 8003b86:	2200      	movs	r2, #0
 8003b88:	f883 2045 	strb.w	r2, [r3, #69]	; 0x45
 8003b8c:	f001 fd5a 	bl	8005644 <vPortExitCritical>
 8003b90:	1d3a      	adds	r2, r7, #4
 8003b92:	f107 0310 	add.w	r3, r7, #16
 8003b96:	4611      	mov	r1, r2
 8003b98:	4618      	mov	r0, r3
 8003b9a:	f000 fe83 	bl	80048a4 <xTaskCheckForTimeOut>
 8003b9e:	4603      	mov	r3, r0
 8003ba0:	2b00      	cmp	r3, #0
 8003ba2:	d123      	bne.n	8003bec <xQueueReceive+0x198>
 8003ba4:	6ab8      	ldr	r0, [r7, #40]	; 0x28
 8003ba6:	f000 f917 	bl	8003dd8 <prvIsQueueEmpty>
 8003baa:	4603      	mov	r3, r0
 8003bac:	2b00      	cmp	r3, #0
 8003bae:	d017      	beq.n	8003be0 <xQueueReceive+0x18c>
 8003bb0:	6abb      	ldr	r3, [r7, #40]	; 0x28
 8003bb2:	3324      	adds	r3, #36	; 0x24
 8003bb4:	687a      	ldr	r2, [r7, #4]
 8003bb6:	4611      	mov	r1, r2
 8003bb8:	4618      	mov	r0, r3
 8003bba:	f000 fda9 	bl	8004710 <vTaskPlaceOnEventList>
 8003bbe:	6ab8      	ldr	r0, [r7, #40]	; 0x28
 8003bc0:	f000 f8b8 	bl	8003d34 <prvUnlockQueue>
 8003bc4:	f000 fbde 	bl	8004384 <xTaskResumeAll>
 8003bc8:	4603      	mov	r3, r0
 8003bca:	2b00      	cmp	r3, #0
 8003bcc:	d189      	bne.n	8003ae2 <xQueueReceive+0x8e>
 8003bce:	4b10      	ldr	r3, [pc, #64]	; (8003c10 <xQueueReceive+0x1bc>)
 8003bd0:	f04f 5280 	mov.w	r2, #268435456	; 0x10000000
 8003bd4:	601a      	str	r2, [r3, #0]
 8003bd6:	f3bf 8f4f 	dsb	sy
 8003bda:	f3bf 8f6f 	isb	sy
 8003bde:	e780      	b.n	8003ae2 <xQueueReceive+0x8e>
 8003be0:	6ab8      	ldr	r0, [r7, #40]	; 0x28
 8003be2:	f000 f8a7 	bl	8003d34 <prvUnlockQueue>
 8003be6:	f000 fbcd 	bl	8004384 <xTaskResumeAll>
 8003bea:	e77a      	b.n	8003ae2 <xQueueReceive+0x8e>
 8003bec:	6ab8      	ldr	r0, [r7, #40]	; 0x28
 8003bee:	f000 f8a1 	bl	8003d34 <prvUnlockQueue>
 8003bf2:	f000 fbc7 	bl	8004384 <xTaskResumeAll>
 8003bf6:	6ab8      	ldr	r0, [r7, #40]	; 0x28
 8003bf8:	f000 f8ee 	bl	8003dd8 <prvIsQueueEmpty>
 8003bfc:	4603      	mov	r3, r0
 8003bfe:	2b00      	cmp	r3, #0
 8003c00:	f43f af6f 	beq.w	8003ae2 <xQueueReceive+0x8e>
 8003c04:	2300      	movs	r3, #0
 8003c06:	4618      	mov	r0, r3
 8003c08:	3730      	adds	r7, #48	; 0x30
 8003c0a:	46bd      	mov	sp, r7
 8003c0c:	bd80      	pop	{r7, pc}
 8003c0e:	bf00      	nop
 8003c10:	e000ed04 	.word	0xe000ed04

08003c14 <prvCopyDataToQueue>:
 8003c14:	b580      	push	{r7, lr}
 8003c16:	b086      	sub	sp, #24
 8003c18:	af00      	add	r7, sp, #0
 8003c1a:	60f8      	str	r0, [r7, #12]
 8003c1c:	60b9      	str	r1, [r7, #8]
 8003c1e:	607a      	str	r2, [r7, #4]
 8003c20:	2300      	movs	r3, #0
 8003c22:	617b      	str	r3, [r7, #20]
 8003c24:	68fb      	ldr	r3, [r7, #12]
 8003c26:	6b9b      	ldr	r3, [r3, #56]	; 0x38
 8003c28:	613b      	str	r3, [r7, #16]
 8003c2a:	68fb      	ldr	r3, [r7, #12]
 8003c2c:	6c1b      	ldr	r3, [r3, #64]	; 0x40
 8003c2e:	2b00      	cmp	r3, #0
 8003c30:	d10d      	bne.n	8003c4e <prvCopyDataToQueue+0x3a>
 8003c32:	68fb      	ldr	r3, [r7, #12]
 8003c34:	681b      	ldr	r3, [r3, #0]
 8003c36:	2b00      	cmp	r3, #0
 8003c38:	d14d      	bne.n	8003cd6 <prvCopyDataToQueue+0xc2>
 8003c3a:	68fb      	ldr	r3, [r7, #12]
 8003c3c:	689b      	ldr	r3, [r3, #8]
 8003c3e:	4618      	mov	r0, r3
 8003c40:	f000 ff92 	bl	8004b68 <xTaskPriorityDisinherit>
 8003c44:	6178      	str	r0, [r7, #20]
 8003c46:	68fb      	ldr	r3, [r7, #12]
 8003c48:	2200      	movs	r2, #0
 8003c4a:	609a      	str	r2, [r3, #8]
 8003c4c:	e043      	b.n	8003cd6 <prvCopyDataToQueue+0xc2>
 8003c4e:	687b      	ldr	r3, [r7, #4]
 8003c50:	2b00      	cmp	r3, #0
 8003c52:	d119      	bne.n	8003c88 <prvCopyDataToQueue+0x74>
 8003c54:	68fb      	ldr	r3, [r7, #12]
 8003c56:	6858      	ldr	r0, [r3, #4]
 8003c58:	68fb      	ldr	r3, [r7, #12]
 8003c5a:	6c1b      	ldr	r3, [r3, #64]	; 0x40
 8003c5c:	461a      	mov	r2, r3
 8003c5e:	68b9      	ldr	r1, [r7, #8]
 8003c60:	f001 fff6 	bl	8005c50 <memcpy>
 8003c64:	68fb      	ldr	r3, [r7, #12]
 8003c66:	685a      	ldr	r2, [r3, #4]
 8003c68:	68fb      	ldr	r3, [r7, #12]
 8003c6a:	6c1b      	ldr	r3, [r3, #64]	; 0x40
 8003c6c:	441a      	add	r2, r3
 8003c6e:	68fb      	ldr	r3, [r7, #12]
 8003c70:	605a      	str	r2, [r3, #4]
 8003c72:	68fb      	ldr	r3, [r7, #12]
 8003c74:	685a      	ldr	r2, [r3, #4]
 8003c76:	68fb      	ldr	r3, [r7, #12]
 8003c78:	689b      	ldr	r3, [r3, #8]
 8003c7a:	429a      	cmp	r2, r3
 8003c7c:	d32b      	bcc.n	8003cd6 <prvCopyDataToQueue+0xc2>
 8003c7e:	68fb      	ldr	r3, [r7, #12]
 8003c80:	681a      	ldr	r2, [r3, #0]
 8003c82:	68fb      	ldr	r3, [r7, #12]
 8003c84:	605a      	str	r2, [r3, #4]
 8003c86:	e026      	b.n	8003cd6 <prvCopyDataToQueue+0xc2>
 8003c88:	68fb      	ldr	r3, [r7, #12]
 8003c8a:	68d8      	ldr	r0, [r3, #12]
 8003c8c:	68fb      	ldr	r3, [r7, #12]
 8003c8e:	6c1b      	ldr	r3, [r3, #64]	; 0x40
 8003c90:	461a      	mov	r2, r3
 8003c92:	68b9      	ldr	r1, [r7, #8]
 8003c94:	f001 ffdc 	bl	8005c50 <memcpy>
 8003c98:	68fb      	ldr	r3, [r7, #12]
 8003c9a:	68da      	ldr	r2, [r3, #12]
 8003c9c:	68fb      	ldr	r3, [r7, #12]
 8003c9e:	6c1b      	ldr	r3, [r3, #64]	; 0x40
 8003ca0:	425b      	negs	r3, r3
 8003ca2:	441a      	add	r2, r3
 8003ca4:	68fb      	ldr	r3, [r7, #12]
 8003ca6:	60da      	str	r2, [r3, #12]
 8003ca8:	68fb      	ldr	r3, [r7, #12]
 8003caa:	68da      	ldr	r2, [r3, #12]
 8003cac:	68fb      	ldr	r3, [r7, #12]
 8003cae:	681b      	ldr	r3, [r3, #0]
 8003cb0:	429a      	cmp	r2, r3
 8003cb2:	d207      	bcs.n	8003cc4 <prvCopyDataToQueue+0xb0>
 8003cb4:	68fb      	ldr	r3, [r7, #12]
 8003cb6:	689a      	ldr	r2, [r3, #8]
 8003cb8:	68fb      	ldr	r3, [r7, #12]
 8003cba:	6c1b      	ldr	r3, [r3, #64]	; 0x40
 8003cbc:	425b      	negs	r3, r3
 8003cbe:	441a      	add	r2, r3
 8003cc0:	68fb      	ldr	r3, [r7, #12]
 8003cc2:	60da      	str	r2, [r3, #12]
 8003cc4:	687b      	ldr	r3, [r7, #4]
 8003cc6:	2b02      	cmp	r3, #2
 8003cc8:	d105      	bne.n	8003cd6 <prvCopyDataToQueue+0xc2>
 8003cca:	693b      	ldr	r3, [r7, #16]
 8003ccc:	2b00      	cmp	r3, #0
 8003cce:	d002      	beq.n	8003cd6 <prvCopyDataToQueue+0xc2>
 8003cd0:	693b      	ldr	r3, [r7, #16]
 8003cd2:	3b01      	subs	r3, #1
 8003cd4:	613b      	str	r3, [r7, #16]
 8003cd6:	693b      	ldr	r3, [r7, #16]
 8003cd8:	1c5a      	adds	r2, r3, #1
 8003cda:	68fb      	ldr	r3, [r7, #12]
 8003cdc:	639a      	str	r2, [r3, #56]	; 0x38
 8003cde:	697b      	ldr	r3, [r7, #20]
 8003ce0:	4618      	mov	r0, r3
 8003ce2:	3718      	adds	r7, #24
 8003ce4:	46bd      	mov	sp, r7
 8003ce6:	bd80      	pop	{r7, pc}

08003ce8 <prvCopyDataFromQueue>:
 8003ce8:	b580      	push	{r7, lr}
 8003cea:	b082      	sub	sp, #8
 8003cec:	af00      	add	r7, sp, #0
 8003cee:	6078      	str	r0, [r7, #4]
 8003cf0:	6039      	str	r1, [r7, #0]
 8003cf2:	687b      	ldr	r3, [r7, #4]
 8003cf4:	6c1b      	ldr	r3, [r3, #64]	; 0x40
 8003cf6:	2b00      	cmp	r3, #0
 8003cf8:	d018      	beq.n	8003d2c <prvCopyDataFromQueue+0x44>
 8003cfa:	687b      	ldr	r3, [r7, #4]
 8003cfc:	68da      	ldr	r2, [r3, #12]
 8003cfe:	687b      	ldr	r3, [r7, #4]
 8003d00:	6c1b      	ldr	r3, [r3, #64]	; 0x40
 8003d02:	441a      	add	r2, r3
 8003d04:	687b      	ldr	r3, [r7, #4]
 8003d06:	60da      	str	r2, [r3, #12]
 8003d08:	687b      	ldr	r3, [r7, #4]
 8003d0a:	68da      	ldr	r2, [r3, #12]
 8003d0c:	687b      	ldr	r3, [r7, #4]
 8003d0e:	689b      	ldr	r3, [r3, #8]
 8003d10:	429a      	cmp	r2, r3
 8003d12:	d303      	bcc.n	8003d1c <prvCopyDataFromQueue+0x34>
 8003d14:	687b      	ldr	r3, [r7, #4]
 8003d16:	681a      	ldr	r2, [r3, #0]
 8003d18:	687b      	ldr	r3, [r7, #4]
 8003d1a:	60da      	str	r2, [r3, #12]
 8003d1c:	687b      	ldr	r3, [r7, #4]
 8003d1e:	68d9      	ldr	r1, [r3, #12]
 8003d20:	687b      	ldr	r3, [r7, #4]
 8003d22:	6c1b      	ldr	r3, [r3, #64]	; 0x40
 8003d24:	461a      	mov	r2, r3
 8003d26:	6838      	ldr	r0, [r7, #0]
 8003d28:	f001 ff92 	bl	8005c50 <memcpy>
 8003d2c:	bf00      	nop
 8003d2e:	3708      	adds	r7, #8
 8003d30:	46bd      	mov	sp, r7
 8003d32:	bd80      	pop	{r7, pc}

08003d34 <prvUnlockQueue>:
 8003d34:	b580      	push	{r7, lr}
 8003d36:	b084      	sub	sp, #16
 8003d38:	af00      	add	r7, sp, #0
 8003d3a:	6078      	str	r0, [r7, #4]
 8003d3c:	f001 fc52 	bl	80055e4 <vPortEnterCritical>
 8003d40:	687b      	ldr	r3, [r7, #4]
 8003d42:	f893 3045 	ldrb.w	r3, [r3, #69]	; 0x45
 8003d46:	73fb      	strb	r3, [r7, #15]
 8003d48:	e011      	b.n	8003d6e <prvUnlockQueue+0x3a>
 8003d4a:	687b      	ldr	r3, [r7, #4]
 8003d4c:	6a5b      	ldr	r3, [r3, #36]	; 0x24
 8003d4e:	2b00      	cmp	r3, #0
 8003d50:	d012      	beq.n	8003d78 <prvUnlockQueue+0x44>
 8003d52:	687b      	ldr	r3, [r7, #4]
 8003d54:	3324      	adds	r3, #36	; 0x24
 8003d56:	4618      	mov	r0, r3
 8003d58:	f000 fd2a 	bl	80047b0 <xTaskRemoveFromEventList>
 8003d5c:	4603      	mov	r3, r0
 8003d5e:	2b00      	cmp	r3, #0
 8003d60:	d001      	beq.n	8003d66 <prvUnlockQueue+0x32>
 8003d62:	f000 fe01 	bl	8004968 <vTaskMissedYield>
 8003d66:	7bfb      	ldrb	r3, [r7, #15]
 8003d68:	3b01      	subs	r3, #1
 8003d6a:	b2db      	uxtb	r3, r3
 8003d6c:	73fb      	strb	r3, [r7, #15]
 8003d6e:	f997 300f 	ldrsb.w	r3, [r7, #15]
 8003d72:	2b00      	cmp	r3, #0
 8003d74:	dce9      	bgt.n	8003d4a <prvUnlockQueue+0x16>
 8003d76:	e000      	b.n	8003d7a <prvUnlockQueue+0x46>
 8003d78:	bf00      	nop
 8003d7a:	687b      	ldr	r3, [r7, #4]
 8003d7c:	22ff      	movs	r2, #255	; 0xff
 8003d7e:	f883 2045 	strb.w	r2, [r3, #69]	; 0x45
 8003d82:	f001 fc5f 	bl	8005644 <vPortExitCritical>
 8003d86:	f001 fc2d 	bl	80055e4 <vPortEnterCritical>
 8003d8a:	687b      	ldr	r3, [r7, #4]
 8003d8c:	f893 3044 	ldrb.w	r3, [r3, #68]	; 0x44
 8003d90:	73bb      	strb	r3, [r7, #14]
 8003d92:	e011      	b.n	8003db8 <prvUnlockQueue+0x84>
 8003d94:	687b      	ldr	r3, [r7, #4]
 8003d96:	691b      	ldr	r3, [r3, #16]
 8003d98:	2b00      	cmp	r3, #0
 8003d9a:	d012      	beq.n	8003dc2 <prvUnlockQueue+0x8e>
 8003d9c:	687b      	ldr	r3, [r7, #4]
 8003d9e:	3310      	adds	r3, #16
 8003da0:	4618      	mov	r0, r3
 8003da2:	f000 fd05 	bl	80047b0 <xTaskRemoveFromEventList>
 8003da6:	4603      	mov	r3, r0
 8003da8:	2b00      	cmp	r3, #0
 8003daa:	d001      	beq.n	8003db0 <prvUnlockQueue+0x7c>
 8003dac:	f000 fddc 	bl	8004968 <vTaskMissedYield>
 8003db0:	7bbb      	ldrb	r3, [r7, #14]
 8003db2:	3b01      	subs	r3, #1
 8003db4:	b2db      	uxtb	r3, r3
 8003db6:	73bb      	strb	r3, [r7, #14]
 8003db8:	f997 300e 	ldrsb.w	r3, [r7, #14]
 8003dbc:	2b00      	cmp	r3, #0
 8003dbe:	dce9      	bgt.n	8003d94 <prvUnlockQueue+0x60>
 8003dc0:	e000      	b.n	8003dc4 <prvUnlockQueue+0x90>
 8003dc2:	bf00      	nop
 8003dc4:	687b      	ldr	r3, [r7, #4]
 8003dc6:	22ff      	movs	r2, #255	; 0xff
 8003dc8:	f883 2044 	strb.w	r2, [r3, #68]	; 0x44
 8003dcc:	f001 fc3a 	bl	8005644 <vPortExitCritical>
 8003dd0:	bf00      	nop
 8003dd2:	3710      	adds	r7, #16
 8003dd4:	46bd      	mov	sp, r7
 8003dd6:	bd80      	pop	{r7, pc}

08003dd8 <prvIsQueueEmpty>:
 8003dd8:	b580      	push	{r7, lr}
 8003dda:	b084      	sub	sp, #16
 8003ddc:	af00      	add	r7, sp, #0
 8003dde:	6078      	str	r0, [r7, #4]
 8003de0:	f001 fc00 	bl	80055e4 <vPortEnterCritical>
 8003de4:	687b      	ldr	r3, [r7, #4]
 8003de6:	6b9b      	ldr	r3, [r3, #56]	; 0x38
 8003de8:	2b00      	cmp	r3, #0
 8003dea:	d102      	bne.n	8003df2 <prvIsQueueEmpty+0x1a>
 8003dec:	2301      	movs	r3, #1
 8003dee:	60fb      	str	r3, [r7, #12]
 8003df0:	e001      	b.n	8003df6 <prvIsQueueEmpty+0x1e>
 8003df2:	2300      	movs	r3, #0
 8003df4:	60fb      	str	r3, [r7, #12]
 8003df6:	f001 fc25 	bl	8005644 <vPortExitCritical>
 8003dfa:	68fb      	ldr	r3, [r7, #12]
 8003dfc:	4618      	mov	r0, r3
 8003dfe:	3710      	adds	r7, #16
 8003e00:	46bd      	mov	sp, r7
 8003e02:	bd80      	pop	{r7, pc}

08003e04 <prvIsQueueFull>:
 8003e04:	b580      	push	{r7, lr}
 8003e06:	b084      	sub	sp, #16
 8003e08:	af00      	add	r7, sp, #0
 8003e0a:	6078      	str	r0, [r7, #4]
 8003e0c:	f001 fbea 	bl	80055e4 <vPortEnterCritical>
 8003e10:	687b      	ldr	r3, [r7, #4]
 8003e12:	6b9a      	ldr	r2, [r3, #56]	; 0x38
 8003e14:	687b      	ldr	r3, [r7, #4]
 8003e16:	6bdb      	ldr	r3, [r3, #60]	; 0x3c
 8003e18:	429a      	cmp	r2, r3
 8003e1a:	d102      	bne.n	8003e22 <prvIsQueueFull+0x1e>
 8003e1c:	2301      	movs	r3, #1
 8003e1e:	60fb      	str	r3, [r7, #12]
 8003e20:	e001      	b.n	8003e26 <prvIsQueueFull+0x22>
 8003e22:	2300      	movs	r3, #0
 8003e24:	60fb      	str	r3, [r7, #12]
 8003e26:	f001 fc0d 	bl	8005644 <vPortExitCritical>
 8003e2a:	68fb      	ldr	r3, [r7, #12]
 8003e2c:	4618      	mov	r0, r3
 8003e2e:	3710      	adds	r7, #16
 8003e30:	46bd      	mov	sp, r7
 8003e32:	bd80      	pop	{r7, pc}

08003e34 <vQueueAddToRegistry>:
 8003e34:	b480      	push	{r7}
 8003e36:	b085      	sub	sp, #20
 8003e38:	af00      	add	r7, sp, #0
 8003e3a:	6078      	str	r0, [r7, #4]
 8003e3c:	6039      	str	r1, [r7, #0]
 8003e3e:	2300      	movs	r3, #0
 8003e40:	60fb      	str	r3, [r7, #12]
 8003e42:	e014      	b.n	8003e6e <vQueueAddToRegistry+0x3a>
 8003e44:	4a0f      	ldr	r2, [pc, #60]	; (8003e84 <vQueueAddToRegistry+0x50>)
 8003e46:	68fb      	ldr	r3, [r7, #12]
 8003e48:	f852 3033 	ldr.w	r3, [r2, r3, lsl #3]
 8003e4c:	2b00      	cmp	r3, #0
 8003e4e:	d10b      	bne.n	8003e68 <vQueueAddToRegistry+0x34>
 8003e50:	490c      	ldr	r1, [pc, #48]	; (8003e84 <vQueueAddToRegistry+0x50>)
 8003e52:	68fb      	ldr	r3, [r7, #12]
 8003e54:	683a      	ldr	r2, [r7, #0]
 8003e56:	f841 2033 	str.w	r2, [r1, r3, lsl #3]
 8003e5a:	4a0a      	ldr	r2, [pc, #40]	; (8003e84 <vQueueAddToRegistry+0x50>)
 8003e5c:	68fb      	ldr	r3, [r7, #12]
 8003e5e:	00db      	lsls	r3, r3, #3
 8003e60:	4413      	add	r3, r2
 8003e62:	687a      	ldr	r2, [r7, #4]
 8003e64:	605a      	str	r2, [r3, #4]
 8003e66:	e006      	b.n	8003e76 <vQueueAddToRegistry+0x42>
 8003e68:	68fb      	ldr	r3, [r7, #12]
 8003e6a:	3301      	adds	r3, #1
 8003e6c:	60fb      	str	r3, [r7, #12]
 8003e6e:	68fb      	ldr	r3, [r7, #12]
 8003e70:	2b07      	cmp	r3, #7
 8003e72:	d9e7      	bls.n	8003e44 <vQueueAddToRegistry+0x10>
 8003e74:	bf00      	nop
 8003e76:	bf00      	nop
 8003e78:	3714      	adds	r7, #20
 8003e7a:	46bd      	mov	sp, r7
 8003e7c:	f85d 7b04 	ldr.w	r7, [sp], #4
 8003e80:	4770      	bx	lr
 8003e82:	bf00      	nop
 8003e84:	20000924 	.word	0x20000924

08003e88 <vQueueWaitForMessageRestricted>:
 8003e88:	b580      	push	{r7, lr}
 8003e8a:	b086      	sub	sp, #24
 8003e8c:	af00      	add	r7, sp, #0
 8003e8e:	60f8      	str	r0, [r7, #12]
 8003e90:	60b9      	str	r1, [r7, #8]
 8003e92:	607a      	str	r2, [r7, #4]
 8003e94:	68fb      	ldr	r3, [r7, #12]
 8003e96:	617b      	str	r3, [r7, #20]
 8003e98:	f001 fba4 	bl	80055e4 <vPortEnterCritical>
 8003e9c:	697b      	ldr	r3, [r7, #20]
 8003e9e:	f893 3044 	ldrb.w	r3, [r3, #68]	; 0x44
 8003ea2:	b25b      	sxtb	r3, r3
 8003ea4:	f1b3 3fff 	cmp.w	r3, #4294967295
 8003ea8:	d103      	bne.n	8003eb2 <vQueueWaitForMessageRestricted+0x2a>
 8003eaa:	697b      	ldr	r3, [r7, #20]
 8003eac:	2200      	movs	r2, #0
 8003eae:	f883 2044 	strb.w	r2, [r3, #68]	; 0x44
 8003eb2:	697b      	ldr	r3, [r7, #20]
 8003eb4:	f893 3045 	ldrb.w	r3, [r3, #69]	; 0x45
 8003eb8:	b25b      	sxtb	r3, r3
 8003eba:	f1b3 3fff 	cmp.w	r3, #4294967295
 8003ebe:	d103      	bne.n	8003ec8 <vQueueWaitForMessageRestricted+0x40>
 8003ec0:	697b      	ldr	r3, [r7, #20]
 8003ec2:	2200      	movs	r2, #0
 8003ec4:	f883 2045 	strb.w	r2, [r3, #69]	; 0x45
 8003ec8:	f001 fbbc 	bl	8005644 <vPortExitCritical>
 8003ecc:	697b      	ldr	r3, [r7, #20]
 8003ece:	6b9b      	ldr	r3, [r3, #56]	; 0x38
 8003ed0:	2b00      	cmp	r3, #0
 8003ed2:	d106      	bne.n	8003ee2 <vQueueWaitForMessageRestricted+0x5a>
 8003ed4:	697b      	ldr	r3, [r7, #20]
 8003ed6:	3324      	adds	r3, #36	; 0x24
 8003ed8:	687a      	ldr	r2, [r7, #4]
 8003eda:	68b9      	ldr	r1, [r7, #8]
 8003edc:	4618      	mov	r0, r3
 8003ede:	f000 fc3b 	bl	8004758 <vTaskPlaceOnEventListRestricted>
 8003ee2:	6978      	ldr	r0, [r7, #20]
 8003ee4:	f7ff ff26 	bl	8003d34 <prvUnlockQueue>
 8003ee8:	bf00      	nop
 8003eea:	3718      	adds	r7, #24
 8003eec:	46bd      	mov	sp, r7
 8003eee:	bd80      	pop	{r7, pc}

08003ef0 <xTaskCreateStatic>:
 8003ef0:	b580      	push	{r7, lr}
 8003ef2:	b08e      	sub	sp, #56	; 0x38
 8003ef4:	af04      	add	r7, sp, #16
 8003ef6:	60f8      	str	r0, [r7, #12]
 8003ef8:	60b9      	str	r1, [r7, #8]
 8003efa:	607a      	str	r2, [r7, #4]
 8003efc:	603b      	str	r3, [r7, #0]
 8003efe:	6b7b      	ldr	r3, [r7, #52]	; 0x34
 8003f00:	2b00      	cmp	r3, #0
 8003f02:	d10a      	bne.n	8003f1a <xTaskCreateStatic+0x2a>
 8003f04:	f04f 0350 	mov.w	r3, #80	; 0x50
 8003f08:	f383 8811 	msr	BASEPRI, r3
 8003f0c:	f3bf 8f6f 	isb	sy
 8003f10:	f3bf 8f4f 	dsb	sy
 8003f14:	623b      	str	r3, [r7, #32]
 8003f16:	bf00      	nop
 8003f18:	e7fe      	b.n	8003f18 <xTaskCreateStatic+0x28>
 8003f1a:	6bbb      	ldr	r3, [r7, #56]	; 0x38
 8003f1c:	2b00      	cmp	r3, #0
 8003f1e:	d10a      	bne.n	8003f36 <xTaskCreateStatic+0x46>
 8003f20:	f04f 0350 	mov.w	r3, #80	; 0x50
 8003f24:	f383 8811 	msr	BASEPRI, r3
 8003f28:	f3bf 8f6f 	isb	sy
 8003f2c:	f3bf 8f4f 	dsb	sy
 8003f30:	61fb      	str	r3, [r7, #28]
 8003f32:	bf00      	nop
 8003f34:	e7fe      	b.n	8003f34 <xTaskCreateStatic+0x44>
 8003f36:	235c      	movs	r3, #92	; 0x5c
 8003f38:	613b      	str	r3, [r7, #16]
 8003f3a:	693b      	ldr	r3, [r7, #16]
 8003f3c:	2b5c      	cmp	r3, #92	; 0x5c
 8003f3e:	d00a      	beq.n	8003f56 <xTaskCreateStatic+0x66>
 8003f40:	f04f 0350 	mov.w	r3, #80	; 0x50
 8003f44:	f383 8811 	msr	BASEPRI, r3
 8003f48:	f3bf 8f6f 	isb	sy
 8003f4c:	f3bf 8f4f 	dsb	sy
 8003f50:	61bb      	str	r3, [r7, #24]
 8003f52:	bf00      	nop
 8003f54:	e7fe      	b.n	8003f54 <xTaskCreateStatic+0x64>
 8003f56:	693b      	ldr	r3, [r7, #16]
 8003f58:	6bbb      	ldr	r3, [r7, #56]	; 0x38
 8003f5a:	2b00      	cmp	r3, #0
 8003f5c:	d01e      	beq.n	8003f9c <xTaskCreateStatic+0xac>
 8003f5e:	6b7b      	ldr	r3, [r7, #52]	; 0x34
 8003f60:	2b00      	cmp	r3, #0
 8003f62:	d01b      	beq.n	8003f9c <xTaskCreateStatic+0xac>
 8003f64:	6bbb      	ldr	r3, [r7, #56]	; 0x38
 8003f66:	627b      	str	r3, [r7, #36]	; 0x24
 8003f68:	6a7b      	ldr	r3, [r7, #36]	; 0x24
 8003f6a:	6b7a      	ldr	r2, [r7, #52]	; 0x34
 8003f6c:	631a      	str	r2, [r3, #48]	; 0x30
 8003f6e:	6a7b      	ldr	r3, [r7, #36]	; 0x24
 8003f70:	2202      	movs	r2, #2
 8003f72:	f883 2059 	strb.w	r2, [r3, #89]	; 0x59
 8003f76:	2300      	movs	r3, #0
 8003f78:	9303      	str	r3, [sp, #12]
 8003f7a:	6a7b      	ldr	r3, [r7, #36]	; 0x24
 8003f7c:	9302      	str	r3, [sp, #8]
 8003f7e:	f107 0314 	add.w	r3, r7, #20
 8003f82:	9301      	str	r3, [sp, #4]
 8003f84:	6b3b      	ldr	r3, [r7, #48]	; 0x30
 8003f86:	9300      	str	r3, [sp, #0]
 8003f88:	683b      	ldr	r3, [r7, #0]
 8003f8a:	687a      	ldr	r2, [r7, #4]
 8003f8c:	68b9      	ldr	r1, [r7, #8]
 8003f8e:	68f8      	ldr	r0, [r7, #12]
 8003f90:	f000 f850 	bl	8004034 <prvInitialiseNewTask>
 8003f94:	6a78      	ldr	r0, [r7, #36]	; 0x24
 8003f96:	f000 f8dd 	bl	8004154 <prvAddNewTaskToReadyList>
 8003f9a:	e001      	b.n	8003fa0 <xTaskCreateStatic+0xb0>
 8003f9c:	2300      	movs	r3, #0
 8003f9e:	617b      	str	r3, [r7, #20]
 8003fa0:	697b      	ldr	r3, [r7, #20]
 8003fa2:	4618      	mov	r0, r3
 8003fa4:	3728      	adds	r7, #40	; 0x28
 8003fa6:	46bd      	mov	sp, r7
 8003fa8:	bd80      	pop	{r7, pc}

08003faa <xTaskCreate>:
 8003faa:	b580      	push	{r7, lr}
 8003fac:	b08c      	sub	sp, #48	; 0x30
 8003fae:	af04      	add	r7, sp, #16
 8003fb0:	60f8      	str	r0, [r7, #12]
 8003fb2:	60b9      	str	r1, [r7, #8]
 8003fb4:	603b      	str	r3, [r7, #0]
 8003fb6:	4613      	mov	r3, r2
 8003fb8:	80fb      	strh	r3, [r7, #6]
 8003fba:	88fb      	ldrh	r3, [r7, #6]
 8003fbc:	009b      	lsls	r3, r3, #2
 8003fbe:	4618      	mov	r0, r3
 8003fc0:	f001 fc32 	bl	8005828 <pvPortMalloc>
 8003fc4:	6178      	str	r0, [r7, #20]
 8003fc6:	697b      	ldr	r3, [r7, #20]
 8003fc8:	2b00      	cmp	r3, #0
 8003fca:	d00e      	beq.n	8003fea <xTaskCreate+0x40>
 8003fcc:	205c      	movs	r0, #92	; 0x5c
 8003fce:	f001 fc2b 	bl	8005828 <pvPortMalloc>
 8003fd2:	61f8      	str	r0, [r7, #28]
 8003fd4:	69fb      	ldr	r3, [r7, #28]
 8003fd6:	2b00      	cmp	r3, #0
 8003fd8:	d003      	beq.n	8003fe2 <xTaskCreate+0x38>
 8003fda:	69fb      	ldr	r3, [r7, #28]
 8003fdc:	697a      	ldr	r2, [r7, #20]
 8003fde:	631a      	str	r2, [r3, #48]	; 0x30
 8003fe0:	e005      	b.n	8003fee <xTaskCreate+0x44>
 8003fe2:	6978      	ldr	r0, [r7, #20]
 8003fe4:	f001 fcec 	bl	80059c0 <vPortFree>
 8003fe8:	e001      	b.n	8003fee <xTaskCreate+0x44>
 8003fea:	2300      	movs	r3, #0
 8003fec:	61fb      	str	r3, [r7, #28]
 8003fee:	69fb      	ldr	r3, [r7, #28]
 8003ff0:	2b00      	cmp	r3, #0
 8003ff2:	d017      	beq.n	8004024 <xTaskCreate+0x7a>
 8003ff4:	69fb      	ldr	r3, [r7, #28]
 8003ff6:	2200      	movs	r2, #0
 8003ff8:	f883 2059 	strb.w	r2, [r3, #89]	; 0x59
 8003ffc:	88fa      	ldrh	r2, [r7, #6]
 8003ffe:	2300      	movs	r3, #0
 8004000:	9303      	str	r3, [sp, #12]
 8004002:	69fb      	ldr	r3, [r7, #28]
 8004004:	9302      	str	r3, [sp, #8]
 8004006:	6afb      	ldr	r3, [r7, #44]	; 0x2c
 8004008:	9301      	str	r3, [sp, #4]
 800400a:	6abb      	ldr	r3, [r7, #40]	; 0x28
 800400c:	9300      	str	r3, [sp, #0]
 800400e:	683b      	ldr	r3, [r7, #0]
 8004010:	68b9      	ldr	r1, [r7, #8]
 8004012:	68f8      	ldr	r0, [r7, #12]
 8004014:	f000 f80e 	bl	8004034 <prvInitialiseNewTask>
 8004018:	69f8      	ldr	r0, [r7, #28]
 800401a:	f000 f89b 	bl	8004154 <prvAddNewTaskToReadyList>
 800401e:	2301      	movs	r3, #1
 8004020:	61bb      	str	r3, [r7, #24]
 8004022:	e002      	b.n	800402a <xTaskCreate+0x80>
 8004024:	f04f 33ff 	mov.w	r3, #4294967295
 8004028:	61bb      	str	r3, [r7, #24]
 800402a:	69bb      	ldr	r3, [r7, #24]
 800402c:	4618      	mov	r0, r3
 800402e:	3720      	adds	r7, #32
 8004030:	46bd      	mov	sp, r7
 8004032:	bd80      	pop	{r7, pc}

08004034 <prvInitialiseNewTask>:
 8004034:	b580      	push	{r7, lr}
 8004036:	b088      	sub	sp, #32
 8004038:	af00      	add	r7, sp, #0
 800403a:	60f8      	str	r0, [r7, #12]
 800403c:	60b9      	str	r1, [r7, #8]
 800403e:	607a      	str	r2, [r7, #4]
 8004040:	603b      	str	r3, [r7, #0]
 8004042:	6b3b      	ldr	r3, [r7, #48]	; 0x30
 8004044:	6b18      	ldr	r0, [r3, #48]	; 0x30
 8004046:	687b      	ldr	r3, [r7, #4]
 8004048:	009b      	lsls	r3, r3, #2
 800404a:	461a      	mov	r2, r3
 800404c:	21a5      	movs	r1, #165	; 0xa5
 800404e:	f001 fe0d 	bl	8005c6c <memset>
 8004052:	6b3b      	ldr	r3, [r7, #48]	; 0x30
 8004054:	6b1a      	ldr	r2, [r3, #48]	; 0x30
 8004056:	687b      	ldr	r3, [r7, #4]
 8004058:	f103 4380 	add.w	r3, r3, #1073741824	; 0x40000000
 800405c:	3b01      	subs	r3, #1
 800405e:	009b      	lsls	r3, r3, #2
 8004060:	4413      	add	r3, r2
 8004062:	61bb      	str	r3, [r7, #24]
 8004064:	69bb      	ldr	r3, [r7, #24]
 8004066:	f023 0307 	bic.w	r3, r3, #7
 800406a:	61bb      	str	r3, [r7, #24]
 800406c:	69bb      	ldr	r3, [r7, #24]
 800406e:	f003 0307 	and.w	r3, r3, #7
 8004072:	2b00      	cmp	r3, #0
 8004074:	d00a      	beq.n	800408c <prvInitialiseNewTask+0x58>
 8004076:	f04f 0350 	mov.w	r3, #80	; 0x50
 800407a:	f383 8811 	msr	BASEPRI, r3
 800407e:	f3bf 8f6f 	isb	sy
 8004082:	f3bf 8f4f 	dsb	sy
 8004086:	617b      	str	r3, [r7, #20]
 8004088:	bf00      	nop
 800408a:	e7fe      	b.n	800408a <prvInitialiseNewTask+0x56>
 800408c:	68bb      	ldr	r3, [r7, #8]
 800408e:	2b00      	cmp	r3, #0
 8004090:	d01f      	beq.n	80040d2 <prvInitialiseNewTask+0x9e>
 8004092:	2300      	movs	r3, #0
 8004094:	61fb      	str	r3, [r7, #28]
 8004096:	e012      	b.n	80040be <prvInitialiseNewTask+0x8a>
 8004098:	68ba      	ldr	r2, [r7, #8]
 800409a:	69fb      	ldr	r3, [r7, #28]
 800409c:	4413      	add	r3, r2
 800409e:	7819      	ldrb	r1, [r3, #0]
 80040a0:	6b3a      	ldr	r2, [r7, #48]	; 0x30
 80040a2:	69fb      	ldr	r3, [r7, #28]
 80040a4:	4413      	add	r3, r2
 80040a6:	3334      	adds	r3, #52	; 0x34
 80040a8:	460a      	mov	r2, r1
 80040aa:	701a      	strb	r2, [r3, #0]
 80040ac:	68ba      	ldr	r2, [r7, #8]
 80040ae:	69fb      	ldr	r3, [r7, #28]
 80040b0:	4413      	add	r3, r2
 80040b2:	781b      	ldrb	r3, [r3, #0]
 80040b4:	2b00      	cmp	r3, #0
 80040b6:	d006      	beq.n	80040c6 <prvInitialiseNewTask+0x92>
 80040b8:	69fb      	ldr	r3, [r7, #28]
 80040ba:	3301      	adds	r3, #1
 80040bc:	61fb      	str	r3, [r7, #28]
 80040be:	69fb      	ldr	r3, [r7, #28]
 80040c0:	2b0f      	cmp	r3, #15
 80040c2:	d9e9      	bls.n	8004098 <prvInitialiseNewTask+0x64>
 80040c4:	e000      	b.n	80040c8 <prvInitialiseNewTask+0x94>
 80040c6:	bf00      	nop
 80040c8:	6b3b      	ldr	r3, [r7, #48]	; 0x30
 80040ca:	2200      	movs	r2, #0
 80040cc:	f883 2043 	strb.w	r2, [r3, #67]	; 0x43
 80040d0:	e003      	b.n	80040da <prvInitialiseNewTask+0xa6>
 80040d2:	6b3b      	ldr	r3, [r7, #48]	; 0x30
 80040d4:	2200      	movs	r2, #0
 80040d6:	f883 2034 	strb.w	r2, [r3, #52]	; 0x34
 80040da:	6abb      	ldr	r3, [r7, #40]	; 0x28
 80040dc:	2b37      	cmp	r3, #55	; 0x37
 80040de:	d901      	bls.n	80040e4 <prvInitialiseNewTask+0xb0>
 80040e0:	2337      	movs	r3, #55	; 0x37
 80040e2:	62bb      	str	r3, [r7, #40]	; 0x28
 80040e4:	6b3b      	ldr	r3, [r7, #48]	; 0x30
 80040e6:	6aba      	ldr	r2, [r7, #40]	; 0x28
 80040e8:	62da      	str	r2, [r3, #44]	; 0x2c
 80040ea:	6b3b      	ldr	r3, [r7, #48]	; 0x30
 80040ec:	6aba      	ldr	r2, [r7, #40]	; 0x28
 80040ee:	64da      	str	r2, [r3, #76]	; 0x4c
 80040f0:	6b3b      	ldr	r3, [r7, #48]	; 0x30
 80040f2:	2200      	movs	r2, #0
 80040f4:	651a      	str	r2, [r3, #80]	; 0x50
 80040f6:	6b3b      	ldr	r3, [r7, #48]	; 0x30
 80040f8:	3304      	adds	r3, #4
 80040fa:	4618      	mov	r0, r3
 80040fc:	f7ff f978 	bl	80033f0 <vListInitialiseItem>
 8004100:	6b3b      	ldr	r3, [r7, #48]	; 0x30
 8004102:	3318      	adds	r3, #24
 8004104:	4618      	mov	r0, r3
 8004106:	f7ff f973 	bl	80033f0 <vListInitialiseItem>
 800410a:	6b3b      	ldr	r3, [r7, #48]	; 0x30
 800410c:	6b3a      	ldr	r2, [r7, #48]	; 0x30
 800410e:	611a      	str	r2, [r3, #16]
 8004110:	6abb      	ldr	r3, [r7, #40]	; 0x28
 8004112:	f1c3 0238 	rsb	r2, r3, #56	; 0x38
 8004116:	6b3b      	ldr	r3, [r7, #48]	; 0x30
 8004118:	619a      	str	r2, [r3, #24]
 800411a:	6b3b      	ldr	r3, [r7, #48]	; 0x30
 800411c:	6b3a      	ldr	r2, [r7, #48]	; 0x30
 800411e:	625a      	str	r2, [r3, #36]	; 0x24
 8004120:	6b3b      	ldr	r3, [r7, #48]	; 0x30
 8004122:	2200      	movs	r2, #0
 8004124:	655a      	str	r2, [r3, #84]	; 0x54
 8004126:	6b3b      	ldr	r3, [r7, #48]	; 0x30
 8004128:	2200      	movs	r2, #0
 800412a:	f883 2058 	strb.w	r2, [r3, #88]	; 0x58
 800412e:	683a      	ldr	r2, [r7, #0]
 8004130:	68f9      	ldr	r1, [r7, #12]
 8004132:	69b8      	ldr	r0, [r7, #24]
 8004134:	f001 f928 	bl	8005388 <pxPortInitialiseStack>
 8004138:	4602      	mov	r2, r0
 800413a:	6b3b      	ldr	r3, [r7, #48]	; 0x30
 800413c:	601a      	str	r2, [r3, #0]
 800413e:	6afb      	ldr	r3, [r7, #44]	; 0x2c
 8004140:	2b00      	cmp	r3, #0
 8004142:	d002      	beq.n	800414a <prvInitialiseNewTask+0x116>
 8004144:	6afb      	ldr	r3, [r7, #44]	; 0x2c
 8004146:	6b3a      	ldr	r2, [r7, #48]	; 0x30
 8004148:	601a      	str	r2, [r3, #0]
 800414a:	bf00      	nop
 800414c:	3720      	adds	r7, #32
 800414e:	46bd      	mov	sp, r7
 8004150:	bd80      	pop	{r7, pc}
	...

08004154 <prvAddNewTaskToReadyList>:
 8004154:	b580      	push	{r7, lr}
 8004156:	b082      	sub	sp, #8
 8004158:	af00      	add	r7, sp, #0
 800415a:	6078      	str	r0, [r7, #4]
 800415c:	f001 fa42 	bl	80055e4 <vPortEnterCritical>
 8004160:	4b2d      	ldr	r3, [pc, #180]	; (8004218 <prvAddNewTaskToReadyList+0xc4>)
 8004162:	681b      	ldr	r3, [r3, #0]
 8004164:	3301      	adds	r3, #1
 8004166:	4a2c      	ldr	r2, [pc, #176]	; (8004218 <prvAddNewTaskToReadyList+0xc4>)
 8004168:	6013      	str	r3, [r2, #0]
 800416a:	4b2c      	ldr	r3, [pc, #176]	; (800421c <prvAddNewTaskToReadyList+0xc8>)
 800416c:	681b      	ldr	r3, [r3, #0]
 800416e:	2b00      	cmp	r3, #0
 8004170:	d109      	bne.n	8004186 <prvAddNewTaskToReadyList+0x32>
 8004172:	4a2a      	ldr	r2, [pc, #168]	; (800421c <prvAddNewTaskToReadyList+0xc8>)
 8004174:	687b      	ldr	r3, [r7, #4]
 8004176:	6013      	str	r3, [r2, #0]
 8004178:	4b27      	ldr	r3, [pc, #156]	; (8004218 <prvAddNewTaskToReadyList+0xc4>)
 800417a:	681b      	ldr	r3, [r3, #0]
 800417c:	2b01      	cmp	r3, #1
 800417e:	d110      	bne.n	80041a2 <prvAddNewTaskToReadyList+0x4e>
 8004180:	f000 fc16 	bl	80049b0 <prvInitialiseTaskLists>
 8004184:	e00d      	b.n	80041a2 <prvAddNewTaskToReadyList+0x4e>
 8004186:	4b26      	ldr	r3, [pc, #152]	; (8004220 <prvAddNewTaskToReadyList+0xcc>)
 8004188:	681b      	ldr	r3, [r3, #0]
 800418a:	2b00      	cmp	r3, #0
 800418c:	d109      	bne.n	80041a2 <prvAddNewTaskToReadyList+0x4e>
 800418e:	4b23      	ldr	r3, [pc, #140]	; (800421c <prvAddNewTaskToReadyList+0xc8>)
 8004190:	681b      	ldr	r3, [r3, #0]
 8004192:	6ada      	ldr	r2, [r3, #44]	; 0x2c
 8004194:	687b      	ldr	r3, [r7, #4]
 8004196:	6adb      	ldr	r3, [r3, #44]	; 0x2c
 8004198:	429a      	cmp	r2, r3
 800419a:	d802      	bhi.n	80041a2 <prvAddNewTaskToReadyList+0x4e>
 800419c:	4a1f      	ldr	r2, [pc, #124]	; (800421c <prvAddNewTaskToReadyList+0xc8>)
 800419e:	687b      	ldr	r3, [r7, #4]
 80041a0:	6013      	str	r3, [r2, #0]
 80041a2:	4b20      	ldr	r3, [pc, #128]	; (8004224 <prvAddNewTaskToReadyList+0xd0>)
 80041a4:	681b      	ldr	r3, [r3, #0]
 80041a6:	3301      	adds	r3, #1
 80041a8:	4a1e      	ldr	r2, [pc, #120]	; (8004224 <prvAddNewTaskToReadyList+0xd0>)
 80041aa:	6013      	str	r3, [r2, #0]
 80041ac:	4b1d      	ldr	r3, [pc, #116]	; (8004224 <prvAddNewTaskToReadyList+0xd0>)
 80041ae:	681a      	ldr	r2, [r3, #0]
 80041b0:	687b      	ldr	r3, [r7, #4]
 80041b2:	645a      	str	r2, [r3, #68]	; 0x44
 80041b4:	687b      	ldr	r3, [r7, #4]
 80041b6:	6ada      	ldr	r2, [r3, #44]	; 0x2c
 80041b8:	4b1b      	ldr	r3, [pc, #108]	; (8004228 <prvAddNewTaskToReadyList+0xd4>)
 80041ba:	681b      	ldr	r3, [r3, #0]
 80041bc:	429a      	cmp	r2, r3
 80041be:	d903      	bls.n	80041c8 <prvAddNewTaskToReadyList+0x74>
 80041c0:	687b      	ldr	r3, [r7, #4]
 80041c2:	6adb      	ldr	r3, [r3, #44]	; 0x2c
 80041c4:	4a18      	ldr	r2, [pc, #96]	; (8004228 <prvAddNewTaskToReadyList+0xd4>)
 80041c6:	6013      	str	r3, [r2, #0]
 80041c8:	687b      	ldr	r3, [r7, #4]
 80041ca:	6ada      	ldr	r2, [r3, #44]	; 0x2c
 80041cc:	4613      	mov	r3, r2
 80041ce:	009b      	lsls	r3, r3, #2
 80041d0:	4413      	add	r3, r2
 80041d2:	009b      	lsls	r3, r3, #2
 80041d4:	4a15      	ldr	r2, [pc, #84]	; (800422c <prvAddNewTaskToReadyList+0xd8>)
 80041d6:	441a      	add	r2, r3
 80041d8:	687b      	ldr	r3, [r7, #4]
 80041da:	3304      	adds	r3, #4
 80041dc:	4619      	mov	r1, r3
 80041de:	4610      	mov	r0, r2
 80041e0:	f7ff f913 	bl	800340a <vListInsertEnd>
 80041e4:	f001 fa2e 	bl	8005644 <vPortExitCritical>
 80041e8:	4b0d      	ldr	r3, [pc, #52]	; (8004220 <prvAddNewTaskToReadyList+0xcc>)
 80041ea:	681b      	ldr	r3, [r3, #0]
 80041ec:	2b00      	cmp	r3, #0
 80041ee:	d00e      	beq.n	800420e <prvAddNewTaskToReadyList+0xba>
 80041f0:	4b0a      	ldr	r3, [pc, #40]	; (800421c <prvAddNewTaskToReadyList+0xc8>)
 80041f2:	681b      	ldr	r3, [r3, #0]
 80041f4:	6ada      	ldr	r2, [r3, #44]	; 0x2c
 80041f6:	687b      	ldr	r3, [r7, #4]
 80041f8:	6adb      	ldr	r3, [r3, #44]	; 0x2c
 80041fa:	429a      	cmp	r2, r3
 80041fc:	d207      	bcs.n	800420e <prvAddNewTaskToReadyList+0xba>
 80041fe:	4b0c      	ldr	r3, [pc, #48]	; (8004230 <prvAddNewTaskToReadyList+0xdc>)
 8004200:	f04f 5280 	mov.w	r2, #268435456	; 0x10000000
 8004204:	601a      	str	r2, [r3, #0]
 8004206:	f3bf 8f4f 	dsb	sy
 800420a:	f3bf 8f6f 	isb	sy
 800420e:	bf00      	nop
 8004210:	3708      	adds	r7, #8
 8004212:	46bd      	mov	sp, r7
 8004214:	bd80      	pop	{r7, pc}
 8004216:	bf00      	nop
 8004218:	20000e38 	.word	0x20000e38
 800421c:	20000964 	.word	0x20000964
 8004220:	20000e44 	.word	0x20000e44
 8004224:	20000e54 	.word	0x20000e54
 8004228:	20000e40 	.word	0x20000e40
 800422c:	20000968 	.word	0x20000968
 8004230:	e000ed04 	.word	0xe000ed04

08004234 <vTaskDelay>:
 8004234:	b580      	push	{r7, lr}
 8004236:	b084      	sub	sp, #16
 8004238:	af00      	add	r7, sp, #0
 800423a:	6078      	str	r0, [r7, #4]
 800423c:	2300      	movs	r3, #0
 800423e:	60fb      	str	r3, [r7, #12]
 8004240:	687b      	ldr	r3, [r7, #4]
 8004242:	2b00      	cmp	r3, #0
 8004244:	d017      	beq.n	8004276 <vTaskDelay+0x42>
 8004246:	4b13      	ldr	r3, [pc, #76]	; (8004294 <vTaskDelay+0x60>)
 8004248:	681b      	ldr	r3, [r3, #0]
 800424a:	2b00      	cmp	r3, #0
 800424c:	d00a      	beq.n	8004264 <vTaskDelay+0x30>
 800424e:	f04f 0350 	mov.w	r3, #80	; 0x50
 8004252:	f383 8811 	msr	BASEPRI, r3
 8004256:	f3bf 8f6f 	isb	sy
 800425a:	f3bf 8f4f 	dsb	sy
 800425e:	60bb      	str	r3, [r7, #8]
 8004260:	bf00      	nop
 8004262:	e7fe      	b.n	8004262 <vTaskDelay+0x2e>
 8004264:	f000 f880 	bl	8004368 <vTaskSuspendAll>
 8004268:	2100      	movs	r1, #0
 800426a:	6878      	ldr	r0, [r7, #4]
 800426c:	f000 fcea 	bl	8004c44 <prvAddCurrentTaskToDelayedList>
 8004270:	f000 f888 	bl	8004384 <xTaskResumeAll>
 8004274:	60f8      	str	r0, [r7, #12]
 8004276:	68fb      	ldr	r3, [r7, #12]
 8004278:	2b00      	cmp	r3, #0
 800427a:	d107      	bne.n	800428c <vTaskDelay+0x58>
 800427c:	4b06      	ldr	r3, [pc, #24]	; (8004298 <vTaskDelay+0x64>)
 800427e:	f04f 5280 	mov.w	r2, #268435456	; 0x10000000
 8004282:	601a      	str	r2, [r3, #0]
 8004284:	f3bf 8f4f 	dsb	sy
 8004288:	f3bf 8f6f 	isb	sy
 800428c:	bf00      	nop
 800428e:	3710      	adds	r7, #16
 8004290:	46bd      	mov	sp, r7
 8004292:	bd80      	pop	{r7, pc}
 8004294:	20000e60 	.word	0x20000e60
 8004298:	e000ed04 	.word	0xe000ed04

0800429c <vTaskStartScheduler>:
 800429c:	b580      	push	{r7, lr}
 800429e:	b08a      	sub	sp, #40	; 0x28
 80042a0:	af04      	add	r7, sp, #16
 80042a2:	2300      	movs	r3, #0
 80042a4:	60bb      	str	r3, [r7, #8]
 80042a6:	2300      	movs	r3, #0
 80042a8:	607b      	str	r3, [r7, #4]
 80042aa:	463a      	mov	r2, r7
 80042ac:	1d39      	adds	r1, r7, #4
 80042ae:	f107 0308 	add.w	r3, r7, #8
 80042b2:	4618      	mov	r0, r3
 80042b4:	f7ff f848 	bl	8003348 <vApplicationGetIdleTaskMemory>
 80042b8:	6839      	ldr	r1, [r7, #0]
 80042ba:	687b      	ldr	r3, [r7, #4]
 80042bc:	68ba      	ldr	r2, [r7, #8]
 80042be:	9202      	str	r2, [sp, #8]
 80042c0:	9301      	str	r3, [sp, #4]
 80042c2:	2300      	movs	r3, #0
 80042c4:	9300      	str	r3, [sp, #0]
 80042c6:	2300      	movs	r3, #0
 80042c8:	460a      	mov	r2, r1
 80042ca:	4921      	ldr	r1, [pc, #132]	; (8004350 <vTaskStartScheduler+0xb4>)
 80042cc:	4821      	ldr	r0, [pc, #132]	; (8004354 <vTaskStartScheduler+0xb8>)
 80042ce:	f7ff fe0f 	bl	8003ef0 <xTaskCreateStatic>
 80042d2:	4603      	mov	r3, r0
 80042d4:	4a20      	ldr	r2, [pc, #128]	; (8004358 <vTaskStartScheduler+0xbc>)
 80042d6:	6013      	str	r3, [r2, #0]
 80042d8:	4b1f      	ldr	r3, [pc, #124]	; (8004358 <vTaskStartScheduler+0xbc>)
 80042da:	681b      	ldr	r3, [r3, #0]
 80042dc:	2b00      	cmp	r3, #0
 80042de:	d002      	beq.n	80042e6 <vTaskStartScheduler+0x4a>
 80042e0:	2301      	movs	r3, #1
 80042e2:	617b      	str	r3, [r7, #20]
 80042e4:	e001      	b.n	80042ea <vTaskStartScheduler+0x4e>
 80042e6:	2300      	movs	r3, #0
 80042e8:	617b      	str	r3, [r7, #20]
 80042ea:	697b      	ldr	r3, [r7, #20]
 80042ec:	2b01      	cmp	r3, #1
 80042ee:	d102      	bne.n	80042f6 <vTaskStartScheduler+0x5a>
 80042f0:	f000 fcfc 	bl	8004cec <xTimerCreateTimerTask>
 80042f4:	6178      	str	r0, [r7, #20]
 80042f6:	697b      	ldr	r3, [r7, #20]
 80042f8:	2b01      	cmp	r3, #1
 80042fa:	d116      	bne.n	800432a <vTaskStartScheduler+0x8e>
 80042fc:	f04f 0350 	mov.w	r3, #80	; 0x50
 8004300:	f383 8811 	msr	BASEPRI, r3
 8004304:	f3bf 8f6f 	isb	sy
 8004308:	f3bf 8f4f 	dsb	sy
 800430c:	613b      	str	r3, [r7, #16]
 800430e:	bf00      	nop
 8004310:	4b12      	ldr	r3, [pc, #72]	; (800435c <vTaskStartScheduler+0xc0>)
 8004312:	f04f 32ff 	mov.w	r2, #4294967295
 8004316:	601a      	str	r2, [r3, #0]
 8004318:	4b11      	ldr	r3, [pc, #68]	; (8004360 <vTaskStartScheduler+0xc4>)
 800431a:	2201      	movs	r2, #1
 800431c:	601a      	str	r2, [r3, #0]
 800431e:	4b11      	ldr	r3, [pc, #68]	; (8004364 <vTaskStartScheduler+0xc8>)
 8004320:	2200      	movs	r2, #0
 8004322:	601a      	str	r2, [r3, #0]
 8004324:	f001 f8bc 	bl	80054a0 <xPortStartScheduler>
 8004328:	e00e      	b.n	8004348 <vTaskStartScheduler+0xac>
 800432a:	697b      	ldr	r3, [r7, #20]
 800432c:	f1b3 3fff 	cmp.w	r3, #4294967295
 8004330:	d10a      	bne.n	8004348 <vTaskStartScheduler+0xac>
 8004332:	f04f 0350 	mov.w	r3, #80	; 0x50
 8004336:	f383 8811 	msr	BASEPRI, r3
 800433a:	f3bf 8f6f 	isb	sy
 800433e:	f3bf 8f4f 	dsb	sy
 8004342:	60fb      	str	r3, [r7, #12]
 8004344:	bf00      	nop
 8004346:	e7fe      	b.n	8004346 <vTaskStartScheduler+0xaa>
 8004348:	bf00      	nop
 800434a:	3718      	adds	r7, #24
 800434c:	46bd      	mov	sp, r7
 800434e:	bd80      	pop	{r7, pc}
 8004350:	080065bc 	.word	0x080065bc
 8004354:	08004981 	.word	0x08004981
 8004358:	20000e5c 	.word	0x20000e5c
 800435c:	20000e58 	.word	0x20000e58
 8004360:	20000e44 	.word	0x20000e44
 8004364:	20000e3c 	.word	0x20000e3c

08004368 <vTaskSuspendAll>:
 8004368:	b480      	push	{r7}
 800436a:	af00      	add	r7, sp, #0
 800436c:	4b04      	ldr	r3, [pc, #16]	; (8004380 <vTaskSuspendAll+0x18>)
 800436e:	681b      	ldr	r3, [r3, #0]
 8004370:	3301      	adds	r3, #1
 8004372:	4a03      	ldr	r2, [pc, #12]	; (8004380 <vTaskSuspendAll+0x18>)
 8004374:	6013      	str	r3, [r2, #0]
 8004376:	bf00      	nop
 8004378:	46bd      	mov	sp, r7
 800437a:	f85d 7b04 	ldr.w	r7, [sp], #4
 800437e:	4770      	bx	lr
 8004380:	20000e60 	.word	0x20000e60

08004384 <xTaskResumeAll>:
 8004384:	b580      	push	{r7, lr}
 8004386:	b084      	sub	sp, #16
 8004388:	af00      	add	r7, sp, #0
 800438a:	2300      	movs	r3, #0
 800438c:	60fb      	str	r3, [r7, #12]
 800438e:	2300      	movs	r3, #0
 8004390:	60bb      	str	r3, [r7, #8]
 8004392:	4b42      	ldr	r3, [pc, #264]	; (800449c <xTaskResumeAll+0x118>)
 8004394:	681b      	ldr	r3, [r3, #0]
 8004396:	2b00      	cmp	r3, #0
 8004398:	d10a      	bne.n	80043b0 <xTaskResumeAll+0x2c>
 800439a:	f04f 0350 	mov.w	r3, #80	; 0x50
 800439e:	f383 8811 	msr	BASEPRI, r3
 80043a2:	f3bf 8f6f 	isb	sy
 80043a6:	f3bf 8f4f 	dsb	sy
 80043aa:	603b      	str	r3, [r7, #0]
 80043ac:	bf00      	nop
 80043ae:	e7fe      	b.n	80043ae <xTaskResumeAll+0x2a>
 80043b0:	f001 f918 	bl	80055e4 <vPortEnterCritical>
 80043b4:	4b39      	ldr	r3, [pc, #228]	; (800449c <xTaskResumeAll+0x118>)
 80043b6:	681b      	ldr	r3, [r3, #0]
 80043b8:	3b01      	subs	r3, #1
 80043ba:	4a38      	ldr	r2, [pc, #224]	; (800449c <xTaskResumeAll+0x118>)
 80043bc:	6013      	str	r3, [r2, #0]
 80043be:	4b37      	ldr	r3, [pc, #220]	; (800449c <xTaskResumeAll+0x118>)
 80043c0:	681b      	ldr	r3, [r3, #0]
 80043c2:	2b00      	cmp	r3, #0
 80043c4:	d162      	bne.n	800448c <xTaskResumeAll+0x108>
 80043c6:	4b36      	ldr	r3, [pc, #216]	; (80044a0 <xTaskResumeAll+0x11c>)
 80043c8:	681b      	ldr	r3, [r3, #0]
 80043ca:	2b00      	cmp	r3, #0
 80043cc:	d05e      	beq.n	800448c <xTaskResumeAll+0x108>
 80043ce:	e02f      	b.n	8004430 <xTaskResumeAll+0xac>
 80043d0:	4b34      	ldr	r3, [pc, #208]	; (80044a4 <xTaskResumeAll+0x120>)
 80043d2:	68db      	ldr	r3, [r3, #12]
 80043d4:	68db      	ldr	r3, [r3, #12]
 80043d6:	60fb      	str	r3, [r7, #12]
 80043d8:	68fb      	ldr	r3, [r7, #12]
 80043da:	3318      	adds	r3, #24
 80043dc:	4618      	mov	r0, r3
 80043de:	f7ff f871 	bl	80034c4 <uxListRemove>
 80043e2:	68fb      	ldr	r3, [r7, #12]
 80043e4:	3304      	adds	r3, #4
 80043e6:	4618      	mov	r0, r3
 80043e8:	f7ff f86c 	bl	80034c4 <uxListRemove>
 80043ec:	68fb      	ldr	r3, [r7, #12]
 80043ee:	6ada      	ldr	r2, [r3, #44]	; 0x2c
 80043f0:	4b2d      	ldr	r3, [pc, #180]	; (80044a8 <xTaskResumeAll+0x124>)
 80043f2:	681b      	ldr	r3, [r3, #0]
 80043f4:	429a      	cmp	r2, r3
 80043f6:	d903      	bls.n	8004400 <xTaskResumeAll+0x7c>
 80043f8:	68fb      	ldr	r3, [r7, #12]
 80043fa:	6adb      	ldr	r3, [r3, #44]	; 0x2c
 80043fc:	4a2a      	ldr	r2, [pc, #168]	; (80044a8 <xTaskResumeAll+0x124>)
 80043fe:	6013      	str	r3, [r2, #0]
 8004400:	68fb      	ldr	r3, [r7, #12]
 8004402:	6ada      	ldr	r2, [r3, #44]	; 0x2c
 8004404:	4613      	mov	r3, r2
 8004406:	009b      	lsls	r3, r3, #2
 8004408:	4413      	add	r3, r2
 800440a:	009b      	lsls	r3, r3, #2
 800440c:	4a27      	ldr	r2, [pc, #156]	; (80044ac <xTaskResumeAll+0x128>)
 800440e:	441a      	add	r2, r3
 8004410:	68fb      	ldr	r3, [r7, #12]
 8004412:	3304      	adds	r3, #4
 8004414:	4619      	mov	r1, r3
 8004416:	4610      	mov	r0, r2
 8004418:	f7fe fff7 	bl	800340a <vListInsertEnd>
 800441c:	68fb      	ldr	r3, [r7, #12]
 800441e:	6ada      	ldr	r2, [r3, #44]	; 0x2c
 8004420:	4b23      	ldr	r3, [pc, #140]	; (80044b0 <xTaskResumeAll+0x12c>)
 8004422:	681b      	ldr	r3, [r3, #0]
 8004424:	6adb      	ldr	r3, [r3, #44]	; 0x2c
 8004426:	429a      	cmp	r2, r3
 8004428:	d302      	bcc.n	8004430 <xTaskResumeAll+0xac>
 800442a:	4b22      	ldr	r3, [pc, #136]	; (80044b4 <xTaskResumeAll+0x130>)
 800442c:	2201      	movs	r2, #1
 800442e:	601a      	str	r2, [r3, #0]
 8004430:	4b1c      	ldr	r3, [pc, #112]	; (80044a4 <xTaskResumeAll+0x120>)
 8004432:	681b      	ldr	r3, [r3, #0]
 8004434:	2b00      	cmp	r3, #0
 8004436:	d1cb      	bne.n	80043d0 <xTaskResumeAll+0x4c>
 8004438:	68fb      	ldr	r3, [r7, #12]
 800443a:	2b00      	cmp	r3, #0
 800443c:	d001      	beq.n	8004442 <xTaskResumeAll+0xbe>
 800443e:	f000 fb55 	bl	8004aec <prvResetNextTaskUnblockTime>
 8004442:	4b1d      	ldr	r3, [pc, #116]	; (80044b8 <xTaskResumeAll+0x134>)
 8004444:	681b      	ldr	r3, [r3, #0]
 8004446:	607b      	str	r3, [r7, #4]
 8004448:	687b      	ldr	r3, [r7, #4]
 800444a:	2b00      	cmp	r3, #0
 800444c:	d010      	beq.n	8004470 <xTaskResumeAll+0xec>
 800444e:	f000 f847 	bl	80044e0 <xTaskIncrementTick>
 8004452:	4603      	mov	r3, r0
 8004454:	2b00      	cmp	r3, #0
 8004456:	d002      	beq.n	800445e <xTaskResumeAll+0xda>
 8004458:	4b16      	ldr	r3, [pc, #88]	; (80044b4 <xTaskResumeAll+0x130>)
 800445a:	2201      	movs	r2, #1
 800445c:	601a      	str	r2, [r3, #0]
 800445e:	687b      	ldr	r3, [r7, #4]
 8004460:	3b01      	subs	r3, #1
 8004462:	607b      	str	r3, [r7, #4]
 8004464:	687b      	ldr	r3, [r7, #4]
 8004466:	2b00      	cmp	r3, #0
 8004468:	d1f1      	bne.n	800444e <xTaskResumeAll+0xca>
 800446a:	4b13      	ldr	r3, [pc, #76]	; (80044b8 <xTaskResumeAll+0x134>)
 800446c:	2200      	movs	r2, #0
 800446e:	601a      	str	r2, [r3, #0]
 8004470:	4b10      	ldr	r3, [pc, #64]	; (80044b4 <xTaskResumeAll+0x130>)
 8004472:	681b      	ldr	r3, [r3, #0]
 8004474:	2b00      	cmp	r3, #0
 8004476:	d009      	beq.n	800448c <xTaskResumeAll+0x108>
 8004478:	2301      	movs	r3, #1
 800447a:	60bb      	str	r3, [r7, #8]
 800447c:	4b0f      	ldr	r3, [pc, #60]	; (80044bc <xTaskResumeAll+0x138>)
 800447e:	f04f 5280 	mov.w	r2, #268435456	; 0x10000000
 8004482:	601a      	str	r2, [r3, #0]
 8004484:	f3bf 8f4f 	dsb	sy
 8004488:	f3bf 8f6f 	isb	sy
 800448c:	f001 f8da 	bl	8005644 <vPortExitCritical>
 8004490:	68bb      	ldr	r3, [r7, #8]
 8004492:	4618      	mov	r0, r3
 8004494:	3710      	adds	r7, #16
 8004496:	46bd      	mov	sp, r7
 8004498:	bd80      	pop	{r7, pc}
 800449a:	bf00      	nop
 800449c:	20000e60 	.word	0x20000e60
 80044a0:	20000e38 	.word	0x20000e38
 80044a4:	20000df8 	.word	0x20000df8
 80044a8:	20000e40 	.word	0x20000e40
 80044ac:	20000968 	.word	0x20000968
 80044b0:	20000964 	.word	0x20000964
 80044b4:	20000e4c 	.word	0x20000e4c
 80044b8:	20000e48 	.word	0x20000e48
 80044bc:	e000ed04 	.word	0xe000ed04

080044c0 <xTaskGetTickCount>:
 80044c0:	b480      	push	{r7}
 80044c2:	b083      	sub	sp, #12
 80044c4:	af00      	add	r7, sp, #0
 80044c6:	4b05      	ldr	r3, [pc, #20]	; (80044dc <xTaskGetTickCount+0x1c>)
 80044c8:	681b      	ldr	r3, [r3, #0]
 80044ca:	607b      	str	r3, [r7, #4]
 80044cc:	687b      	ldr	r3, [r7, #4]
 80044ce:	4618      	mov	r0, r3
 80044d0:	370c      	adds	r7, #12
 80044d2:	46bd      	mov	sp, r7
 80044d4:	f85d 7b04 	ldr.w	r7, [sp], #4
 80044d8:	4770      	bx	lr
 80044da:	bf00      	nop
 80044dc:	20000e3c 	.word	0x20000e3c

080044e0 <xTaskIncrementTick>:
 80044e0:	b580      	push	{r7, lr}
 80044e2:	b086      	sub	sp, #24
 80044e4:	af00      	add	r7, sp, #0
 80044e6:	2300      	movs	r3, #0
 80044e8:	617b      	str	r3, [r7, #20]
 80044ea:	4b4f      	ldr	r3, [pc, #316]	; (8004628 <xTaskIncrementTick+0x148>)
 80044ec:	681b      	ldr	r3, [r3, #0]
 80044ee:	2b00      	cmp	r3, #0
 80044f0:	f040 808f 	bne.w	8004612 <xTaskIncrementTick+0x132>
 80044f4:	4b4d      	ldr	r3, [pc, #308]	; (800462c <xTaskIncrementTick+0x14c>)
 80044f6:	681b      	ldr	r3, [r3, #0]
 80044f8:	3301      	adds	r3, #1
 80044fa:	613b      	str	r3, [r7, #16]
 80044fc:	4a4b      	ldr	r2, [pc, #300]	; (800462c <xTaskIncrementTick+0x14c>)
 80044fe:	693b      	ldr	r3, [r7, #16]
 8004500:	6013      	str	r3, [r2, #0]
 8004502:	693b      	ldr	r3, [r7, #16]
 8004504:	2b00      	cmp	r3, #0
 8004506:	d120      	bne.n	800454a <xTaskIncrementTick+0x6a>
 8004508:	4b49      	ldr	r3, [pc, #292]	; (8004630 <xTaskIncrementTick+0x150>)
 800450a:	681b      	ldr	r3, [r3, #0]
 800450c:	681b      	ldr	r3, [r3, #0]
 800450e:	2b00      	cmp	r3, #0
 8004510:	d00a      	beq.n	8004528 <xTaskIncrementTick+0x48>
 8004512:	f04f 0350 	mov.w	r3, #80	; 0x50
 8004516:	f383 8811 	msr	BASEPRI, r3
 800451a:	f3bf 8f6f 	isb	sy
 800451e:	f3bf 8f4f 	dsb	sy
 8004522:	603b      	str	r3, [r7, #0]
 8004524:	bf00      	nop
 8004526:	e7fe      	b.n	8004526 <xTaskIncrementTick+0x46>
 8004528:	4b41      	ldr	r3, [pc, #260]	; (8004630 <xTaskIncrementTick+0x150>)
 800452a:	681b      	ldr	r3, [r3, #0]
 800452c:	60fb      	str	r3, [r7, #12]
 800452e:	4b41      	ldr	r3, [pc, #260]	; (8004634 <xTaskIncrementTick+0x154>)
 8004530:	681b      	ldr	r3, [r3, #0]
 8004532:	4a3f      	ldr	r2, [pc, #252]	; (8004630 <xTaskIncrementTick+0x150>)
 8004534:	6013      	str	r3, [r2, #0]
 8004536:	4a3f      	ldr	r2, [pc, #252]	; (8004634 <xTaskIncrementTick+0x154>)
 8004538:	68fb      	ldr	r3, [r7, #12]
 800453a:	6013      	str	r3, [r2, #0]
 800453c:	4b3e      	ldr	r3, [pc, #248]	; (8004638 <xTaskIncrementTick+0x158>)
 800453e:	681b      	ldr	r3, [r3, #0]
 8004540:	3301      	adds	r3, #1
 8004542:	4a3d      	ldr	r2, [pc, #244]	; (8004638 <xTaskIncrementTick+0x158>)
 8004544:	6013      	str	r3, [r2, #0]
 8004546:	f000 fad1 	bl	8004aec <prvResetNextTaskUnblockTime>
 800454a:	4b3c      	ldr	r3, [pc, #240]	; (800463c <xTaskIncrementTick+0x15c>)
 800454c:	681b      	ldr	r3, [r3, #0]
 800454e:	693a      	ldr	r2, [r7, #16]
 8004550:	429a      	cmp	r2, r3
 8004552:	d349      	bcc.n	80045e8 <xTaskIncrementTick+0x108>
 8004554:	4b36      	ldr	r3, [pc, #216]	; (8004630 <xTaskIncrementTick+0x150>)
 8004556:	681b      	ldr	r3, [r3, #0]
 8004558:	681b      	ldr	r3, [r3, #0]
 800455a:	2b00      	cmp	r3, #0
 800455c:	d104      	bne.n	8004568 <xTaskIncrementTick+0x88>
 800455e:	4b37      	ldr	r3, [pc, #220]	; (800463c <xTaskIncrementTick+0x15c>)
 8004560:	f04f 32ff 	mov.w	r2, #4294967295
 8004564:	601a      	str	r2, [r3, #0]
 8004566:	e03f      	b.n	80045e8 <xTaskIncrementTick+0x108>
 8004568:	4b31      	ldr	r3, [pc, #196]	; (8004630 <xTaskIncrementTick+0x150>)
 800456a:	681b      	ldr	r3, [r3, #0]
 800456c:	68db      	ldr	r3, [r3, #12]
 800456e:	68db      	ldr	r3, [r3, #12]
 8004570:	60bb      	str	r3, [r7, #8]
 8004572:	68bb      	ldr	r3, [r7, #8]
 8004574:	685b      	ldr	r3, [r3, #4]
 8004576:	607b      	str	r3, [r7, #4]
 8004578:	693a      	ldr	r2, [r7, #16]
 800457a:	687b      	ldr	r3, [r7, #4]
 800457c:	429a      	cmp	r2, r3
 800457e:	d203      	bcs.n	8004588 <xTaskIncrementTick+0xa8>
 8004580:	4a2e      	ldr	r2, [pc, #184]	; (800463c <xTaskIncrementTick+0x15c>)
 8004582:	687b      	ldr	r3, [r7, #4]
 8004584:	6013      	str	r3, [r2, #0]
 8004586:	e02f      	b.n	80045e8 <xTaskIncrementTick+0x108>
 8004588:	68bb      	ldr	r3, [r7, #8]
 800458a:	3304      	adds	r3, #4
 800458c:	4618      	mov	r0, r3
 800458e:	f7fe ff99 	bl	80034c4 <uxListRemove>
 8004592:	68bb      	ldr	r3, [r7, #8]
 8004594:	6a9b      	ldr	r3, [r3, #40]	; 0x28
 8004596:	2b00      	cmp	r3, #0
 8004598:	d004      	beq.n	80045a4 <xTaskIncrementTick+0xc4>
 800459a:	68bb      	ldr	r3, [r7, #8]
 800459c:	3318      	adds	r3, #24
 800459e:	4618      	mov	r0, r3
 80045a0:	f7fe ff90 	bl	80034c4 <uxListRemove>
 80045a4:	68bb      	ldr	r3, [r7, #8]
 80045a6:	6ada      	ldr	r2, [r3, #44]	; 0x2c
 80045a8:	4b25      	ldr	r3, [pc, #148]	; (8004640 <xTaskIncrementTick+0x160>)
 80045aa:	681b      	ldr	r3, [r3, #0]
 80045ac:	429a      	cmp	r2, r3
 80045ae:	d903      	bls.n	80045b8 <xTaskIncrementTick+0xd8>
 80045b0:	68bb      	ldr	r3, [r7, #8]
 80045b2:	6adb      	ldr	r3, [r3, #44]	; 0x2c
 80045b4:	4a22      	ldr	r2, [pc, #136]	; (8004640 <xTaskIncrementTick+0x160>)
 80045b6:	6013      	str	r3, [r2, #0]
 80045b8:	68bb      	ldr	r3, [r7, #8]
 80045ba:	6ada      	ldr	r2, [r3, #44]	; 0x2c
 80045bc:	4613      	mov	r3, r2
 80045be:	009b      	lsls	r3, r3, #2
 80045c0:	4413      	add	r3, r2
 80045c2:	009b      	lsls	r3, r3, #2
 80045c4:	4a1f      	ldr	r2, [pc, #124]	; (8004644 <xTaskIncrementTick+0x164>)
 80045c6:	441a      	add	r2, r3
 80045c8:	68bb      	ldr	r3, [r7, #8]
 80045ca:	3304      	adds	r3, #4
 80045cc:	4619      	mov	r1, r3
 80045ce:	4610      	mov	r0, r2
 80045d0:	f7fe ff1b 	bl	800340a <vListInsertEnd>
 80045d4:	68bb      	ldr	r3, [r7, #8]
 80045d6:	6ada      	ldr	r2, [r3, #44]	; 0x2c
 80045d8:	4b1b      	ldr	r3, [pc, #108]	; (8004648 <xTaskIncrementTick+0x168>)
 80045da:	681b      	ldr	r3, [r3, #0]
 80045dc:	6adb      	ldr	r3, [r3, #44]	; 0x2c
 80045de:	429a      	cmp	r2, r3
 80045e0:	d3b8      	bcc.n	8004554 <xTaskIncrementTick+0x74>
 80045e2:	2301      	movs	r3, #1
 80045e4:	617b      	str	r3, [r7, #20]
 80045e6:	e7b5      	b.n	8004554 <xTaskIncrementTick+0x74>
 80045e8:	4b17      	ldr	r3, [pc, #92]	; (8004648 <xTaskIncrementTick+0x168>)
 80045ea:	681b      	ldr	r3, [r3, #0]
 80045ec:	6ada      	ldr	r2, [r3, #44]	; 0x2c
 80045ee:	4915      	ldr	r1, [pc, #84]	; (8004644 <xTaskIncrementTick+0x164>)
 80045f0:	4613      	mov	r3, r2
 80045f2:	009b      	lsls	r3, r3, #2
 80045f4:	4413      	add	r3, r2
 80045f6:	009b      	lsls	r3, r3, #2
 80045f8:	440b      	add	r3, r1
 80045fa:	681b      	ldr	r3, [r3, #0]
 80045fc:	2b01      	cmp	r3, #1
 80045fe:	d901      	bls.n	8004604 <xTaskIncrementTick+0x124>
 8004600:	2301      	movs	r3, #1
 8004602:	617b      	str	r3, [r7, #20]
 8004604:	4b11      	ldr	r3, [pc, #68]	; (800464c <xTaskIncrementTick+0x16c>)
 8004606:	681b      	ldr	r3, [r3, #0]
 8004608:	2b00      	cmp	r3, #0
 800460a:	d007      	beq.n	800461c <xTaskIncrementTick+0x13c>
 800460c:	2301      	movs	r3, #1
 800460e:	617b      	str	r3, [r7, #20]
 8004610:	e004      	b.n	800461c <xTaskIncrementTick+0x13c>
 8004612:	4b0f      	ldr	r3, [pc, #60]	; (8004650 <xTaskIncrementTick+0x170>)
 8004614:	681b      	ldr	r3, [r3, #0]
 8004616:	3301      	adds	r3, #1
 8004618:	4a0d      	ldr	r2, [pc, #52]	; (8004650 <xTaskIncrementTick+0x170>)
 800461a:	6013      	str	r3, [r2, #0]
 800461c:	697b      	ldr	r3, [r7, #20]
 800461e:	4618      	mov	r0, r3
 8004620:	3718      	adds	r7, #24
 8004622:	46bd      	mov	sp, r7
 8004624:	bd80      	pop	{r7, pc}
 8004626:	bf00      	nop
 8004628:	20000e60 	.word	0x20000e60
 800462c:	20000e3c 	.word	0x20000e3c
 8004630:	20000df0 	.word	0x20000df0
 8004634:	20000df4 	.word	0x20000df4
 8004638:	20000e50 	.word	0x20000e50
 800463c:	20000e58 	.word	0x20000e58
 8004640:	20000e40 	.word	0x20000e40
 8004644:	20000968 	.word	0x20000968
 8004648:	20000964 	.word	0x20000964
 800464c:	20000e4c 	.word	0x20000e4c
 8004650:	20000e48 	.word	0x20000e48

08004654 <vTaskSwitchContext>:
 8004654:	b480      	push	{r7}
 8004656:	b085      	sub	sp, #20
 8004658:	af00      	add	r7, sp, #0
 800465a:	4b28      	ldr	r3, [pc, #160]	; (80046fc <vTaskSwitchContext+0xa8>)
 800465c:	681b      	ldr	r3, [r3, #0]
 800465e:	2b00      	cmp	r3, #0
 8004660:	d003      	beq.n	800466a <vTaskSwitchContext+0x16>
 8004662:	4b27      	ldr	r3, [pc, #156]	; (8004700 <vTaskSwitchContext+0xac>)
 8004664:	2201      	movs	r2, #1
 8004666:	601a      	str	r2, [r3, #0]
 8004668:	e041      	b.n	80046ee <vTaskSwitchContext+0x9a>
 800466a:	4b25      	ldr	r3, [pc, #148]	; (8004700 <vTaskSwitchContext+0xac>)
 800466c:	2200      	movs	r2, #0
 800466e:	601a      	str	r2, [r3, #0]
 8004670:	4b24      	ldr	r3, [pc, #144]	; (8004704 <vTaskSwitchContext+0xb0>)
 8004672:	681b      	ldr	r3, [r3, #0]
 8004674:	60fb      	str	r3, [r7, #12]
 8004676:	e010      	b.n	800469a <vTaskSwitchContext+0x46>
 8004678:	68fb      	ldr	r3, [r7, #12]
 800467a:	2b00      	cmp	r3, #0
 800467c:	d10a      	bne.n	8004694 <vTaskSwitchContext+0x40>
 800467e:	f04f 0350 	mov.w	r3, #80	; 0x50
 8004682:	f383 8811 	msr	BASEPRI, r3
 8004686:	f3bf 8f6f 	isb	sy
 800468a:	f3bf 8f4f 	dsb	sy
 800468e:	607b      	str	r3, [r7, #4]
 8004690:	bf00      	nop
 8004692:	e7fe      	b.n	8004692 <vTaskSwitchContext+0x3e>
 8004694:	68fb      	ldr	r3, [r7, #12]
 8004696:	3b01      	subs	r3, #1
 8004698:	60fb      	str	r3, [r7, #12]
 800469a:	491b      	ldr	r1, [pc, #108]	; (8004708 <vTaskSwitchContext+0xb4>)
 800469c:	68fa      	ldr	r2, [r7, #12]
 800469e:	4613      	mov	r3, r2
 80046a0:	009b      	lsls	r3, r3, #2
 80046a2:	4413      	add	r3, r2
 80046a4:	009b      	lsls	r3, r3, #2
 80046a6:	440b      	add	r3, r1
 80046a8:	681b      	ldr	r3, [r3, #0]
 80046aa:	2b00      	cmp	r3, #0
 80046ac:	d0e4      	beq.n	8004678 <vTaskSwitchContext+0x24>
 80046ae:	68fa      	ldr	r2, [r7, #12]
 80046b0:	4613      	mov	r3, r2
 80046b2:	009b      	lsls	r3, r3, #2
 80046b4:	4413      	add	r3, r2
 80046b6:	009b      	lsls	r3, r3, #2
 80046b8:	4a13      	ldr	r2, [pc, #76]	; (8004708 <vTaskSwitchContext+0xb4>)
 80046ba:	4413      	add	r3, r2
 80046bc:	60bb      	str	r3, [r7, #8]
 80046be:	68bb      	ldr	r3, [r7, #8]
 80046c0:	685b      	ldr	r3, [r3, #4]
 80046c2:	685a      	ldr	r2, [r3, #4]
 80046c4:	68bb      	ldr	r3, [r7, #8]
 80046c6:	605a      	str	r2, [r3, #4]
 80046c8:	68bb      	ldr	r3, [r7, #8]
 80046ca:	685a      	ldr	r2, [r3, #4]
 80046cc:	68bb      	ldr	r3, [r7, #8]
 80046ce:	3308      	adds	r3, #8
 80046d0:	429a      	cmp	r2, r3
 80046d2:	d104      	bne.n	80046de <vTaskSwitchContext+0x8a>
 80046d4:	68bb      	ldr	r3, [r7, #8]
 80046d6:	685b      	ldr	r3, [r3, #4]
 80046d8:	685a      	ldr	r2, [r3, #4]
 80046da:	68bb      	ldr	r3, [r7, #8]
 80046dc:	605a      	str	r2, [r3, #4]
 80046de:	68bb      	ldr	r3, [r7, #8]
 80046e0:	685b      	ldr	r3, [r3, #4]
 80046e2:	68db      	ldr	r3, [r3, #12]
 80046e4:	4a09      	ldr	r2, [pc, #36]	; (800470c <vTaskSwitchContext+0xb8>)
 80046e6:	6013      	str	r3, [r2, #0]
 80046e8:	4a06      	ldr	r2, [pc, #24]	; (8004704 <vTaskSwitchContext+0xb0>)
 80046ea:	68fb      	ldr	r3, [r7, #12]
 80046ec:	6013      	str	r3, [r2, #0]
 80046ee:	bf00      	nop
 80046f0:	3714      	adds	r7, #20
 80046f2:	46bd      	mov	sp, r7
 80046f4:	f85d 7b04 	ldr.w	r7, [sp], #4
 80046f8:	4770      	bx	lr
 80046fa:	bf00      	nop
 80046fc:	20000e60 	.word	0x20000e60
 8004700:	20000e4c 	.word	0x20000e4c
 8004704:	20000e40 	.word	0x20000e40
 8004708:	20000968 	.word	0x20000968
 800470c:	20000964 	.word	0x20000964

08004710 <vTaskPlaceOnEventList>:
 8004710:	b580      	push	{r7, lr}
 8004712:	b084      	sub	sp, #16
 8004714:	af00      	add	r7, sp, #0
 8004716:	6078      	str	r0, [r7, #4]
 8004718:	6039      	str	r1, [r7, #0]
 800471a:	687b      	ldr	r3, [r7, #4]
 800471c:	2b00      	cmp	r3, #0
 800471e:	d10a      	bne.n	8004736 <vTaskPlaceOnEventList+0x26>
 8004720:	f04f 0350 	mov.w	r3, #80	; 0x50
 8004724:	f383 8811 	msr	BASEPRI, r3
 8004728:	f3bf 8f6f 	isb	sy
 800472c:	f3bf 8f4f 	dsb	sy
 8004730:	60fb      	str	r3, [r7, #12]
 8004732:	bf00      	nop
 8004734:	e7fe      	b.n	8004734 <vTaskPlaceOnEventList+0x24>
 8004736:	4b07      	ldr	r3, [pc, #28]	; (8004754 <vTaskPlaceOnEventList+0x44>)
 8004738:	681b      	ldr	r3, [r3, #0]
 800473a:	3318      	adds	r3, #24
 800473c:	4619      	mov	r1, r3
 800473e:	6878      	ldr	r0, [r7, #4]
 8004740:	f7fe fe87 	bl	8003452 <vListInsert>
 8004744:	2101      	movs	r1, #1
 8004746:	6838      	ldr	r0, [r7, #0]
 8004748:	f000 fa7c 	bl	8004c44 <prvAddCurrentTaskToDelayedList>
 800474c:	bf00      	nop
 800474e:	3710      	adds	r7, #16
 8004750:	46bd      	mov	sp, r7
 8004752:	bd80      	pop	{r7, pc}
 8004754:	20000964 	.word	0x20000964

08004758 <vTaskPlaceOnEventListRestricted>:
 8004758:	b580      	push	{r7, lr}
 800475a:	b086      	sub	sp, #24
 800475c:	af00      	add	r7, sp, #0
 800475e:	60f8      	str	r0, [r7, #12]
 8004760:	60b9      	str	r1, [r7, #8]
 8004762:	607a      	str	r2, [r7, #4]
 8004764:	68fb      	ldr	r3, [r7, #12]
 8004766:	2b00      	cmp	r3, #0
 8004768:	d10a      	bne.n	8004780 <vTaskPlaceOnEventListRestricted+0x28>
 800476a:	f04f 0350 	mov.w	r3, #80	; 0x50
 800476e:	f383 8811 	msr	BASEPRI, r3
 8004772:	f3bf 8f6f 	isb	sy
 8004776:	f3bf 8f4f 	dsb	sy
 800477a:	617b      	str	r3, [r7, #20]
 800477c:	bf00      	nop
 800477e:	e7fe      	b.n	800477e <vTaskPlaceOnEventListRestricted+0x26>
 8004780:	4b0a      	ldr	r3, [pc, #40]	; (80047ac <vTaskPlaceOnEventListRestricted+0x54>)
 8004782:	681b      	ldr	r3, [r3, #0]
 8004784:	3318      	adds	r3, #24
 8004786:	4619      	mov	r1, r3
 8004788:	68f8      	ldr	r0, [r7, #12]
 800478a:	f7fe fe3e 	bl	800340a <vListInsertEnd>
 800478e:	687b      	ldr	r3, [r7, #4]
 8004790:	2b00      	cmp	r3, #0
 8004792:	d002      	beq.n	800479a <vTaskPlaceOnEventListRestricted+0x42>
 8004794:	f04f 33ff 	mov.w	r3, #4294967295
 8004798:	60bb      	str	r3, [r7, #8]
 800479a:	6879      	ldr	r1, [r7, #4]
 800479c:	68b8      	ldr	r0, [r7, #8]
 800479e:	f000 fa51 	bl	8004c44 <prvAddCurrentTaskToDelayedList>
 80047a2:	bf00      	nop
 80047a4:	3718      	adds	r7, #24
 80047a6:	46bd      	mov	sp, r7
 80047a8:	bd80      	pop	{r7, pc}
 80047aa:	bf00      	nop
 80047ac:	20000964 	.word	0x20000964

080047b0 <xTaskRemoveFromEventList>:
 80047b0:	b580      	push	{r7, lr}
 80047b2:	b086      	sub	sp, #24
 80047b4:	af00      	add	r7, sp, #0
 80047b6:	6078      	str	r0, [r7, #4]
 80047b8:	687b      	ldr	r3, [r7, #4]
 80047ba:	68db      	ldr	r3, [r3, #12]
 80047bc:	68db      	ldr	r3, [r3, #12]
 80047be:	613b      	str	r3, [r7, #16]
 80047c0:	693b      	ldr	r3, [r7, #16]
 80047c2:	2b00      	cmp	r3, #0
 80047c4:	d10a      	bne.n	80047dc <xTaskRemoveFromEventList+0x2c>
 80047c6:	f04f 0350 	mov.w	r3, #80	; 0x50
 80047ca:	f383 8811 	msr	BASEPRI, r3
 80047ce:	f3bf 8f6f 	isb	sy
 80047d2:	f3bf 8f4f 	dsb	sy
 80047d6:	60fb      	str	r3, [r7, #12]
 80047d8:	bf00      	nop
 80047da:	e7fe      	b.n	80047da <xTaskRemoveFromEventList+0x2a>
 80047dc:	693b      	ldr	r3, [r7, #16]
 80047de:	3318      	adds	r3, #24
 80047e0:	4618      	mov	r0, r3
 80047e2:	f7fe fe6f 	bl	80034c4 <uxListRemove>
 80047e6:	4b1e      	ldr	r3, [pc, #120]	; (8004860 <xTaskRemoveFromEventList+0xb0>)
 80047e8:	681b      	ldr	r3, [r3, #0]
 80047ea:	2b00      	cmp	r3, #0
 80047ec:	d11d      	bne.n	800482a <xTaskRemoveFromEventList+0x7a>
 80047ee:	693b      	ldr	r3, [r7, #16]
 80047f0:	3304      	adds	r3, #4
 80047f2:	4618      	mov	r0, r3
 80047f4:	f7fe fe66 	bl	80034c4 <uxListRemove>
 80047f8:	693b      	ldr	r3, [r7, #16]
 80047fa:	6ada      	ldr	r2, [r3, #44]	; 0x2c
 80047fc:	4b19      	ldr	r3, [pc, #100]	; (8004864 <xTaskRemoveFromEventList+0xb4>)
 80047fe:	681b      	ldr	r3, [r3, #0]
 8004800:	429a      	cmp	r2, r3
 8004802:	d903      	bls.n	800480c <xTaskRemoveFromEventList+0x5c>
 8004804:	693b      	ldr	r3, [r7, #16]
 8004806:	6adb      	ldr	r3, [r3, #44]	; 0x2c
 8004808:	4a16      	ldr	r2, [pc, #88]	; (8004864 <xTaskRemoveFromEventList+0xb4>)
 800480a:	6013      	str	r3, [r2, #0]
 800480c:	693b      	ldr	r3, [r7, #16]
 800480e:	6ada      	ldr	r2, [r3, #44]	; 0x2c
 8004810:	4613      	mov	r3, r2
 8004812:	009b      	lsls	r3, r3, #2
 8004814:	4413      	add	r3, r2
 8004816:	009b      	lsls	r3, r3, #2
 8004818:	4a13      	ldr	r2, [pc, #76]	; (8004868 <xTaskRemoveFromEventList+0xb8>)
 800481a:	441a      	add	r2, r3
 800481c:	693b      	ldr	r3, [r7, #16]
 800481e:	3304      	adds	r3, #4
 8004820:	4619      	mov	r1, r3
 8004822:	4610      	mov	r0, r2
 8004824:	f7fe fdf1 	bl	800340a <vListInsertEnd>
 8004828:	e005      	b.n	8004836 <xTaskRemoveFromEventList+0x86>
 800482a:	693b      	ldr	r3, [r7, #16]
 800482c:	3318      	adds	r3, #24
 800482e:	4619      	mov	r1, r3
 8004830:	480e      	ldr	r0, [pc, #56]	; (800486c <xTaskRemoveFromEventList+0xbc>)
 8004832:	f7fe fdea 	bl	800340a <vListInsertEnd>
 8004836:	693b      	ldr	r3, [r7, #16]
 8004838:	6ada      	ldr	r2, [r3, #44]	; 0x2c
 800483a:	4b0d      	ldr	r3, [pc, #52]	; (8004870 <xTaskRemoveFromEventList+0xc0>)
 800483c:	681b      	ldr	r3, [r3, #0]
 800483e:	6adb      	ldr	r3, [r3, #44]	; 0x2c
 8004840:	429a      	cmp	r2, r3
 8004842:	d905      	bls.n	8004850 <xTaskRemoveFromEventList+0xa0>
 8004844:	2301      	movs	r3, #1
 8004846:	617b      	str	r3, [r7, #20]
 8004848:	4b0a      	ldr	r3, [pc, #40]	; (8004874 <xTaskRemoveFromEventList+0xc4>)
 800484a:	2201      	movs	r2, #1
 800484c:	601a      	str	r2, [r3, #0]
 800484e:	e001      	b.n	8004854 <xTaskRemoveFromEventList+0xa4>
 8004850:	2300      	movs	r3, #0
 8004852:	617b      	str	r3, [r7, #20]
 8004854:	697b      	ldr	r3, [r7, #20]
 8004856:	4618      	mov	r0, r3
 8004858:	3718      	adds	r7, #24
 800485a:	46bd      	mov	sp, r7
 800485c:	bd80      	pop	{r7, pc}
 800485e:	bf00      	nop
 8004860:	20000e60 	.word	0x20000e60
 8004864:	20000e40 	.word	0x20000e40
 8004868:	20000968 	.word	0x20000968
 800486c:	20000df8 	.word	0x20000df8
 8004870:	20000964 	.word	0x20000964
 8004874:	20000e4c 	.word	0x20000e4c

08004878 <vTaskInternalSetTimeOutState>:
 8004878:	b480      	push	{r7}
 800487a:	b083      	sub	sp, #12
 800487c:	af00      	add	r7, sp, #0
 800487e:	6078      	str	r0, [r7, #4]
 8004880:	4b06      	ldr	r3, [pc, #24]	; (800489c <vTaskInternalSetTimeOutState+0x24>)
 8004882:	681a      	ldr	r2, [r3, #0]
 8004884:	687b      	ldr	r3, [r7, #4]
 8004886:	601a      	str	r2, [r3, #0]
 8004888:	4b05      	ldr	r3, [pc, #20]	; (80048a0 <vTaskInternalSetTimeOutState+0x28>)
 800488a:	681a      	ldr	r2, [r3, #0]
 800488c:	687b      	ldr	r3, [r7, #4]
 800488e:	605a      	str	r2, [r3, #4]
 8004890:	bf00      	nop
 8004892:	370c      	adds	r7, #12
 8004894:	46bd      	mov	sp, r7
 8004896:	f85d 7b04 	ldr.w	r7, [sp], #4
 800489a:	4770      	bx	lr
 800489c:	20000e50 	.word	0x20000e50
 80048a0:	20000e3c 	.word	0x20000e3c

080048a4 <xTaskCheckForTimeOut>:
 80048a4:	b580      	push	{r7, lr}
 80048a6:	b088      	sub	sp, #32
 80048a8:	af00      	add	r7, sp, #0
 80048aa:	6078      	str	r0, [r7, #4]
 80048ac:	6039      	str	r1, [r7, #0]
 80048ae:	687b      	ldr	r3, [r7, #4]
 80048b0:	2b00      	cmp	r3, #0
 80048b2:	d10a      	bne.n	80048ca <xTaskCheckForTimeOut+0x26>
 80048b4:	f04f 0350 	mov.w	r3, #80	; 0x50
 80048b8:	f383 8811 	msr	BASEPRI, r3
 80048bc:	f3bf 8f6f 	isb	sy
 80048c0:	f3bf 8f4f 	dsb	sy
 80048c4:	613b      	str	r3, [r7, #16]
 80048c6:	bf00      	nop
 80048c8:	e7fe      	b.n	80048c8 <xTaskCheckForTimeOut+0x24>
 80048ca:	683b      	ldr	r3, [r7, #0]
 80048cc:	2b00      	cmp	r3, #0
 80048ce:	d10a      	bne.n	80048e6 <xTaskCheckForTimeOut+0x42>
 80048d0:	f04f 0350 	mov.w	r3, #80	; 0x50
 80048d4:	f383 8811 	msr	BASEPRI, r3
 80048d8:	f3bf 8f6f 	isb	sy
 80048dc:	f3bf 8f4f 	dsb	sy
 80048e0:	60fb      	str	r3, [r7, #12]
 80048e2:	bf00      	nop
 80048e4:	e7fe      	b.n	80048e4 <xTaskCheckForTimeOut+0x40>
 80048e6:	f000 fe7d 	bl	80055e4 <vPortEnterCritical>
 80048ea:	4b1d      	ldr	r3, [pc, #116]	; (8004960 <xTaskCheckForTimeOut+0xbc>)
 80048ec:	681b      	ldr	r3, [r3, #0]
 80048ee:	61bb      	str	r3, [r7, #24]
 80048f0:	687b      	ldr	r3, [r7, #4]
 80048f2:	685b      	ldr	r3, [r3, #4]
 80048f4:	69ba      	ldr	r2, [r7, #24]
 80048f6:	1ad3      	subs	r3, r2, r3
 80048f8:	617b      	str	r3, [r7, #20]
 80048fa:	683b      	ldr	r3, [r7, #0]
 80048fc:	681b      	ldr	r3, [r3, #0]
 80048fe:	f1b3 3fff 	cmp.w	r3, #4294967295
 8004902:	d102      	bne.n	800490a <xTaskCheckForTimeOut+0x66>
 8004904:	2300      	movs	r3, #0
 8004906:	61fb      	str	r3, [r7, #28]
 8004908:	e023      	b.n	8004952 <xTaskCheckForTimeOut+0xae>
 800490a:	687b      	ldr	r3, [r7, #4]
 800490c:	681a      	ldr	r2, [r3, #0]
 800490e:	4b15      	ldr	r3, [pc, #84]	; (8004964 <xTaskCheckForTimeOut+0xc0>)
 8004910:	681b      	ldr	r3, [r3, #0]
 8004912:	429a      	cmp	r2, r3
 8004914:	d007      	beq.n	8004926 <xTaskCheckForTimeOut+0x82>
 8004916:	687b      	ldr	r3, [r7, #4]
 8004918:	685b      	ldr	r3, [r3, #4]
 800491a:	69ba      	ldr	r2, [r7, #24]
 800491c:	429a      	cmp	r2, r3
 800491e:	d302      	bcc.n	8004926 <xTaskCheckForTimeOut+0x82>
 8004920:	2301      	movs	r3, #1
 8004922:	61fb      	str	r3, [r7, #28]
 8004924:	e015      	b.n	8004952 <xTaskCheckForTimeOut+0xae>
 8004926:	683b      	ldr	r3, [r7, #0]
 8004928:	681b      	ldr	r3, [r3, #0]
 800492a:	697a      	ldr	r2, [r7, #20]
 800492c:	429a      	cmp	r2, r3
 800492e:	d20b      	bcs.n	8004948 <xTaskCheckForTimeOut+0xa4>
 8004930:	683b      	ldr	r3, [r7, #0]
 8004932:	681a      	ldr	r2, [r3, #0]
 8004934:	697b      	ldr	r3, [r7, #20]
 8004936:	1ad2      	subs	r2, r2, r3
 8004938:	683b      	ldr	r3, [r7, #0]
 800493a:	601a      	str	r2, [r3, #0]
 800493c:	6878      	ldr	r0, [r7, #4]
 800493e:	f7ff ff9b 	bl	8004878 <vTaskInternalSetTimeOutState>
 8004942:	2300      	movs	r3, #0
 8004944:	61fb      	str	r3, [r7, #28]
 8004946:	e004      	b.n	8004952 <xTaskCheckForTimeOut+0xae>
 8004948:	683b      	ldr	r3, [r7, #0]
 800494a:	2200      	movs	r2, #0
 800494c:	601a      	str	r2, [r3, #0]
 800494e:	2301      	movs	r3, #1
 8004950:	61fb      	str	r3, [r7, #28]
 8004952:	f000 fe77 	bl	8005644 <vPortExitCritical>
 8004956:	69fb      	ldr	r3, [r7, #28]
 8004958:	4618      	mov	r0, r3
 800495a:	3720      	adds	r7, #32
 800495c:	46bd      	mov	sp, r7
 800495e:	bd80      	pop	{r7, pc}
 8004960:	20000e3c 	.word	0x20000e3c
 8004964:	20000e50 	.word	0x20000e50

08004968 <vTaskMissedYield>:
 8004968:	b480      	push	{r7}
 800496a:	af00      	add	r7, sp, #0
 800496c:	4b03      	ldr	r3, [pc, #12]	; (800497c <vTaskMissedYield+0x14>)
 800496e:	2201      	movs	r2, #1
 8004970:	601a      	str	r2, [r3, #0]
 8004972:	bf00      	nop
 8004974:	46bd      	mov	sp, r7
 8004976:	f85d 7b04 	ldr.w	r7, [sp], #4
 800497a:	4770      	bx	lr
 800497c:	20000e4c 	.word	0x20000e4c

08004980 <prvIdleTask>:
 8004980:	b580      	push	{r7, lr}
 8004982:	b082      	sub	sp, #8
 8004984:	af00      	add	r7, sp, #0
 8004986:	6078      	str	r0, [r7, #4]
 8004988:	f000 f852 	bl	8004a30 <prvCheckTasksWaitingTermination>
 800498c:	4b06      	ldr	r3, [pc, #24]	; (80049a8 <prvIdleTask+0x28>)
 800498e:	681b      	ldr	r3, [r3, #0]
 8004990:	2b01      	cmp	r3, #1
 8004992:	d9f9      	bls.n	8004988 <prvIdleTask+0x8>
 8004994:	4b05      	ldr	r3, [pc, #20]	; (80049ac <prvIdleTask+0x2c>)
 8004996:	f04f 5280 	mov.w	r2, #268435456	; 0x10000000
 800499a:	601a      	str	r2, [r3, #0]
 800499c:	f3bf 8f4f 	dsb	sy
 80049a0:	f3bf 8f6f 	isb	sy
 80049a4:	e7f0      	b.n	8004988 <prvIdleTask+0x8>
 80049a6:	bf00      	nop
 80049a8:	20000968 	.word	0x20000968
 80049ac:	e000ed04 	.word	0xe000ed04

080049b0 <prvInitialiseTaskLists>:
 80049b0:	b580      	push	{r7, lr}
 80049b2:	b082      	sub	sp, #8
 80049b4:	af00      	add	r7, sp, #0
 80049b6:	2300      	movs	r3, #0
 80049b8:	607b      	str	r3, [r7, #4]
 80049ba:	e00c      	b.n	80049d6 <prvInitialiseTaskLists+0x26>
 80049bc:	687a      	ldr	r2, [r7, #4]
 80049be:	4613      	mov	r3, r2
 80049c0:	009b      	lsls	r3, r3, #2
 80049c2:	4413      	add	r3, r2
 80049c4:	009b      	lsls	r3, r3, #2
 80049c6:	4a12      	ldr	r2, [pc, #72]	; (8004a10 <prvInitialiseTaskLists+0x60>)
 80049c8:	4413      	add	r3, r2
 80049ca:	4618      	mov	r0, r3
 80049cc:	f7fe fcf0 	bl	80033b0 <vListInitialise>
 80049d0:	687b      	ldr	r3, [r7, #4]
 80049d2:	3301      	adds	r3, #1
 80049d4:	607b      	str	r3, [r7, #4]
 80049d6:	687b      	ldr	r3, [r7, #4]
 80049d8:	2b37      	cmp	r3, #55	; 0x37
 80049da:	d9ef      	bls.n	80049bc <prvInitialiseTaskLists+0xc>
 80049dc:	480d      	ldr	r0, [pc, #52]	; (8004a14 <prvInitialiseTaskLists+0x64>)
 80049de:	f7fe fce7 	bl	80033b0 <vListInitialise>
 80049e2:	480d      	ldr	r0, [pc, #52]	; (8004a18 <prvInitialiseTaskLists+0x68>)
 80049e4:	f7fe fce4 	bl	80033b0 <vListInitialise>
 80049e8:	480c      	ldr	r0, [pc, #48]	; (8004a1c <prvInitialiseTaskLists+0x6c>)
 80049ea:	f7fe fce1 	bl	80033b0 <vListInitialise>
 80049ee:	480c      	ldr	r0, [pc, #48]	; (8004a20 <prvInitialiseTaskLists+0x70>)
 80049f0:	f7fe fcde 	bl	80033b0 <vListInitialise>
 80049f4:	480b      	ldr	r0, [pc, #44]	; (8004a24 <prvInitialiseTaskLists+0x74>)
 80049f6:	f7fe fcdb 	bl	80033b0 <vListInitialise>
 80049fa:	4b0b      	ldr	r3, [pc, #44]	; (8004a28 <prvInitialiseTaskLists+0x78>)
 80049fc:	4a05      	ldr	r2, [pc, #20]	; (8004a14 <prvInitialiseTaskLists+0x64>)
 80049fe:	601a      	str	r2, [r3, #0]
 8004a00:	4b0a      	ldr	r3, [pc, #40]	; (8004a2c <prvInitialiseTaskLists+0x7c>)
 8004a02:	4a05      	ldr	r2, [pc, #20]	; (8004a18 <prvInitialiseTaskLists+0x68>)
 8004a04:	601a      	str	r2, [r3, #0]
 8004a06:	bf00      	nop
 8004a08:	3708      	adds	r7, #8
 8004a0a:	46bd      	mov	sp, r7
 8004a0c:	bd80      	pop	{r7, pc}
 8004a0e:	bf00      	nop
 8004a10:	20000968 	.word	0x20000968
 8004a14:	20000dc8 	.word	0x20000dc8
 8004a18:	20000ddc 	.word	0x20000ddc
 8004a1c:	20000df8 	.word	0x20000df8
 8004a20:	20000e0c 	.word	0x20000e0c
 8004a24:	20000e24 	.word	0x20000e24
 8004a28:	20000df0 	.word	0x20000df0
 8004a2c:	20000df4 	.word	0x20000df4

08004a30 <prvCheckTasksWaitingTermination>:
 8004a30:	b580      	push	{r7, lr}
 8004a32:	b082      	sub	sp, #8
 8004a34:	af00      	add	r7, sp, #0
 8004a36:	e019      	b.n	8004a6c <prvCheckTasksWaitingTermination+0x3c>
 8004a38:	f000 fdd4 	bl	80055e4 <vPortEnterCritical>
 8004a3c:	4b10      	ldr	r3, [pc, #64]	; (8004a80 <prvCheckTasksWaitingTermination+0x50>)
 8004a3e:	68db      	ldr	r3, [r3, #12]
 8004a40:	68db      	ldr	r3, [r3, #12]
 8004a42:	607b      	str	r3, [r7, #4]
 8004a44:	687b      	ldr	r3, [r7, #4]
 8004a46:	3304      	adds	r3, #4
 8004a48:	4618      	mov	r0, r3
 8004a4a:	f7fe fd3b 	bl	80034c4 <uxListRemove>
 8004a4e:	4b0d      	ldr	r3, [pc, #52]	; (8004a84 <prvCheckTasksWaitingTermination+0x54>)
 8004a50:	681b      	ldr	r3, [r3, #0]
 8004a52:	3b01      	subs	r3, #1
 8004a54:	4a0b      	ldr	r2, [pc, #44]	; (8004a84 <prvCheckTasksWaitingTermination+0x54>)
 8004a56:	6013      	str	r3, [r2, #0]
 8004a58:	4b0b      	ldr	r3, [pc, #44]	; (8004a88 <prvCheckTasksWaitingTermination+0x58>)
 8004a5a:	681b      	ldr	r3, [r3, #0]
 8004a5c:	3b01      	subs	r3, #1
 8004a5e:	4a0a      	ldr	r2, [pc, #40]	; (8004a88 <prvCheckTasksWaitingTermination+0x58>)
 8004a60:	6013      	str	r3, [r2, #0]
 8004a62:	f000 fdef 	bl	8005644 <vPortExitCritical>
 8004a66:	6878      	ldr	r0, [r7, #4]
 8004a68:	f000 f810 	bl	8004a8c <prvDeleteTCB>
 8004a6c:	4b06      	ldr	r3, [pc, #24]	; (8004a88 <prvCheckTasksWaitingTermination+0x58>)
 8004a6e:	681b      	ldr	r3, [r3, #0]
 8004a70:	2b00      	cmp	r3, #0
 8004a72:	d1e1      	bne.n	8004a38 <prvCheckTasksWaitingTermination+0x8>
 8004a74:	bf00      	nop
 8004a76:	bf00      	nop
 8004a78:	3708      	adds	r7, #8
 8004a7a:	46bd      	mov	sp, r7
 8004a7c:	bd80      	pop	{r7, pc}
 8004a7e:	bf00      	nop
 8004a80:	20000e0c 	.word	0x20000e0c
 8004a84:	20000e38 	.word	0x20000e38
 8004a88:	20000e20 	.word	0x20000e20

08004a8c <prvDeleteTCB>:
 8004a8c:	b580      	push	{r7, lr}
 8004a8e:	b084      	sub	sp, #16
 8004a90:	af00      	add	r7, sp, #0
 8004a92:	6078      	str	r0, [r7, #4]
 8004a94:	687b      	ldr	r3, [r7, #4]
 8004a96:	f893 3059 	ldrb.w	r3, [r3, #89]	; 0x59
 8004a9a:	2b00      	cmp	r3, #0
 8004a9c:	d108      	bne.n	8004ab0 <prvDeleteTCB+0x24>
 8004a9e:	687b      	ldr	r3, [r7, #4]
 8004aa0:	6b1b      	ldr	r3, [r3, #48]	; 0x30
 8004aa2:	4618      	mov	r0, r3
 8004aa4:	f000 ff8c 	bl	80059c0 <vPortFree>
 8004aa8:	6878      	ldr	r0, [r7, #4]
 8004aaa:	f000 ff89 	bl	80059c0 <vPortFree>
 8004aae:	e018      	b.n	8004ae2 <prvDeleteTCB+0x56>
 8004ab0:	687b      	ldr	r3, [r7, #4]
 8004ab2:	f893 3059 	ldrb.w	r3, [r3, #89]	; 0x59
 8004ab6:	2b01      	cmp	r3, #1
 8004ab8:	d103      	bne.n	8004ac2 <prvDeleteTCB+0x36>
 8004aba:	6878      	ldr	r0, [r7, #4]
 8004abc:	f000 ff80 	bl	80059c0 <vPortFree>
 8004ac0:	e00f      	b.n	8004ae2 <prvDeleteTCB+0x56>
 8004ac2:	687b      	ldr	r3, [r7, #4]
 8004ac4:	f893 3059 	ldrb.w	r3, [r3, #89]	; 0x59
 8004ac8:	2b02      	cmp	r3, #2
 8004aca:	d00a      	beq.n	8004ae2 <prvDeleteTCB+0x56>
 8004acc:	f04f 0350 	mov.w	r3, #80	; 0x50
 8004ad0:	f383 8811 	msr	BASEPRI, r3
 8004ad4:	f3bf 8f6f 	isb	sy
 8004ad8:	f3bf 8f4f 	dsb	sy
 8004adc:	60fb      	str	r3, [r7, #12]
 8004ade:	bf00      	nop
 8004ae0:	e7fe      	b.n	8004ae0 <prvDeleteTCB+0x54>
 8004ae2:	bf00      	nop
 8004ae4:	3710      	adds	r7, #16
 8004ae6:	46bd      	mov	sp, r7
 8004ae8:	bd80      	pop	{r7, pc}
	...

08004aec <prvResetNextTaskUnblockTime>:
 8004aec:	b480      	push	{r7}
 8004aee:	b083      	sub	sp, #12
 8004af0:	af00      	add	r7, sp, #0
 8004af2:	4b0c      	ldr	r3, [pc, #48]	; (8004b24 <prvResetNextTaskUnblockTime+0x38>)
 8004af4:	681b      	ldr	r3, [r3, #0]
 8004af6:	681b      	ldr	r3, [r3, #0]
 8004af8:	2b00      	cmp	r3, #0
 8004afa:	d104      	bne.n	8004b06 <prvResetNextTaskUnblockTime+0x1a>
 8004afc:	4b0a      	ldr	r3, [pc, #40]	; (8004b28 <prvResetNextTaskUnblockTime+0x3c>)
 8004afe:	f04f 32ff 	mov.w	r2, #4294967295
 8004b02:	601a      	str	r2, [r3, #0]
 8004b04:	e008      	b.n	8004b18 <prvResetNextTaskUnblockTime+0x2c>
 8004b06:	4b07      	ldr	r3, [pc, #28]	; (8004b24 <prvResetNextTaskUnblockTime+0x38>)
 8004b08:	681b      	ldr	r3, [r3, #0]
 8004b0a:	68db      	ldr	r3, [r3, #12]
 8004b0c:	68db      	ldr	r3, [r3, #12]
 8004b0e:	607b      	str	r3, [r7, #4]
 8004b10:	687b      	ldr	r3, [r7, #4]
 8004b12:	685b      	ldr	r3, [r3, #4]
 8004b14:	4a04      	ldr	r2, [pc, #16]	; (8004b28 <prvResetNextTaskUnblockTime+0x3c>)
 8004b16:	6013      	str	r3, [r2, #0]
 8004b18:	bf00      	nop
 8004b1a:	370c      	adds	r7, #12
 8004b1c:	46bd      	mov	sp, r7
 8004b1e:	f85d 7b04 	ldr.w	r7, [sp], #4
 8004b22:	4770      	bx	lr
 8004b24:	20000df0 	.word	0x20000df0
 8004b28:	20000e58 	.word	0x20000e58

08004b2c <xTaskGetSchedulerState>:
 8004b2c:	b480      	push	{r7}
 8004b2e:	b083      	sub	sp, #12
 8004b30:	af00      	add	r7, sp, #0
 8004b32:	4b0b      	ldr	r3, [pc, #44]	; (8004b60 <xTaskGetSchedulerState+0x34>)
 8004b34:	681b      	ldr	r3, [r3, #0]
 8004b36:	2b00      	cmp	r3, #0
 8004b38:	d102      	bne.n	8004b40 <xTaskGetSchedulerState+0x14>
 8004b3a:	2301      	movs	r3, #1
 8004b3c:	607b      	str	r3, [r7, #4]
 8004b3e:	e008      	b.n	8004b52 <xTaskGetSchedulerState+0x26>
 8004b40:	4b08      	ldr	r3, [pc, #32]	; (8004b64 <xTaskGetSchedulerState+0x38>)
 8004b42:	681b      	ldr	r3, [r3, #0]
 8004b44:	2b00      	cmp	r3, #0
 8004b46:	d102      	bne.n	8004b4e <xTaskGetSchedulerState+0x22>
 8004b48:	2302      	movs	r3, #2
 8004b4a:	607b      	str	r3, [r7, #4]
 8004b4c:	e001      	b.n	8004b52 <xTaskGetSchedulerState+0x26>
 8004b4e:	2300      	movs	r3, #0
 8004b50:	607b      	str	r3, [r7, #4]
 8004b52:	687b      	ldr	r3, [r7, #4]
 8004b54:	4618      	mov	r0, r3
 8004b56:	370c      	adds	r7, #12
 8004b58:	46bd      	mov	sp, r7
 8004b5a:	f85d 7b04 	ldr.w	r7, [sp], #4
 8004b5e:	4770      	bx	lr
 8004b60:	20000e44 	.word	0x20000e44
 8004b64:	20000e60 	.word	0x20000e60

08004b68 <xTaskPriorityDisinherit>:
 8004b68:	b580      	push	{r7, lr}
 8004b6a:	b086      	sub	sp, #24
 8004b6c:	af00      	add	r7, sp, #0
 8004b6e:	6078      	str	r0, [r7, #4]
 8004b70:	687b      	ldr	r3, [r7, #4]
 8004b72:	613b      	str	r3, [r7, #16]
 8004b74:	2300      	movs	r3, #0
 8004b76:	617b      	str	r3, [r7, #20]
 8004b78:	687b      	ldr	r3, [r7, #4]
 8004b7a:	2b00      	cmp	r3, #0
 8004b7c:	d056      	beq.n	8004c2c <xTaskPriorityDisinherit+0xc4>
 8004b7e:	4b2e      	ldr	r3, [pc, #184]	; (8004c38 <xTaskPriorityDisinherit+0xd0>)
 8004b80:	681b      	ldr	r3, [r3, #0]
 8004b82:	693a      	ldr	r2, [r7, #16]
 8004b84:	429a      	cmp	r2, r3
 8004b86:	d00a      	beq.n	8004b9e <xTaskPriorityDisinherit+0x36>
 8004b88:	f04f 0350 	mov.w	r3, #80	; 0x50
 8004b8c:	f383 8811 	msr	BASEPRI, r3
 8004b90:	f3bf 8f6f 	isb	sy
 8004b94:	f3bf 8f4f 	dsb	sy
 8004b98:	60fb      	str	r3, [r7, #12]
 8004b9a:	bf00      	nop
 8004b9c:	e7fe      	b.n	8004b9c <xTaskPriorityDisinherit+0x34>
 8004b9e:	693b      	ldr	r3, [r7, #16]
 8004ba0:	6d1b      	ldr	r3, [r3, #80]	; 0x50
 8004ba2:	2b00      	cmp	r3, #0
 8004ba4:	d10a      	bne.n	8004bbc <xTaskPriorityDisinherit+0x54>
 8004ba6:	f04f 0350 	mov.w	r3, #80	; 0x50
 8004baa:	f383 8811 	msr	BASEPRI, r3
 8004bae:	f3bf 8f6f 	isb	sy
 8004bb2:	f3bf 8f4f 	dsb	sy
 8004bb6:	60bb      	str	r3, [r7, #8]
 8004bb8:	bf00      	nop
 8004bba:	e7fe      	b.n	8004bba <xTaskPriorityDisinherit+0x52>
 8004bbc:	693b      	ldr	r3, [r7, #16]
 8004bbe:	6d1b      	ldr	r3, [r3, #80]	; 0x50
 8004bc0:	1e5a      	subs	r2, r3, #1
 8004bc2:	693b      	ldr	r3, [r7, #16]
 8004bc4:	651a      	str	r2, [r3, #80]	; 0x50
 8004bc6:	693b      	ldr	r3, [r7, #16]
 8004bc8:	6ada      	ldr	r2, [r3, #44]	; 0x2c
 8004bca:	693b      	ldr	r3, [r7, #16]
 8004bcc:	6cdb      	ldr	r3, [r3, #76]	; 0x4c
 8004bce:	429a      	cmp	r2, r3
 8004bd0:	d02c      	beq.n	8004c2c <xTaskPriorityDisinherit+0xc4>
 8004bd2:	693b      	ldr	r3, [r7, #16]
 8004bd4:	6d1b      	ldr	r3, [r3, #80]	; 0x50
 8004bd6:	2b00      	cmp	r3, #0
 8004bd8:	d128      	bne.n	8004c2c <xTaskPriorityDisinherit+0xc4>
 8004bda:	693b      	ldr	r3, [r7, #16]
 8004bdc:	3304      	adds	r3, #4
 8004bde:	4618      	mov	r0, r3
 8004be0:	f7fe fc70 	bl	80034c4 <uxListRemove>
 8004be4:	693b      	ldr	r3, [r7, #16]
 8004be6:	6cda      	ldr	r2, [r3, #76]	; 0x4c
 8004be8:	693b      	ldr	r3, [r7, #16]
 8004bea:	62da      	str	r2, [r3, #44]	; 0x2c
 8004bec:	693b      	ldr	r3, [r7, #16]
 8004bee:	6adb      	ldr	r3, [r3, #44]	; 0x2c
 8004bf0:	f1c3 0238 	rsb	r2, r3, #56	; 0x38
 8004bf4:	693b      	ldr	r3, [r7, #16]
 8004bf6:	619a      	str	r2, [r3, #24]
 8004bf8:	693b      	ldr	r3, [r7, #16]
 8004bfa:	6ada      	ldr	r2, [r3, #44]	; 0x2c
 8004bfc:	4b0f      	ldr	r3, [pc, #60]	; (8004c3c <xTaskPriorityDisinherit+0xd4>)
 8004bfe:	681b      	ldr	r3, [r3, #0]
 8004c00:	429a      	cmp	r2, r3
 8004c02:	d903      	bls.n	8004c0c <xTaskPriorityDisinherit+0xa4>
 8004c04:	693b      	ldr	r3, [r7, #16]
 8004c06:	6adb      	ldr	r3, [r3, #44]	; 0x2c
 8004c08:	4a0c      	ldr	r2, [pc, #48]	; (8004c3c <xTaskPriorityDisinherit+0xd4>)
 8004c0a:	6013      	str	r3, [r2, #0]
 8004c0c:	693b      	ldr	r3, [r7, #16]
 8004c0e:	6ada      	ldr	r2, [r3, #44]	; 0x2c
 8004c10:	4613      	mov	r3, r2
 8004c12:	009b      	lsls	r3, r3, #2
 8004c14:	4413      	add	r3, r2
 8004c16:	009b      	lsls	r3, r3, #2
 8004c18:	4a09      	ldr	r2, [pc, #36]	; (8004c40 <xTaskPriorityDisinherit+0xd8>)
 8004c1a:	441a      	add	r2, r3
 8004c1c:	693b      	ldr	r3, [r7, #16]
 8004c1e:	3304      	adds	r3, #4
 8004c20:	4619      	mov	r1, r3
 8004c22:	4610      	mov	r0, r2
 8004c24:	f7fe fbf1 	bl	800340a <vListInsertEnd>
 8004c28:	2301      	movs	r3, #1
 8004c2a:	617b      	str	r3, [r7, #20]
 8004c2c:	697b      	ldr	r3, [r7, #20]
 8004c2e:	4618      	mov	r0, r3
 8004c30:	3718      	adds	r7, #24
 8004c32:	46bd      	mov	sp, r7
 8004c34:	bd80      	pop	{r7, pc}
 8004c36:	bf00      	nop
 8004c38:	20000964 	.word	0x20000964
 8004c3c:	20000e40 	.word	0x20000e40
 8004c40:	20000968 	.word	0x20000968

08004c44 <prvAddCurrentTaskToDelayedList>:
 8004c44:	b580      	push	{r7, lr}
 8004c46:	b084      	sub	sp, #16
 8004c48:	af00      	add	r7, sp, #0
 8004c4a:	6078      	str	r0, [r7, #4]
 8004c4c:	6039      	str	r1, [r7, #0]
 8004c4e:	4b21      	ldr	r3, [pc, #132]	; (8004cd4 <prvAddCurrentTaskToDelayedList+0x90>)
 8004c50:	681b      	ldr	r3, [r3, #0]
 8004c52:	60fb      	str	r3, [r7, #12]
 8004c54:	4b20      	ldr	r3, [pc, #128]	; (8004cd8 <prvAddCurrentTaskToDelayedList+0x94>)
 8004c56:	681b      	ldr	r3, [r3, #0]
 8004c58:	3304      	adds	r3, #4
 8004c5a:	4618      	mov	r0, r3
 8004c5c:	f7fe fc32 	bl	80034c4 <uxListRemove>
 8004c60:	687b      	ldr	r3, [r7, #4]
 8004c62:	f1b3 3fff 	cmp.w	r3, #4294967295
 8004c66:	d10a      	bne.n	8004c7e <prvAddCurrentTaskToDelayedList+0x3a>
 8004c68:	683b      	ldr	r3, [r7, #0]
 8004c6a:	2b00      	cmp	r3, #0
 8004c6c:	d007      	beq.n	8004c7e <prvAddCurrentTaskToDelayedList+0x3a>
 8004c6e:	4b1a      	ldr	r3, [pc, #104]	; (8004cd8 <prvAddCurrentTaskToDelayedList+0x94>)
 8004c70:	681b      	ldr	r3, [r3, #0]
 8004c72:	3304      	adds	r3, #4
 8004c74:	4619      	mov	r1, r3
 8004c76:	4819      	ldr	r0, [pc, #100]	; (8004cdc <prvAddCurrentTaskToDelayedList+0x98>)
 8004c78:	f7fe fbc7 	bl	800340a <vListInsertEnd>
 8004c7c:	e026      	b.n	8004ccc <prvAddCurrentTaskToDelayedList+0x88>
 8004c7e:	68fa      	ldr	r2, [r7, #12]
 8004c80:	687b      	ldr	r3, [r7, #4]
 8004c82:	4413      	add	r3, r2
 8004c84:	60bb      	str	r3, [r7, #8]
 8004c86:	4b14      	ldr	r3, [pc, #80]	; (8004cd8 <prvAddCurrentTaskToDelayedList+0x94>)
 8004c88:	681b      	ldr	r3, [r3, #0]
 8004c8a:	68ba      	ldr	r2, [r7, #8]
 8004c8c:	605a      	str	r2, [r3, #4]
 8004c8e:	68ba      	ldr	r2, [r7, #8]
 8004c90:	68fb      	ldr	r3, [r7, #12]
 8004c92:	429a      	cmp	r2, r3
 8004c94:	d209      	bcs.n	8004caa <prvAddCurrentTaskToDelayedList+0x66>
 8004c96:	4b12      	ldr	r3, [pc, #72]	; (8004ce0 <prvAddCurrentTaskToDelayedList+0x9c>)
 8004c98:	681a      	ldr	r2, [r3, #0]
 8004c9a:	4b0f      	ldr	r3, [pc, #60]	; (8004cd8 <prvAddCurrentTaskToDelayedList+0x94>)
 8004c9c:	681b      	ldr	r3, [r3, #0]
 8004c9e:	3304      	adds	r3, #4
 8004ca0:	4619      	mov	r1, r3
 8004ca2:	4610      	mov	r0, r2
 8004ca4:	f7fe fbd5 	bl	8003452 <vListInsert>
 8004ca8:	e010      	b.n	8004ccc <prvAddCurrentTaskToDelayedList+0x88>
 8004caa:	4b0e      	ldr	r3, [pc, #56]	; (8004ce4 <prvAddCurrentTaskToDelayedList+0xa0>)
 8004cac:	681a      	ldr	r2, [r3, #0]
 8004cae:	4b0a      	ldr	r3, [pc, #40]	; (8004cd8 <prvAddCurrentTaskToDelayedList+0x94>)
 8004cb0:	681b      	ldr	r3, [r3, #0]
 8004cb2:	3304      	adds	r3, #4
 8004cb4:	4619      	mov	r1, r3
 8004cb6:	4610      	mov	r0, r2
 8004cb8:	f7fe fbcb 	bl	8003452 <vListInsert>
 8004cbc:	4b0a      	ldr	r3, [pc, #40]	; (8004ce8 <prvAddCurrentTaskToDelayedList+0xa4>)
 8004cbe:	681b      	ldr	r3, [r3, #0]
 8004cc0:	68ba      	ldr	r2, [r7, #8]
 8004cc2:	429a      	cmp	r2, r3
 8004cc4:	d202      	bcs.n	8004ccc <prvAddCurrentTaskToDelayedList+0x88>
 8004cc6:	4a08      	ldr	r2, [pc, #32]	; (8004ce8 <prvAddCurrentTaskToDelayedList+0xa4>)
 8004cc8:	68bb      	ldr	r3, [r7, #8]
 8004cca:	6013      	str	r3, [r2, #0]
 8004ccc:	bf00      	nop
 8004cce:	3710      	adds	r7, #16
 8004cd0:	46bd      	mov	sp, r7
 8004cd2:	bd80      	pop	{r7, pc}
 8004cd4:	20000e3c 	.word	0x20000e3c
 8004cd8:	20000964 	.word	0x20000964
 8004cdc:	20000e24 	.word	0x20000e24
 8004ce0:	20000df4 	.word	0x20000df4
 8004ce4:	20000df0 	.word	0x20000df0
 8004ce8:	20000e58 	.word	0x20000e58

08004cec <xTimerCreateTimerTask>:
 8004cec:	b580      	push	{r7, lr}
 8004cee:	b08a      	sub	sp, #40	; 0x28
 8004cf0:	af04      	add	r7, sp, #16
 8004cf2:	2300      	movs	r3, #0
 8004cf4:	617b      	str	r3, [r7, #20]
 8004cf6:	f000 fb07 	bl	8005308 <prvCheckForValidListAndQueue>
 8004cfa:	4b1c      	ldr	r3, [pc, #112]	; (8004d6c <xTimerCreateTimerTask+0x80>)
 8004cfc:	681b      	ldr	r3, [r3, #0]
 8004cfe:	2b00      	cmp	r3, #0
 8004d00:	d021      	beq.n	8004d46 <xTimerCreateTimerTask+0x5a>
 8004d02:	2300      	movs	r3, #0
 8004d04:	60fb      	str	r3, [r7, #12]
 8004d06:	2300      	movs	r3, #0
 8004d08:	60bb      	str	r3, [r7, #8]
 8004d0a:	1d3a      	adds	r2, r7, #4
 8004d0c:	f107 0108 	add.w	r1, r7, #8
 8004d10:	f107 030c 	add.w	r3, r7, #12
 8004d14:	4618      	mov	r0, r3
 8004d16:	f7fe fb31 	bl	800337c <vApplicationGetTimerTaskMemory>
 8004d1a:	6879      	ldr	r1, [r7, #4]
 8004d1c:	68bb      	ldr	r3, [r7, #8]
 8004d1e:	68fa      	ldr	r2, [r7, #12]
 8004d20:	9202      	str	r2, [sp, #8]
 8004d22:	9301      	str	r3, [sp, #4]
 8004d24:	2302      	movs	r3, #2
 8004d26:	9300      	str	r3, [sp, #0]
 8004d28:	2300      	movs	r3, #0
 8004d2a:	460a      	mov	r2, r1
 8004d2c:	4910      	ldr	r1, [pc, #64]	; (8004d70 <xTimerCreateTimerTask+0x84>)
 8004d2e:	4811      	ldr	r0, [pc, #68]	; (8004d74 <xTimerCreateTimerTask+0x88>)
 8004d30:	f7ff f8de 	bl	8003ef0 <xTaskCreateStatic>
 8004d34:	4603      	mov	r3, r0
 8004d36:	4a10      	ldr	r2, [pc, #64]	; (8004d78 <xTimerCreateTimerTask+0x8c>)
 8004d38:	6013      	str	r3, [r2, #0]
 8004d3a:	4b0f      	ldr	r3, [pc, #60]	; (8004d78 <xTimerCreateTimerTask+0x8c>)
 8004d3c:	681b      	ldr	r3, [r3, #0]
 8004d3e:	2b00      	cmp	r3, #0
 8004d40:	d001      	beq.n	8004d46 <xTimerCreateTimerTask+0x5a>
 8004d42:	2301      	movs	r3, #1
 8004d44:	617b      	str	r3, [r7, #20]
 8004d46:	697b      	ldr	r3, [r7, #20]
 8004d48:	2b00      	cmp	r3, #0
 8004d4a:	d10a      	bne.n	8004d62 <xTimerCreateTimerTask+0x76>
 8004d4c:	f04f 0350 	mov.w	r3, #80	; 0x50
 8004d50:	f383 8811 	msr	BASEPRI, r3
 8004d54:	f3bf 8f6f 	isb	sy
 8004d58:	f3bf 8f4f 	dsb	sy
 8004d5c:	613b      	str	r3, [r7, #16]
 8004d5e:	bf00      	nop
 8004d60:	e7fe      	b.n	8004d60 <xTimerCreateTimerTask+0x74>
 8004d62:	697b      	ldr	r3, [r7, #20]
 8004d64:	4618      	mov	r0, r3
 8004d66:	3718      	adds	r7, #24
 8004d68:	46bd      	mov	sp, r7
 8004d6a:	bd80      	pop	{r7, pc}
 8004d6c:	20000e94 	.word	0x20000e94
 8004d70:	080065c4 	.word	0x080065c4
 8004d74:	08004eb1 	.word	0x08004eb1
 8004d78:	20000e98 	.word	0x20000e98

08004d7c <xTimerGenericCommand>:
 8004d7c:	b580      	push	{r7, lr}
 8004d7e:	b08a      	sub	sp, #40	; 0x28
 8004d80:	af00      	add	r7, sp, #0
 8004d82:	60f8      	str	r0, [r7, #12]
 8004d84:	60b9      	str	r1, [r7, #8]
 8004d86:	607a      	str	r2, [r7, #4]
 8004d88:	603b      	str	r3, [r7, #0]
 8004d8a:	2300      	movs	r3, #0
 8004d8c:	627b      	str	r3, [r7, #36]	; 0x24
 8004d8e:	68fb      	ldr	r3, [r7, #12]
 8004d90:	2b00      	cmp	r3, #0
 8004d92:	d10a      	bne.n	8004daa <xTimerGenericCommand+0x2e>
 8004d94:	f04f 0350 	mov.w	r3, #80	; 0x50
 8004d98:	f383 8811 	msr	BASEPRI, r3
 8004d9c:	f3bf 8f6f 	isb	sy
 8004da0:	f3bf 8f4f 	dsb	sy
 8004da4:	623b      	str	r3, [r7, #32]
 8004da6:	bf00      	nop
 8004da8:	e7fe      	b.n	8004da8 <xTimerGenericCommand+0x2c>
 8004daa:	4b1a      	ldr	r3, [pc, #104]	; (8004e14 <xTimerGenericCommand+0x98>)
 8004dac:	681b      	ldr	r3, [r3, #0]
 8004dae:	2b00      	cmp	r3, #0
 8004db0:	d02a      	beq.n	8004e08 <xTimerGenericCommand+0x8c>
 8004db2:	68bb      	ldr	r3, [r7, #8]
 8004db4:	613b      	str	r3, [r7, #16]
 8004db6:	687b      	ldr	r3, [r7, #4]
 8004db8:	617b      	str	r3, [r7, #20]
 8004dba:	68fb      	ldr	r3, [r7, #12]
 8004dbc:	61bb      	str	r3, [r7, #24]
 8004dbe:	68bb      	ldr	r3, [r7, #8]
 8004dc0:	2b05      	cmp	r3, #5
 8004dc2:	dc18      	bgt.n	8004df6 <xTimerGenericCommand+0x7a>
 8004dc4:	f7ff feb2 	bl	8004b2c <xTaskGetSchedulerState>
 8004dc8:	4603      	mov	r3, r0
 8004dca:	2b02      	cmp	r3, #2
 8004dcc:	d109      	bne.n	8004de2 <xTimerGenericCommand+0x66>
 8004dce:	4b11      	ldr	r3, [pc, #68]	; (8004e14 <xTimerGenericCommand+0x98>)
 8004dd0:	6818      	ldr	r0, [r3, #0]
 8004dd2:	f107 0110 	add.w	r1, r7, #16
 8004dd6:	2300      	movs	r3, #0
 8004dd8:	6b3a      	ldr	r2, [r7, #48]	; 0x30
 8004dda:	f7fe fca1 	bl	8003720 <xQueueGenericSend>
 8004dde:	6278      	str	r0, [r7, #36]	; 0x24
 8004de0:	e012      	b.n	8004e08 <xTimerGenericCommand+0x8c>
 8004de2:	4b0c      	ldr	r3, [pc, #48]	; (8004e14 <xTimerGenericCommand+0x98>)
 8004de4:	6818      	ldr	r0, [r3, #0]
 8004de6:	f107 0110 	add.w	r1, r7, #16
 8004dea:	2300      	movs	r3, #0
 8004dec:	2200      	movs	r2, #0
 8004dee:	f7fe fc97 	bl	8003720 <xQueueGenericSend>
 8004df2:	6278      	str	r0, [r7, #36]	; 0x24
 8004df4:	e008      	b.n	8004e08 <xTimerGenericCommand+0x8c>
 8004df6:	4b07      	ldr	r3, [pc, #28]	; (8004e14 <xTimerGenericCommand+0x98>)
 8004df8:	6818      	ldr	r0, [r3, #0]
 8004dfa:	f107 0110 	add.w	r1, r7, #16
 8004dfe:	2300      	movs	r3, #0
 8004e00:	683a      	ldr	r2, [r7, #0]
 8004e02:	f7fe fd8b 	bl	800391c <xQueueGenericSendFromISR>
 8004e06:	6278      	str	r0, [r7, #36]	; 0x24
 8004e08:	6a7b      	ldr	r3, [r7, #36]	; 0x24
 8004e0a:	4618      	mov	r0, r3
 8004e0c:	3728      	adds	r7, #40	; 0x28
 8004e0e:	46bd      	mov	sp, r7
 8004e10:	bd80      	pop	{r7, pc}
 8004e12:	bf00      	nop
 8004e14:	20000e94 	.word	0x20000e94

08004e18 <prvProcessExpiredTimer>:
 8004e18:	b580      	push	{r7, lr}
 8004e1a:	b088      	sub	sp, #32
 8004e1c:	af02      	add	r7, sp, #8
 8004e1e:	6078      	str	r0, [r7, #4]
 8004e20:	6039      	str	r1, [r7, #0]
 8004e22:	4b22      	ldr	r3, [pc, #136]	; (8004eac <prvProcessExpiredTimer+0x94>)
 8004e24:	681b      	ldr	r3, [r3, #0]
 8004e26:	68db      	ldr	r3, [r3, #12]
 8004e28:	68db      	ldr	r3, [r3, #12]
 8004e2a:	617b      	str	r3, [r7, #20]
 8004e2c:	697b      	ldr	r3, [r7, #20]
 8004e2e:	3304      	adds	r3, #4
 8004e30:	4618      	mov	r0, r3
 8004e32:	f7fe fb47 	bl	80034c4 <uxListRemove>
 8004e36:	697b      	ldr	r3, [r7, #20]
 8004e38:	f893 3028 	ldrb.w	r3, [r3, #40]	; 0x28
 8004e3c:	f003 0304 	and.w	r3, r3, #4
 8004e40:	2b00      	cmp	r3, #0
 8004e42:	d022      	beq.n	8004e8a <prvProcessExpiredTimer+0x72>
 8004e44:	697b      	ldr	r3, [r7, #20]
 8004e46:	699a      	ldr	r2, [r3, #24]
 8004e48:	687b      	ldr	r3, [r7, #4]
 8004e4a:	18d1      	adds	r1, r2, r3
 8004e4c:	687b      	ldr	r3, [r7, #4]
 8004e4e:	683a      	ldr	r2, [r7, #0]
 8004e50:	6978      	ldr	r0, [r7, #20]
 8004e52:	f000 f8d1 	bl	8004ff8 <prvInsertTimerInActiveList>
 8004e56:	4603      	mov	r3, r0
 8004e58:	2b00      	cmp	r3, #0
 8004e5a:	d01f      	beq.n	8004e9c <prvProcessExpiredTimer+0x84>
 8004e5c:	2300      	movs	r3, #0
 8004e5e:	9300      	str	r3, [sp, #0]
 8004e60:	2300      	movs	r3, #0
 8004e62:	687a      	ldr	r2, [r7, #4]
 8004e64:	2100      	movs	r1, #0
 8004e66:	6978      	ldr	r0, [r7, #20]
 8004e68:	f7ff ff88 	bl	8004d7c <xTimerGenericCommand>
 8004e6c:	6138      	str	r0, [r7, #16]
 8004e6e:	693b      	ldr	r3, [r7, #16]
 8004e70:	2b00      	cmp	r3, #0
 8004e72:	d113      	bne.n	8004e9c <prvProcessExpiredTimer+0x84>
 8004e74:	f04f 0350 	mov.w	r3, #80	; 0x50
 8004e78:	f383 8811 	msr	BASEPRI, r3
 8004e7c:	f3bf 8f6f 	isb	sy
 8004e80:	f3bf 8f4f 	dsb	sy
 8004e84:	60fb      	str	r3, [r7, #12]
 8004e86:	bf00      	nop
 8004e88:	e7fe      	b.n	8004e88 <prvProcessExpiredTimer+0x70>
 8004e8a:	697b      	ldr	r3, [r7, #20]
 8004e8c:	f893 3028 	ldrb.w	r3, [r3, #40]	; 0x28
 8004e90:	f023 0301 	bic.w	r3, r3, #1
 8004e94:	b2da      	uxtb	r2, r3
 8004e96:	697b      	ldr	r3, [r7, #20]
 8004e98:	f883 2028 	strb.w	r2, [r3, #40]	; 0x28
 8004e9c:	697b      	ldr	r3, [r7, #20]
 8004e9e:	6a1b      	ldr	r3, [r3, #32]
 8004ea0:	6978      	ldr	r0, [r7, #20]
 8004ea2:	4798      	blx	r3
 8004ea4:	bf00      	nop
 8004ea6:	3718      	adds	r7, #24
 8004ea8:	46bd      	mov	sp, r7
 8004eaa:	bd80      	pop	{r7, pc}
 8004eac:	20000e8c 	.word	0x20000e8c

08004eb0 <prvTimerTask>:
 8004eb0:	b580      	push	{r7, lr}
 8004eb2:	b084      	sub	sp, #16
 8004eb4:	af00      	add	r7, sp, #0
 8004eb6:	6078      	str	r0, [r7, #4]
 8004eb8:	f107 0308 	add.w	r3, r7, #8
 8004ebc:	4618      	mov	r0, r3
 8004ebe:	f000 f857 	bl	8004f70 <prvGetNextExpireTime>
 8004ec2:	60f8      	str	r0, [r7, #12]
 8004ec4:	68bb      	ldr	r3, [r7, #8]
 8004ec6:	4619      	mov	r1, r3
 8004ec8:	68f8      	ldr	r0, [r7, #12]
 8004eca:	f000 f803 	bl	8004ed4 <prvProcessTimerOrBlockTask>
 8004ece:	f000 f8d5 	bl	800507c <prvProcessReceivedCommands>
 8004ed2:	e7f1      	b.n	8004eb8 <prvTimerTask+0x8>

08004ed4 <prvProcessTimerOrBlockTask>:
 8004ed4:	b580      	push	{r7, lr}
 8004ed6:	b084      	sub	sp, #16
 8004ed8:	af00      	add	r7, sp, #0
 8004eda:	6078      	str	r0, [r7, #4]
 8004edc:	6039      	str	r1, [r7, #0]
 8004ede:	f7ff fa43 	bl	8004368 <vTaskSuspendAll>
 8004ee2:	f107 0308 	add.w	r3, r7, #8
 8004ee6:	4618      	mov	r0, r3
 8004ee8:	f000 f866 	bl	8004fb8 <prvSampleTimeNow>
 8004eec:	60f8      	str	r0, [r7, #12]
 8004eee:	68bb      	ldr	r3, [r7, #8]
 8004ef0:	2b00      	cmp	r3, #0
 8004ef2:	d130      	bne.n	8004f56 <prvProcessTimerOrBlockTask+0x82>
 8004ef4:	683b      	ldr	r3, [r7, #0]
 8004ef6:	2b00      	cmp	r3, #0
 8004ef8:	d10a      	bne.n	8004f10 <prvProcessTimerOrBlockTask+0x3c>
 8004efa:	687a      	ldr	r2, [r7, #4]
 8004efc:	68fb      	ldr	r3, [r7, #12]
 8004efe:	429a      	cmp	r2, r3
 8004f00:	d806      	bhi.n	8004f10 <prvProcessTimerOrBlockTask+0x3c>
 8004f02:	f7ff fa3f 	bl	8004384 <xTaskResumeAll>
 8004f06:	68f9      	ldr	r1, [r7, #12]
 8004f08:	6878      	ldr	r0, [r7, #4]
 8004f0a:	f7ff ff85 	bl	8004e18 <prvProcessExpiredTimer>
 8004f0e:	e024      	b.n	8004f5a <prvProcessTimerOrBlockTask+0x86>
 8004f10:	683b      	ldr	r3, [r7, #0]
 8004f12:	2b00      	cmp	r3, #0
 8004f14:	d008      	beq.n	8004f28 <prvProcessTimerOrBlockTask+0x54>
 8004f16:	4b13      	ldr	r3, [pc, #76]	; (8004f64 <prvProcessTimerOrBlockTask+0x90>)
 8004f18:	681b      	ldr	r3, [r3, #0]
 8004f1a:	681b      	ldr	r3, [r3, #0]
 8004f1c:	2b00      	cmp	r3, #0
 8004f1e:	d101      	bne.n	8004f24 <prvProcessTimerOrBlockTask+0x50>
 8004f20:	2301      	movs	r3, #1
 8004f22:	e000      	b.n	8004f26 <prvProcessTimerOrBlockTask+0x52>
 8004f24:	2300      	movs	r3, #0
 8004f26:	603b      	str	r3, [r7, #0]
 8004f28:	4b0f      	ldr	r3, [pc, #60]	; (8004f68 <prvProcessTimerOrBlockTask+0x94>)
 8004f2a:	6818      	ldr	r0, [r3, #0]
 8004f2c:	687a      	ldr	r2, [r7, #4]
 8004f2e:	68fb      	ldr	r3, [r7, #12]
 8004f30:	1ad3      	subs	r3, r2, r3
 8004f32:	683a      	ldr	r2, [r7, #0]
 8004f34:	4619      	mov	r1, r3
 8004f36:	f7fe ffa7 	bl	8003e88 <vQueueWaitForMessageRestricted>
 8004f3a:	f7ff fa23 	bl	8004384 <xTaskResumeAll>
 8004f3e:	4603      	mov	r3, r0
 8004f40:	2b00      	cmp	r3, #0
 8004f42:	d10a      	bne.n	8004f5a <prvProcessTimerOrBlockTask+0x86>
 8004f44:	4b09      	ldr	r3, [pc, #36]	; (8004f6c <prvProcessTimerOrBlockTask+0x98>)
 8004f46:	f04f 5280 	mov.w	r2, #268435456	; 0x10000000
 8004f4a:	601a      	str	r2, [r3, #0]
 8004f4c:	f3bf 8f4f 	dsb	sy
 8004f50:	f3bf 8f6f 	isb	sy
 8004f54:	e001      	b.n	8004f5a <prvProcessTimerOrBlockTask+0x86>
 8004f56:	f7ff fa15 	bl	8004384 <xTaskResumeAll>
 8004f5a:	bf00      	nop
 8004f5c:	3710      	adds	r7, #16
 8004f5e:	46bd      	mov	sp, r7
 8004f60:	bd80      	pop	{r7, pc}
 8004f62:	bf00      	nop
 8004f64:	20000e90 	.word	0x20000e90
 8004f68:	20000e94 	.word	0x20000e94
 8004f6c:	e000ed04 	.word	0xe000ed04

08004f70 <prvGetNextExpireTime>:
 8004f70:	b480      	push	{r7}
 8004f72:	b085      	sub	sp, #20
 8004f74:	af00      	add	r7, sp, #0
 8004f76:	6078      	str	r0, [r7, #4]
 8004f78:	4b0e      	ldr	r3, [pc, #56]	; (8004fb4 <prvGetNextExpireTime+0x44>)
 8004f7a:	681b      	ldr	r3, [r3, #0]
 8004f7c:	681b      	ldr	r3, [r3, #0]
 8004f7e:	2b00      	cmp	r3, #0
 8004f80:	d101      	bne.n	8004f86 <prvGetNextExpireTime+0x16>
 8004f82:	2201      	movs	r2, #1
 8004f84:	e000      	b.n	8004f88 <prvGetNextExpireTime+0x18>
 8004f86:	2200      	movs	r2, #0
 8004f88:	687b      	ldr	r3, [r7, #4]
 8004f8a:	601a      	str	r2, [r3, #0]
 8004f8c:	687b      	ldr	r3, [r7, #4]
 8004f8e:	681b      	ldr	r3, [r3, #0]
 8004f90:	2b00      	cmp	r3, #0
 8004f92:	d105      	bne.n	8004fa0 <prvGetNextExpireTime+0x30>
 8004f94:	4b07      	ldr	r3, [pc, #28]	; (8004fb4 <prvGetNextExpireTime+0x44>)
 8004f96:	681b      	ldr	r3, [r3, #0]
 8004f98:	68db      	ldr	r3, [r3, #12]
 8004f9a:	681b      	ldr	r3, [r3, #0]
 8004f9c:	60fb      	str	r3, [r7, #12]
 8004f9e:	e001      	b.n	8004fa4 <prvGetNextExpireTime+0x34>
 8004fa0:	2300      	movs	r3, #0
 8004fa2:	60fb      	str	r3, [r7, #12]
 8004fa4:	68fb      	ldr	r3, [r7, #12]
 8004fa6:	4618      	mov	r0, r3
 8004fa8:	3714      	adds	r7, #20
 8004faa:	46bd      	mov	sp, r7
 8004fac:	f85d 7b04 	ldr.w	r7, [sp], #4
 8004fb0:	4770      	bx	lr
 8004fb2:	bf00      	nop
 8004fb4:	20000e8c 	.word	0x20000e8c

08004fb8 <prvSampleTimeNow>:
 8004fb8:	b580      	push	{r7, lr}
 8004fba:	b084      	sub	sp, #16
 8004fbc:	af00      	add	r7, sp, #0
 8004fbe:	6078      	str	r0, [r7, #4]
 8004fc0:	f7ff fa7e 	bl	80044c0 <xTaskGetTickCount>
 8004fc4:	60f8      	str	r0, [r7, #12]
 8004fc6:	4b0b      	ldr	r3, [pc, #44]	; (8004ff4 <prvSampleTimeNow+0x3c>)
 8004fc8:	681b      	ldr	r3, [r3, #0]
 8004fca:	68fa      	ldr	r2, [r7, #12]
 8004fcc:	429a      	cmp	r2, r3
 8004fce:	d205      	bcs.n	8004fdc <prvSampleTimeNow+0x24>
 8004fd0:	f000 f936 	bl	8005240 <prvSwitchTimerLists>
 8004fd4:	687b      	ldr	r3, [r7, #4]
 8004fd6:	2201      	movs	r2, #1
 8004fd8:	601a      	str	r2, [r3, #0]
 8004fda:	e002      	b.n	8004fe2 <prvSampleTimeNow+0x2a>
 8004fdc:	687b      	ldr	r3, [r7, #4]
 8004fde:	2200      	movs	r2, #0
 8004fe0:	601a      	str	r2, [r3, #0]
 8004fe2:	4a04      	ldr	r2, [pc, #16]	; (8004ff4 <prvSampleTimeNow+0x3c>)
 8004fe4:	68fb      	ldr	r3, [r7, #12]
 8004fe6:	6013      	str	r3, [r2, #0]
 8004fe8:	68fb      	ldr	r3, [r7, #12]
 8004fea:	4618      	mov	r0, r3
 8004fec:	3710      	adds	r7, #16
 8004fee:	46bd      	mov	sp, r7
 8004ff0:	bd80      	pop	{r7, pc}
 8004ff2:	bf00      	nop
 8004ff4:	20000e9c 	.word	0x20000e9c

08004ff8 <prvInsertTimerInActiveList>:
 8004ff8:	b580      	push	{r7, lr}
 8004ffa:	b086      	sub	sp, #24
 8004ffc:	af00      	add	r7, sp, #0
 8004ffe:	60f8      	str	r0, [r7, #12]
 8005000:	60b9      	str	r1, [r7, #8]
 8005002:	607a      	str	r2, [r7, #4]
 8005004:	603b      	str	r3, [r7, #0]
 8005006:	2300      	movs	r3, #0
 8005008:	617b      	str	r3, [r7, #20]
 800500a:	68fb      	ldr	r3, [r7, #12]
 800500c:	68ba      	ldr	r2, [r7, #8]
 800500e:	605a      	str	r2, [r3, #4]
 8005010:	68fb      	ldr	r3, [r7, #12]
 8005012:	68fa      	ldr	r2, [r7, #12]
 8005014:	611a      	str	r2, [r3, #16]
 8005016:	68ba      	ldr	r2, [r7, #8]
 8005018:	687b      	ldr	r3, [r7, #4]
 800501a:	429a      	cmp	r2, r3
 800501c:	d812      	bhi.n	8005044 <prvInsertTimerInActiveList+0x4c>
 800501e:	687a      	ldr	r2, [r7, #4]
 8005020:	683b      	ldr	r3, [r7, #0]
 8005022:	1ad2      	subs	r2, r2, r3
 8005024:	68fb      	ldr	r3, [r7, #12]
 8005026:	699b      	ldr	r3, [r3, #24]
 8005028:	429a      	cmp	r2, r3
 800502a:	d302      	bcc.n	8005032 <prvInsertTimerInActiveList+0x3a>
 800502c:	2301      	movs	r3, #1
 800502e:	617b      	str	r3, [r7, #20]
 8005030:	e01b      	b.n	800506a <prvInsertTimerInActiveList+0x72>
 8005032:	4b10      	ldr	r3, [pc, #64]	; (8005074 <prvInsertTimerInActiveList+0x7c>)
 8005034:	681a      	ldr	r2, [r3, #0]
 8005036:	68fb      	ldr	r3, [r7, #12]
 8005038:	3304      	adds	r3, #4
 800503a:	4619      	mov	r1, r3
 800503c:	4610      	mov	r0, r2
 800503e:	f7fe fa08 	bl	8003452 <vListInsert>
 8005042:	e012      	b.n	800506a <prvInsertTimerInActiveList+0x72>
 8005044:	687a      	ldr	r2, [r7, #4]
 8005046:	683b      	ldr	r3, [r7, #0]
 8005048:	429a      	cmp	r2, r3
 800504a:	d206      	bcs.n	800505a <prvInsertTimerInActiveList+0x62>
 800504c:	68ba      	ldr	r2, [r7, #8]
 800504e:	683b      	ldr	r3, [r7, #0]
 8005050:	429a      	cmp	r2, r3
 8005052:	d302      	bcc.n	800505a <prvInsertTimerInActiveList+0x62>
 8005054:	2301      	movs	r3, #1
 8005056:	617b      	str	r3, [r7, #20]
 8005058:	e007      	b.n	800506a <prvInsertTimerInActiveList+0x72>
 800505a:	4b07      	ldr	r3, [pc, #28]	; (8005078 <prvInsertTimerInActiveList+0x80>)
 800505c:	681a      	ldr	r2, [r3, #0]
 800505e:	68fb      	ldr	r3, [r7, #12]
 8005060:	3304      	adds	r3, #4
 8005062:	4619      	mov	r1, r3
 8005064:	4610      	mov	r0, r2
 8005066:	f7fe f9f4 	bl	8003452 <vListInsert>
 800506a:	697b      	ldr	r3, [r7, #20]
 800506c:	4618      	mov	r0, r3
 800506e:	3718      	adds	r7, #24
 8005070:	46bd      	mov	sp, r7
 8005072:	bd80      	pop	{r7, pc}
 8005074:	20000e90 	.word	0x20000e90
 8005078:	20000e8c 	.word	0x20000e8c

0800507c <prvProcessReceivedCommands>:
 800507c:	b580      	push	{r7, lr}
 800507e:	b08e      	sub	sp, #56	; 0x38
 8005080:	af02      	add	r7, sp, #8
 8005082:	e0ca      	b.n	800521a <prvProcessReceivedCommands+0x19e>
 8005084:	687b      	ldr	r3, [r7, #4]
 8005086:	2b00      	cmp	r3, #0
 8005088:	da18      	bge.n	80050bc <prvProcessReceivedCommands+0x40>
 800508a:	1d3b      	adds	r3, r7, #4
 800508c:	3304      	adds	r3, #4
 800508e:	62fb      	str	r3, [r7, #44]	; 0x2c
 8005090:	6afb      	ldr	r3, [r7, #44]	; 0x2c
 8005092:	2b00      	cmp	r3, #0
 8005094:	d10a      	bne.n	80050ac <prvProcessReceivedCommands+0x30>
 8005096:	f04f 0350 	mov.w	r3, #80	; 0x50
 800509a:	f383 8811 	msr	BASEPRI, r3
 800509e:	f3bf 8f6f 	isb	sy
 80050a2:	f3bf 8f4f 	dsb	sy
 80050a6:	61fb      	str	r3, [r7, #28]
 80050a8:	bf00      	nop
 80050aa:	e7fe      	b.n	80050aa <prvProcessReceivedCommands+0x2e>
 80050ac:	6afb      	ldr	r3, [r7, #44]	; 0x2c
 80050ae:	681b      	ldr	r3, [r3, #0]
 80050b0:	6afa      	ldr	r2, [r7, #44]	; 0x2c
 80050b2:	6850      	ldr	r0, [r2, #4]
 80050b4:	6afa      	ldr	r2, [r7, #44]	; 0x2c
 80050b6:	6892      	ldr	r2, [r2, #8]
 80050b8:	4611      	mov	r1, r2
 80050ba:	4798      	blx	r3
 80050bc:	687b      	ldr	r3, [r7, #4]
 80050be:	2b00      	cmp	r3, #0
 80050c0:	f2c0 80aa 	blt.w	8005218 <prvProcessReceivedCommands+0x19c>
 80050c4:	68fb      	ldr	r3, [r7, #12]
 80050c6:	62bb      	str	r3, [r7, #40]	; 0x28
 80050c8:	6abb      	ldr	r3, [r7, #40]	; 0x28
 80050ca:	695b      	ldr	r3, [r3, #20]
 80050cc:	2b00      	cmp	r3, #0
 80050ce:	d004      	beq.n	80050da <prvProcessReceivedCommands+0x5e>
 80050d0:	6abb      	ldr	r3, [r7, #40]	; 0x28
 80050d2:	3304      	adds	r3, #4
 80050d4:	4618      	mov	r0, r3
 80050d6:	f7fe f9f5 	bl	80034c4 <uxListRemove>
 80050da:	463b      	mov	r3, r7
 80050dc:	4618      	mov	r0, r3
 80050de:	f7ff ff6b 	bl	8004fb8 <prvSampleTimeNow>
 80050e2:	6278      	str	r0, [r7, #36]	; 0x24
 80050e4:	687b      	ldr	r3, [r7, #4]
 80050e6:	2b09      	cmp	r3, #9
 80050e8:	f200 8097 	bhi.w	800521a <prvProcessReceivedCommands+0x19e>
 80050ec:	a201      	add	r2, pc, #4	; (adr r2, 80050f4 <prvProcessReceivedCommands+0x78>)
 80050ee:	f852 f023 	ldr.w	pc, [r2, r3, lsl #2]
 80050f2:	bf00      	nop
 80050f4:	0800511d 	.word	0x0800511d
 80050f8:	0800511d 	.word	0x0800511d
 80050fc:	0800511d 	.word	0x0800511d
 8005100:	08005191 	.word	0x08005191
 8005104:	080051a5 	.word	0x080051a5
 8005108:	080051ef 	.word	0x080051ef
 800510c:	0800511d 	.word	0x0800511d
 8005110:	0800511d 	.word	0x0800511d
 8005114:	08005191 	.word	0x08005191
 8005118:	080051a5 	.word	0x080051a5
 800511c:	6abb      	ldr	r3, [r7, #40]	; 0x28
 800511e:	f893 3028 	ldrb.w	r3, [r3, #40]	; 0x28
 8005122:	f043 0301 	orr.w	r3, r3, #1
 8005126:	b2da      	uxtb	r2, r3
 8005128:	6abb      	ldr	r3, [r7, #40]	; 0x28
 800512a:	f883 2028 	strb.w	r2, [r3, #40]	; 0x28
 800512e:	68ba      	ldr	r2, [r7, #8]
 8005130:	6abb      	ldr	r3, [r7, #40]	; 0x28
 8005132:	699b      	ldr	r3, [r3, #24]
 8005134:	18d1      	adds	r1, r2, r3
 8005136:	68bb      	ldr	r3, [r7, #8]
 8005138:	6a7a      	ldr	r2, [r7, #36]	; 0x24
 800513a:	6ab8      	ldr	r0, [r7, #40]	; 0x28
 800513c:	f7ff ff5c 	bl	8004ff8 <prvInsertTimerInActiveList>
 8005140:	4603      	mov	r3, r0
 8005142:	2b00      	cmp	r3, #0
 8005144:	d069      	beq.n	800521a <prvProcessReceivedCommands+0x19e>
 8005146:	6abb      	ldr	r3, [r7, #40]	; 0x28
 8005148:	6a1b      	ldr	r3, [r3, #32]
 800514a:	6ab8      	ldr	r0, [r7, #40]	; 0x28
 800514c:	4798      	blx	r3
 800514e:	6abb      	ldr	r3, [r7, #40]	; 0x28
 8005150:	f893 3028 	ldrb.w	r3, [r3, #40]	; 0x28
 8005154:	f003 0304 	and.w	r3, r3, #4
 8005158:	2b00      	cmp	r3, #0
 800515a:	d05e      	beq.n	800521a <prvProcessReceivedCommands+0x19e>
 800515c:	68ba      	ldr	r2, [r7, #8]
 800515e:	6abb      	ldr	r3, [r7, #40]	; 0x28
 8005160:	699b      	ldr	r3, [r3, #24]
 8005162:	441a      	add	r2, r3
 8005164:	2300      	movs	r3, #0
 8005166:	9300      	str	r3, [sp, #0]
 8005168:	2300      	movs	r3, #0
 800516a:	2100      	movs	r1, #0
 800516c:	6ab8      	ldr	r0, [r7, #40]	; 0x28
 800516e:	f7ff fe05 	bl	8004d7c <xTimerGenericCommand>
 8005172:	6238      	str	r0, [r7, #32]
 8005174:	6a3b      	ldr	r3, [r7, #32]
 8005176:	2b00      	cmp	r3, #0
 8005178:	d14f      	bne.n	800521a <prvProcessReceivedCommands+0x19e>
 800517a:	f04f 0350 	mov.w	r3, #80	; 0x50
 800517e:	f383 8811 	msr	BASEPRI, r3
 8005182:	f3bf 8f6f 	isb	sy
 8005186:	f3bf 8f4f 	dsb	sy
 800518a:	61bb      	str	r3, [r7, #24]
 800518c:	bf00      	nop
 800518e:	e7fe      	b.n	800518e <prvProcessReceivedCommands+0x112>
 8005190:	6abb      	ldr	r3, [r7, #40]	; 0x28
 8005192:	f893 3028 	ldrb.w	r3, [r3, #40]	; 0x28
 8005196:	f023 0301 	bic.w	r3, r3, #1
 800519a:	b2da      	uxtb	r2, r3
 800519c:	6abb      	ldr	r3, [r7, #40]	; 0x28
 800519e:	f883 2028 	strb.w	r2, [r3, #40]	; 0x28
 80051a2:	e03a      	b.n	800521a <prvProcessReceivedCommands+0x19e>
 80051a4:	6abb      	ldr	r3, [r7, #40]	; 0x28
 80051a6:	f893 3028 	ldrb.w	r3, [r3, #40]	; 0x28
 80051aa:	f043 0301 	orr.w	r3, r3, #1
 80051ae:	b2da      	uxtb	r2, r3
 80051b0:	6abb      	ldr	r3, [r7, #40]	; 0x28
 80051b2:	f883 2028 	strb.w	r2, [r3, #40]	; 0x28
 80051b6:	68ba      	ldr	r2, [r7, #8]
 80051b8:	6abb      	ldr	r3, [r7, #40]	; 0x28
 80051ba:	619a      	str	r2, [r3, #24]
 80051bc:	6abb      	ldr	r3, [r7, #40]	; 0x28
 80051be:	699b      	ldr	r3, [r3, #24]
 80051c0:	2b00      	cmp	r3, #0
 80051c2:	d10a      	bne.n	80051da <prvProcessReceivedCommands+0x15e>
 80051c4:	f04f 0350 	mov.w	r3, #80	; 0x50
 80051c8:	f383 8811 	msr	BASEPRI, r3
 80051cc:	f3bf 8f6f 	isb	sy
 80051d0:	f3bf 8f4f 	dsb	sy
 80051d4:	617b      	str	r3, [r7, #20]
 80051d6:	bf00      	nop
 80051d8:	e7fe      	b.n	80051d8 <prvProcessReceivedCommands+0x15c>
 80051da:	6abb      	ldr	r3, [r7, #40]	; 0x28
 80051dc:	699a      	ldr	r2, [r3, #24]
 80051de:	6a7b      	ldr	r3, [r7, #36]	; 0x24
 80051e0:	18d1      	adds	r1, r2, r3
 80051e2:	6a7b      	ldr	r3, [r7, #36]	; 0x24
 80051e4:	6a7a      	ldr	r2, [r7, #36]	; 0x24
 80051e6:	6ab8      	ldr	r0, [r7, #40]	; 0x28
 80051e8:	f7ff ff06 	bl	8004ff8 <prvInsertTimerInActiveList>
 80051ec:	e015      	b.n	800521a <prvProcessReceivedCommands+0x19e>
 80051ee:	6abb      	ldr	r3, [r7, #40]	; 0x28
 80051f0:	f893 3028 	ldrb.w	r3, [r3, #40]	; 0x28
 80051f4:	f003 0302 	and.w	r3, r3, #2
 80051f8:	2b00      	cmp	r3, #0
 80051fa:	d103      	bne.n	8005204 <prvProcessReceivedCommands+0x188>
 80051fc:	6ab8      	ldr	r0, [r7, #40]	; 0x28
 80051fe:	f000 fbdf 	bl	80059c0 <vPortFree>
 8005202:	e00a      	b.n	800521a <prvProcessReceivedCommands+0x19e>
 8005204:	6abb      	ldr	r3, [r7, #40]	; 0x28
 8005206:	f893 3028 	ldrb.w	r3, [r3, #40]	; 0x28
 800520a:	f023 0301 	bic.w	r3, r3, #1
 800520e:	b2da      	uxtb	r2, r3
 8005210:	6abb      	ldr	r3, [r7, #40]	; 0x28
 8005212:	f883 2028 	strb.w	r2, [r3, #40]	; 0x28
 8005216:	e000      	b.n	800521a <prvProcessReceivedCommands+0x19e>
 8005218:	bf00      	nop
 800521a:	4b08      	ldr	r3, [pc, #32]	; (800523c <prvProcessReceivedCommands+0x1c0>)
 800521c:	681b      	ldr	r3, [r3, #0]
 800521e:	1d39      	adds	r1, r7, #4
 8005220:	2200      	movs	r2, #0
 8005222:	4618      	mov	r0, r3
 8005224:	f7fe fc16 	bl	8003a54 <xQueueReceive>
 8005228:	4603      	mov	r3, r0
 800522a:	2b00      	cmp	r3, #0
 800522c:	f47f af2a 	bne.w	8005084 <prvProcessReceivedCommands+0x8>
 8005230:	bf00      	nop
 8005232:	bf00      	nop
 8005234:	3730      	adds	r7, #48	; 0x30
 8005236:	46bd      	mov	sp, r7
 8005238:	bd80      	pop	{r7, pc}
 800523a:	bf00      	nop
 800523c:	20000e94 	.word	0x20000e94

08005240 <prvSwitchTimerLists>:
 8005240:	b580      	push	{r7, lr}
 8005242:	b088      	sub	sp, #32
 8005244:	af02      	add	r7, sp, #8
 8005246:	e048      	b.n	80052da <prvSwitchTimerLists+0x9a>
 8005248:	4b2d      	ldr	r3, [pc, #180]	; (8005300 <prvSwitchTimerLists+0xc0>)
 800524a:	681b      	ldr	r3, [r3, #0]
 800524c:	68db      	ldr	r3, [r3, #12]
 800524e:	681b      	ldr	r3, [r3, #0]
 8005250:	613b      	str	r3, [r7, #16]
 8005252:	4b2b      	ldr	r3, [pc, #172]	; (8005300 <prvSwitchTimerLists+0xc0>)
 8005254:	681b      	ldr	r3, [r3, #0]
 8005256:	68db      	ldr	r3, [r3, #12]
 8005258:	68db      	ldr	r3, [r3, #12]
 800525a:	60fb      	str	r3, [r7, #12]
 800525c:	68fb      	ldr	r3, [r7, #12]
 800525e:	3304      	adds	r3, #4
 8005260:	4618      	mov	r0, r3
 8005262:	f7fe f92f 	bl	80034c4 <uxListRemove>
 8005266:	68fb      	ldr	r3, [r7, #12]
 8005268:	6a1b      	ldr	r3, [r3, #32]
 800526a:	68f8      	ldr	r0, [r7, #12]
 800526c:	4798      	blx	r3
 800526e:	68fb      	ldr	r3, [r7, #12]
 8005270:	f893 3028 	ldrb.w	r3, [r3, #40]	; 0x28
 8005274:	f003 0304 	and.w	r3, r3, #4
 8005278:	2b00      	cmp	r3, #0
 800527a:	d02e      	beq.n	80052da <prvSwitchTimerLists+0x9a>
 800527c:	68fb      	ldr	r3, [r7, #12]
 800527e:	699b      	ldr	r3, [r3, #24]
 8005280:	693a      	ldr	r2, [r7, #16]
 8005282:	4413      	add	r3, r2
 8005284:	60bb      	str	r3, [r7, #8]
 8005286:	68ba      	ldr	r2, [r7, #8]
 8005288:	693b      	ldr	r3, [r7, #16]
 800528a:	429a      	cmp	r2, r3
 800528c:	d90e      	bls.n	80052ac <prvSwitchTimerLists+0x6c>
 800528e:	68fb      	ldr	r3, [r7, #12]
 8005290:	68ba      	ldr	r2, [r7, #8]
 8005292:	605a      	str	r2, [r3, #4]
 8005294:	68fb      	ldr	r3, [r7, #12]
 8005296:	68fa      	ldr	r2, [r7, #12]
 8005298:	611a      	str	r2, [r3, #16]
 800529a:	4b19      	ldr	r3, [pc, #100]	; (8005300 <prvSwitchTimerLists+0xc0>)
 800529c:	681a      	ldr	r2, [r3, #0]
 800529e:	68fb      	ldr	r3, [r7, #12]
 80052a0:	3304      	adds	r3, #4
 80052a2:	4619      	mov	r1, r3
 80052a4:	4610      	mov	r0, r2
 80052a6:	f7fe f8d4 	bl	8003452 <vListInsert>
 80052aa:	e016      	b.n	80052da <prvSwitchTimerLists+0x9a>
 80052ac:	2300      	movs	r3, #0
 80052ae:	9300      	str	r3, [sp, #0]
 80052b0:	2300      	movs	r3, #0
 80052b2:	693a      	ldr	r2, [r7, #16]
 80052b4:	2100      	movs	r1, #0
 80052b6:	68f8      	ldr	r0, [r7, #12]
 80052b8:	f7ff fd60 	bl	8004d7c <xTimerGenericCommand>
 80052bc:	6078      	str	r0, [r7, #4]
 80052be:	687b      	ldr	r3, [r7, #4]
 80052c0:	2b00      	cmp	r3, #0
 80052c2:	d10a      	bne.n	80052da <prvSwitchTimerLists+0x9a>
 80052c4:	f04f 0350 	mov.w	r3, #80	; 0x50
 80052c8:	f383 8811 	msr	BASEPRI, r3
 80052cc:	f3bf 8f6f 	isb	sy
 80052d0:	f3bf 8f4f 	dsb	sy
 80052d4:	603b      	str	r3, [r7, #0]
 80052d6:	bf00      	nop
 80052d8:	e7fe      	b.n	80052d8 <prvSwitchTimerLists+0x98>
 80052da:	4b09      	ldr	r3, [pc, #36]	; (8005300 <prvSwitchTimerLists+0xc0>)
 80052dc:	681b      	ldr	r3, [r3, #0]
 80052de:	681b      	ldr	r3, [r3, #0]
 80052e0:	2b00      	cmp	r3, #0
 80052e2:	d1b1      	bne.n	8005248 <prvSwitchTimerLists+0x8>
 80052e4:	4b06      	ldr	r3, [pc, #24]	; (8005300 <prvSwitchTimerLists+0xc0>)
 80052e6:	681b      	ldr	r3, [r3, #0]
 80052e8:	617b      	str	r3, [r7, #20]
 80052ea:	4b06      	ldr	r3, [pc, #24]	; (8005304 <prvSwitchTimerLists+0xc4>)
 80052ec:	681b      	ldr	r3, [r3, #0]
 80052ee:	4a04      	ldr	r2, [pc, #16]	; (8005300 <prvSwitchTimerLists+0xc0>)
 80052f0:	6013      	str	r3, [r2, #0]
 80052f2:	4a04      	ldr	r2, [pc, #16]	; (8005304 <prvSwitchTimerLists+0xc4>)
 80052f4:	697b      	ldr	r3, [r7, #20]
 80052f6:	6013      	str	r3, [r2, #0]
 80052f8:	bf00      	nop
 80052fa:	3718      	adds	r7, #24
 80052fc:	46bd      	mov	sp, r7
 80052fe:	bd80      	pop	{r7, pc}
 8005300:	20000e8c 	.word	0x20000e8c
 8005304:	20000e90 	.word	0x20000e90

08005308 <prvCheckForValidListAndQueue>:
 8005308:	b580      	push	{r7, lr}
 800530a:	b082      	sub	sp, #8
 800530c:	af02      	add	r7, sp, #8
 800530e:	f000 f969 	bl	80055e4 <vPortEnterCritical>
 8005312:	4b15      	ldr	r3, [pc, #84]	; (8005368 <prvCheckForValidListAndQueue+0x60>)
 8005314:	681b      	ldr	r3, [r3, #0]
 8005316:	2b00      	cmp	r3, #0
 8005318:	d120      	bne.n	800535c <prvCheckForValidListAndQueue+0x54>
 800531a:	4814      	ldr	r0, [pc, #80]	; (800536c <prvCheckForValidListAndQueue+0x64>)
 800531c:	f7fe f848 	bl	80033b0 <vListInitialise>
 8005320:	4813      	ldr	r0, [pc, #76]	; (8005370 <prvCheckForValidListAndQueue+0x68>)
 8005322:	f7fe f845 	bl	80033b0 <vListInitialise>
 8005326:	4b13      	ldr	r3, [pc, #76]	; (8005374 <prvCheckForValidListAndQueue+0x6c>)
 8005328:	4a10      	ldr	r2, [pc, #64]	; (800536c <prvCheckForValidListAndQueue+0x64>)
 800532a:	601a      	str	r2, [r3, #0]
 800532c:	4b12      	ldr	r3, [pc, #72]	; (8005378 <prvCheckForValidListAndQueue+0x70>)
 800532e:	4a10      	ldr	r2, [pc, #64]	; (8005370 <prvCheckForValidListAndQueue+0x68>)
 8005330:	601a      	str	r2, [r3, #0]
 8005332:	2300      	movs	r3, #0
 8005334:	9300      	str	r3, [sp, #0]
 8005336:	4b11      	ldr	r3, [pc, #68]	; (800537c <prvCheckForValidListAndQueue+0x74>)
 8005338:	4a11      	ldr	r2, [pc, #68]	; (8005380 <prvCheckForValidListAndQueue+0x78>)
 800533a:	2110      	movs	r1, #16
 800533c:	200a      	movs	r0, #10
 800533e:	f7fe f953 	bl	80035e8 <xQueueGenericCreateStatic>
 8005342:	4603      	mov	r3, r0
 8005344:	4a08      	ldr	r2, [pc, #32]	; (8005368 <prvCheckForValidListAndQueue+0x60>)
 8005346:	6013      	str	r3, [r2, #0]
 8005348:	4b07      	ldr	r3, [pc, #28]	; (8005368 <prvCheckForValidListAndQueue+0x60>)
 800534a:	681b      	ldr	r3, [r3, #0]
 800534c:	2b00      	cmp	r3, #0
 800534e:	d005      	beq.n	800535c <prvCheckForValidListAndQueue+0x54>
 8005350:	4b05      	ldr	r3, [pc, #20]	; (8005368 <prvCheckForValidListAndQueue+0x60>)
 8005352:	681b      	ldr	r3, [r3, #0]
 8005354:	490b      	ldr	r1, [pc, #44]	; (8005384 <prvCheckForValidListAndQueue+0x7c>)
 8005356:	4618      	mov	r0, r3
 8005358:	f7fe fd6c 	bl	8003e34 <vQueueAddToRegistry>
 800535c:	f000 f972 	bl	8005644 <vPortExitCritical>
 8005360:	bf00      	nop
 8005362:	46bd      	mov	sp, r7
 8005364:	bd80      	pop	{r7, pc}
 8005366:	bf00      	nop
 8005368:	20000e94 	.word	0x20000e94
 800536c:	20000e64 	.word	0x20000e64
 8005370:	20000e78 	.word	0x20000e78
 8005374:	20000e8c 	.word	0x20000e8c
 8005378:	20000e90 	.word	0x20000e90
 800537c:	20000f40 	.word	0x20000f40
 8005380:	20000ea0 	.word	0x20000ea0
 8005384:	080065cc 	.word	0x080065cc

08005388 <pxPortInitialiseStack>:
 8005388:	b480      	push	{r7}
 800538a:	b085      	sub	sp, #20
 800538c:	af00      	add	r7, sp, #0
 800538e:	60f8      	str	r0, [r7, #12]
 8005390:	60b9      	str	r1, [r7, #8]
 8005392:	607a      	str	r2, [r7, #4]
 8005394:	68fb      	ldr	r3, [r7, #12]
 8005396:	3b04      	subs	r3, #4
 8005398:	60fb      	str	r3, [r7, #12]
 800539a:	68fb      	ldr	r3, [r7, #12]
 800539c:	f04f 7280 	mov.w	r2, #16777216	; 0x1000000
 80053a0:	601a      	str	r2, [r3, #0]
 80053a2:	68fb      	ldr	r3, [r7, #12]
 80053a4:	3b04      	subs	r3, #4
 80053a6:	60fb      	str	r3, [r7, #12]
 80053a8:	68bb      	ldr	r3, [r7, #8]
 80053aa:	f023 0201 	bic.w	r2, r3, #1
 80053ae:	68fb      	ldr	r3, [r7, #12]
 80053b0:	601a      	str	r2, [r3, #0]
 80053b2:	68fb      	ldr	r3, [r7, #12]
 80053b4:	3b04      	subs	r3, #4
 80053b6:	60fb      	str	r3, [r7, #12]
 80053b8:	4a0c      	ldr	r2, [pc, #48]	; (80053ec <pxPortInitialiseStack+0x64>)
 80053ba:	68fb      	ldr	r3, [r7, #12]
 80053bc:	601a      	str	r2, [r3, #0]
 80053be:	68fb      	ldr	r3, [r7, #12]
 80053c0:	3b14      	subs	r3, #20
 80053c2:	60fb      	str	r3, [r7, #12]
 80053c4:	687a      	ldr	r2, [r7, #4]
 80053c6:	68fb      	ldr	r3, [r7, #12]
 80053c8:	601a      	str	r2, [r3, #0]
 80053ca:	68fb      	ldr	r3, [r7, #12]
 80053cc:	3b04      	subs	r3, #4
 80053ce:	60fb      	str	r3, [r7, #12]
 80053d0:	68fb      	ldr	r3, [r7, #12]
 80053d2:	f06f 0202 	mvn.w	r2, #2
 80053d6:	601a      	str	r2, [r3, #0]
 80053d8:	68fb      	ldr	r3, [r7, #12]
 80053da:	3b20      	subs	r3, #32
 80053dc:	60fb      	str	r3, [r7, #12]
 80053de:	68fb      	ldr	r3, [r7, #12]
 80053e0:	4618      	mov	r0, r3
 80053e2:	3714      	adds	r7, #20
 80053e4:	46bd      	mov	sp, r7
 80053e6:	f85d 7b04 	ldr.w	r7, [sp], #4
 80053ea:	4770      	bx	lr
 80053ec:	080053f1 	.word	0x080053f1

080053f0 <prvTaskExitError>:
 80053f0:	b480      	push	{r7}
 80053f2:	b085      	sub	sp, #20
 80053f4:	af00      	add	r7, sp, #0
 80053f6:	2300      	movs	r3, #0
 80053f8:	607b      	str	r3, [r7, #4]
 80053fa:	4b12      	ldr	r3, [pc, #72]	; (8005444 <prvTaskExitError+0x54>)
 80053fc:	681b      	ldr	r3, [r3, #0]
 80053fe:	f1b3 3fff 	cmp.w	r3, #4294967295
 8005402:	d00a      	beq.n	800541a <prvTaskExitError+0x2a>
 8005404:	f04f 0350 	mov.w	r3, #80	; 0x50
 8005408:	f383 8811 	msr	BASEPRI, r3
 800540c:	f3bf 8f6f 	isb	sy
 8005410:	f3bf 8f4f 	dsb	sy
 8005414:	60fb      	str	r3, [r7, #12]
 8005416:	bf00      	nop
 8005418:	e7fe      	b.n	8005418 <prvTaskExitError+0x28>
 800541a:	f04f 0350 	mov.w	r3, #80	; 0x50
 800541e:	f383 8811 	msr	BASEPRI, r3
 8005422:	f3bf 8f6f 	isb	sy
 8005426:	f3bf 8f4f 	dsb	sy
 800542a:	60bb      	str	r3, [r7, #8]
 800542c:	bf00      	nop
 800542e:	bf00      	nop
 8005430:	687b      	ldr	r3, [r7, #4]
 8005432:	2b00      	cmp	r3, #0
 8005434:	d0fc      	beq.n	8005430 <prvTaskExitError+0x40>
 8005436:	bf00      	nop
 8005438:	bf00      	nop
 800543a:	3714      	adds	r7, #20
 800543c:	46bd      	mov	sp, r7
 800543e:	f85d 7b04 	ldr.w	r7, [sp], #4
 8005442:	4770      	bx	lr
 8005444:	20000014 	.word	0x20000014
	...

08005450 <SVC_Handler>:
 8005450:	4b07      	ldr	r3, [pc, #28]	; (8005470 <pxCurrentTCBConst2>)
 8005452:	6819      	ldr	r1, [r3, #0]
 8005454:	6808      	ldr	r0, [r1, #0]
 8005456:	e8b0 4ff0 	ldmia.w	r0!, {r4, r5, r6, r7, r8, r9, sl, fp, lr}
 800545a:	f380 8809 	msr	PSP, r0
 800545e:	f3bf 8f6f 	isb	sy
 8005462:	f04f 0000 	mov.w	r0, #0
 8005466:	f380 8811 	msr	BASEPRI, r0
 800546a:	4770      	bx	lr
 800546c:	f3af 8000 	nop.w

08005470 <pxCurrentTCBConst2>:
 8005470:	20000964 	.word	0x20000964
 8005474:	bf00      	nop
 8005476:	bf00      	nop

08005478 <prvPortStartFirstTask>:
 8005478:	4808      	ldr	r0, [pc, #32]	; (800549c <prvPortStartFirstTask+0x24>)
 800547a:	6800      	ldr	r0, [r0, #0]
 800547c:	6800      	ldr	r0, [r0, #0]
 800547e:	f380 8808 	msr	MSP, r0
 8005482:	f04f 0000 	mov.w	r0, #0
 8005486:	f380 8814 	msr	CONTROL, r0
 800548a:	b662      	cpsie	i
 800548c:	b661      	cpsie	f
 800548e:	f3bf 8f4f 	dsb	sy
 8005492:	f3bf 8f6f 	isb	sy
 8005496:	df00      	svc	0
 8005498:	bf00      	nop
 800549a:	bf00      	nop
 800549c:	e000ed08 	.word	0xe000ed08

080054a0 <xPortStartScheduler>:
 80054a0:	b580      	push	{r7, lr}
 80054a2:	b086      	sub	sp, #24
 80054a4:	af00      	add	r7, sp, #0
 80054a6:	4b46      	ldr	r3, [pc, #280]	; (80055c0 <xPortStartScheduler+0x120>)
 80054a8:	681b      	ldr	r3, [r3, #0]
 80054aa:	4a46      	ldr	r2, [pc, #280]	; (80055c4 <xPortStartScheduler+0x124>)
 80054ac:	4293      	cmp	r3, r2
 80054ae:	d10a      	bne.n	80054c6 <xPortStartScheduler+0x26>
 80054b0:	f04f 0350 	mov.w	r3, #80	; 0x50
 80054b4:	f383 8811 	msr	BASEPRI, r3
 80054b8:	f3bf 8f6f 	isb	sy
 80054bc:	f3bf 8f4f 	dsb	sy
 80054c0:	613b      	str	r3, [r7, #16]
 80054c2:	bf00      	nop
 80054c4:	e7fe      	b.n	80054c4 <xPortStartScheduler+0x24>
 80054c6:	4b3e      	ldr	r3, [pc, #248]	; (80055c0 <xPortStartScheduler+0x120>)
 80054c8:	681b      	ldr	r3, [r3, #0]
 80054ca:	4a3f      	ldr	r2, [pc, #252]	; (80055c8 <xPortStartScheduler+0x128>)
 80054cc:	4293      	cmp	r3, r2
 80054ce:	d10a      	bne.n	80054e6 <xPortStartScheduler+0x46>
 80054d0:	f04f 0350 	mov.w	r3, #80	; 0x50
 80054d4:	f383 8811 	msr	BASEPRI, r3
 80054d8:	f3bf 8f6f 	isb	sy
 80054dc:	f3bf 8f4f 	dsb	sy
 80054e0:	60fb      	str	r3, [r7, #12]
 80054e2:	bf00      	nop
 80054e4:	e7fe      	b.n	80054e4 <xPortStartScheduler+0x44>
 80054e6:	4b39      	ldr	r3, [pc, #228]	; (80055cc <xPortStartScheduler+0x12c>)
 80054e8:	617b      	str	r3, [r7, #20]
 80054ea:	697b      	ldr	r3, [r7, #20]
 80054ec:	781b      	ldrb	r3, [r3, #0]
 80054ee:	b2db      	uxtb	r3, r3
 80054f0:	607b      	str	r3, [r7, #4]
 80054f2:	697b      	ldr	r3, [r7, #20]
 80054f4:	22ff      	movs	r2, #255	; 0xff
 80054f6:	701a      	strb	r2, [r3, #0]
 80054f8:	697b      	ldr	r3, [r7, #20]
 80054fa:	781b      	ldrb	r3, [r3, #0]
 80054fc:	b2db      	uxtb	r3, r3
 80054fe:	70fb      	strb	r3, [r7, #3]
 8005500:	78fb      	ldrb	r3, [r7, #3]
 8005502:	b2db      	uxtb	r3, r3
 8005504:	f003 0350 	and.w	r3, r3, #80	; 0x50
 8005508:	b2da      	uxtb	r2, r3
 800550a:	4b31      	ldr	r3, [pc, #196]	; (80055d0 <xPortStartScheduler+0x130>)
 800550c:	701a      	strb	r2, [r3, #0]
 800550e:	4b31      	ldr	r3, [pc, #196]	; (80055d4 <xPortStartScheduler+0x134>)
 8005510:	2207      	movs	r2, #7
 8005512:	601a      	str	r2, [r3, #0]
 8005514:	e009      	b.n	800552a <xPortStartScheduler+0x8a>
 8005516:	4b2f      	ldr	r3, [pc, #188]	; (80055d4 <xPortStartScheduler+0x134>)
 8005518:	681b      	ldr	r3, [r3, #0]
 800551a:	3b01      	subs	r3, #1
 800551c:	4a2d      	ldr	r2, [pc, #180]	; (80055d4 <xPortStartScheduler+0x134>)
 800551e:	6013      	str	r3, [r2, #0]
 8005520:	78fb      	ldrb	r3, [r7, #3]
 8005522:	b2db      	uxtb	r3, r3
 8005524:	005b      	lsls	r3, r3, #1
 8005526:	b2db      	uxtb	r3, r3
 8005528:	70fb      	strb	r3, [r7, #3]
 800552a:	78fb      	ldrb	r3, [r7, #3]
 800552c:	b2db      	uxtb	r3, r3
 800552e:	f003 0380 	and.w	r3, r3, #128	; 0x80
 8005532:	2b80      	cmp	r3, #128	; 0x80
 8005534:	d0ef      	beq.n	8005516 <xPortStartScheduler+0x76>
 8005536:	4b27      	ldr	r3, [pc, #156]	; (80055d4 <xPortStartScheduler+0x134>)
 8005538:	681b      	ldr	r3, [r3, #0]
 800553a:	f1c3 0307 	rsb	r3, r3, #7
 800553e:	2b04      	cmp	r3, #4
 8005540:	d00a      	beq.n	8005558 <xPortStartScheduler+0xb8>
 8005542:	f04f 0350 	mov.w	r3, #80	; 0x50
 8005546:	f383 8811 	msr	BASEPRI, r3
 800554a:	f3bf 8f6f 	isb	sy
 800554e:	f3bf 8f4f 	dsb	sy
 8005552:	60bb      	str	r3, [r7, #8]
 8005554:	bf00      	nop
 8005556:	e7fe      	b.n	8005556 <xPortStartScheduler+0xb6>
 8005558:	4b1e      	ldr	r3, [pc, #120]	; (80055d4 <xPortStartScheduler+0x134>)
 800555a:	681b      	ldr	r3, [r3, #0]
 800555c:	021b      	lsls	r3, r3, #8
 800555e:	4a1d      	ldr	r2, [pc, #116]	; (80055d4 <xPortStartScheduler+0x134>)
 8005560:	6013      	str	r3, [r2, #0]
 8005562:	4b1c      	ldr	r3, [pc, #112]	; (80055d4 <xPortStartScheduler+0x134>)
 8005564:	681b      	ldr	r3, [r3, #0]
 8005566:	f403 63e0 	and.w	r3, r3, #1792	; 0x700
 800556a:	4a1a      	ldr	r2, [pc, #104]	; (80055d4 <xPortStartScheduler+0x134>)
 800556c:	6013      	str	r3, [r2, #0]
 800556e:	687b      	ldr	r3, [r7, #4]
 8005570:	b2da      	uxtb	r2, r3
 8005572:	697b      	ldr	r3, [r7, #20]
 8005574:	701a      	strb	r2, [r3, #0]
 8005576:	4b18      	ldr	r3, [pc, #96]	; (80055d8 <xPortStartScheduler+0x138>)
 8005578:	681b      	ldr	r3, [r3, #0]
 800557a:	4a17      	ldr	r2, [pc, #92]	; (80055d8 <xPortStartScheduler+0x138>)
 800557c:	f443 0370 	orr.w	r3, r3, #15728640	; 0xf00000
 8005580:	6013      	str	r3, [r2, #0]
 8005582:	4b15      	ldr	r3, [pc, #84]	; (80055d8 <xPortStartScheduler+0x138>)
 8005584:	681b      	ldr	r3, [r3, #0]
 8005586:	4a14      	ldr	r2, [pc, #80]	; (80055d8 <xPortStartScheduler+0x138>)
 8005588:	f043 4370 	orr.w	r3, r3, #4026531840	; 0xf0000000
 800558c:	6013      	str	r3, [r2, #0]
 800558e:	f000 f8dd 	bl	800574c <vPortSetupTimerInterrupt>
 8005592:	4b12      	ldr	r3, [pc, #72]	; (80055dc <xPortStartScheduler+0x13c>)
 8005594:	2200      	movs	r2, #0
 8005596:	601a      	str	r2, [r3, #0]
 8005598:	f000 f8fc 	bl	8005794 <vPortEnableVFP>
 800559c:	4b10      	ldr	r3, [pc, #64]	; (80055e0 <xPortStartScheduler+0x140>)
 800559e:	681b      	ldr	r3, [r3, #0]
 80055a0:	4a0f      	ldr	r2, [pc, #60]	; (80055e0 <xPortStartScheduler+0x140>)
 80055a2:	f043 4340 	orr.w	r3, r3, #3221225472	; 0xc0000000
 80055a6:	6013      	str	r3, [r2, #0]
 80055a8:	f7ff ff66 	bl	8005478 <prvPortStartFirstTask>
 80055ac:	f7ff f852 	bl	8004654 <vTaskSwitchContext>
 80055b0:	f7ff ff1e 	bl	80053f0 <prvTaskExitError>
 80055b4:	2300      	movs	r3, #0
 80055b6:	4618      	mov	r0, r3
 80055b8:	3718      	adds	r7, #24
 80055ba:	46bd      	mov	sp, r7
 80055bc:	bd80      	pop	{r7, pc}
 80055be:	bf00      	nop
 80055c0:	e000ed00 	.word	0xe000ed00
 80055c4:	410fc271 	.word	0x410fc271
 80055c8:	410fc270 	.word	0x410fc270
 80055cc:	e000e400 	.word	0xe000e400
 80055d0:	20000f90 	.word	0x20000f90
 80055d4:	20000f94 	.word	0x20000f94
 80055d8:	e000ed20 	.word	0xe000ed20
 80055dc:	20000014 	.word	0x20000014
 80055e0:	e000ef34 	.word	0xe000ef34

080055e4 <vPortEnterCritical>:
 80055e4:	b480      	push	{r7}
 80055e6:	b083      	sub	sp, #12
 80055e8:	af00      	add	r7, sp, #0
 80055ea:	f04f 0350 	mov.w	r3, #80	; 0x50
 80055ee:	f383 8811 	msr	BASEPRI, r3
 80055f2:	f3bf 8f6f 	isb	sy
 80055f6:	f3bf 8f4f 	dsb	sy
 80055fa:	607b      	str	r3, [r7, #4]
 80055fc:	bf00      	nop
 80055fe:	4b0f      	ldr	r3, [pc, #60]	; (800563c <vPortEnterCritical+0x58>)
 8005600:	681b      	ldr	r3, [r3, #0]
 8005602:	3301      	adds	r3, #1
 8005604:	4a0d      	ldr	r2, [pc, #52]	; (800563c <vPortEnterCritical+0x58>)
 8005606:	6013      	str	r3, [r2, #0]
 8005608:	4b0c      	ldr	r3, [pc, #48]	; (800563c <vPortEnterCritical+0x58>)
 800560a:	681b      	ldr	r3, [r3, #0]
 800560c:	2b01      	cmp	r3, #1
 800560e:	d10f      	bne.n	8005630 <vPortEnterCritical+0x4c>
 8005610:	4b0b      	ldr	r3, [pc, #44]	; (8005640 <vPortEnterCritical+0x5c>)
 8005612:	681b      	ldr	r3, [r3, #0]
 8005614:	b2db      	uxtb	r3, r3
 8005616:	2b00      	cmp	r3, #0
 8005618:	d00a      	beq.n	8005630 <vPortEnterCritical+0x4c>
 800561a:	f04f 0350 	mov.w	r3, #80	; 0x50
 800561e:	f383 8811 	msr	BASEPRI, r3
 8005622:	f3bf 8f6f 	isb	sy
 8005626:	f3bf 8f4f 	dsb	sy
 800562a:	603b      	str	r3, [r7, #0]
 800562c:	bf00      	nop
 800562e:	e7fe      	b.n	800562e <vPortEnterCritical+0x4a>
 8005630:	bf00      	nop
 8005632:	370c      	adds	r7, #12
 8005634:	46bd      	mov	sp, r7
 8005636:	f85d 7b04 	ldr.w	r7, [sp], #4
 800563a:	4770      	bx	lr
 800563c:	20000014 	.word	0x20000014
 8005640:	e000ed04 	.word	0xe000ed04

08005644 <vPortExitCritical>:
 8005644:	b480      	push	{r7}
 8005646:	b083      	sub	sp, #12
 8005648:	af00      	add	r7, sp, #0
 800564a:	4b12      	ldr	r3, [pc, #72]	; (8005694 <vPortExitCritical+0x50>)
 800564c:	681b      	ldr	r3, [r3, #0]
 800564e:	2b00      	cmp	r3, #0
 8005650:	d10a      	bne.n	8005668 <vPortExitCritical+0x24>
 8005652:	f04f 0350 	mov.w	r3, #80	; 0x50
 8005656:	f383 8811 	msr	BASEPRI, r3
 800565a:	f3bf 8f6f 	isb	sy
 800565e:	f3bf 8f4f 	dsb	sy
 8005662:	607b      	str	r3, [r7, #4]
 8005664:	bf00      	nop
 8005666:	e7fe      	b.n	8005666 <vPortExitCritical+0x22>
 8005668:	4b0a      	ldr	r3, [pc, #40]	; (8005694 <vPortExitCritical+0x50>)
 800566a:	681b      	ldr	r3, [r3, #0]
 800566c:	3b01      	subs	r3, #1
 800566e:	4a09      	ldr	r2, [pc, #36]	; (8005694 <vPortExitCritical+0x50>)
 8005670:	6013      	str	r3, [r2, #0]
 8005672:	4b08      	ldr	r3, [pc, #32]	; (8005694 <vPortExitCritical+0x50>)
 8005674:	681b      	ldr	r3, [r3, #0]
 8005676:	2b00      	cmp	r3, #0
 8005678:	d105      	bne.n	8005686 <vPortExitCritical+0x42>
 800567a:	2300      	movs	r3, #0
 800567c:	603b      	str	r3, [r7, #0]
 800567e:	683b      	ldr	r3, [r7, #0]
 8005680:	f383 8811 	msr	BASEPRI, r3
 8005684:	bf00      	nop
 8005686:	bf00      	nop
 8005688:	370c      	adds	r7, #12
 800568a:	46bd      	mov	sp, r7
 800568c:	f85d 7b04 	ldr.w	r7, [sp], #4
 8005690:	4770      	bx	lr
 8005692:	bf00      	nop
 8005694:	20000014 	.word	0x20000014
	...

080056a0 <PendSV_Handler>:
 80056a0:	f3ef 8009 	mrs	r0, PSP
 80056a4:	f3bf 8f6f 	isb	sy
 80056a8:	4b15      	ldr	r3, [pc, #84]	; (8005700 <pxCurrentTCBConst>)
 80056aa:	681a      	ldr	r2, [r3, #0]
 80056ac:	f01e 0f10 	tst.w	lr, #16
 80056b0:	bf08      	it	eq
 80056b2:	ed20 8a10 	vstmdbeq	r0!, {s16-s31}
 80056b6:	e920 4ff0 	stmdb	r0!, {r4, r5, r6, r7, r8, r9, sl, fp, lr}
 80056ba:	6010      	str	r0, [r2, #0]
 80056bc:	e92d 0009 	stmdb	sp!, {r0, r3}
 80056c0:	f04f 0050 	mov.w	r0, #80	; 0x50
 80056c4:	f380 8811 	msr	BASEPRI, r0
 80056c8:	f3bf 8f4f 	dsb	sy
 80056cc:	f3bf 8f6f 	isb	sy
 80056d0:	f7fe ffc0 	bl	8004654 <vTaskSwitchContext>
 80056d4:	f04f 0000 	mov.w	r0, #0
 80056d8:	f380 8811 	msr	BASEPRI, r0
 80056dc:	bc09      	pop	{r0, r3}
 80056de:	6819      	ldr	r1, [r3, #0]
 80056e0:	6808      	ldr	r0, [r1, #0]
 80056e2:	e8b0 4ff0 	ldmia.w	r0!, {r4, r5, r6, r7, r8, r9, sl, fp, lr}
 80056e6:	f01e 0f10 	tst.w	lr, #16
 80056ea:	bf08      	it	eq
 80056ec:	ecb0 8a10 	vldmiaeq	r0!, {s16-s31}
 80056f0:	f380 8809 	msr	PSP, r0
 80056f4:	f3bf 8f6f 	isb	sy
 80056f8:	4770      	bx	lr
 80056fa:	bf00      	nop
 80056fc:	f3af 8000 	nop.w

08005700 <pxCurrentTCBConst>:
 8005700:	20000964 	.word	0x20000964
 8005704:	bf00      	nop
 8005706:	bf00      	nop

08005708 <xPortSysTickHandler>:
 8005708:	b580      	push	{r7, lr}
 800570a:	b082      	sub	sp, #8
 800570c:	af00      	add	r7, sp, #0
 800570e:	f04f 0350 	mov.w	r3, #80	; 0x50
 8005712:	f383 8811 	msr	BASEPRI, r3
 8005716:	f3bf 8f6f 	isb	sy
 800571a:	f3bf 8f4f 	dsb	sy
 800571e:	607b      	str	r3, [r7, #4]
 8005720:	bf00      	nop
 8005722:	f7fe fedd 	bl	80044e0 <xTaskIncrementTick>
 8005726:	4603      	mov	r3, r0
 8005728:	2b00      	cmp	r3, #0
 800572a:	d003      	beq.n	8005734 <xPortSysTickHandler+0x2c>
 800572c:	4b06      	ldr	r3, [pc, #24]	; (8005748 <xPortSysTickHandler+0x40>)
 800572e:	f04f 5280 	mov.w	r2, #268435456	; 0x10000000
 8005732:	601a      	str	r2, [r3, #0]
 8005734:	2300      	movs	r3, #0
 8005736:	603b      	str	r3, [r7, #0]
 8005738:	683b      	ldr	r3, [r7, #0]
 800573a:	f383 8811 	msr	BASEPRI, r3
 800573e:	bf00      	nop
 8005740:	bf00      	nop
 8005742:	3708      	adds	r7, #8
 8005744:	46bd      	mov	sp, r7
 8005746:	bd80      	pop	{r7, pc}
 8005748:	e000ed04 	.word	0xe000ed04

0800574c <vPortSetupTimerInterrupt>:
 800574c:	b480      	push	{r7}
 800574e:	af00      	add	r7, sp, #0
 8005750:	4b0b      	ldr	r3, [pc, #44]	; (8005780 <vPortSetupTimerInterrupt+0x34>)
 8005752:	2200      	movs	r2, #0
 8005754:	601a      	str	r2, [r3, #0]
 8005756:	4b0b      	ldr	r3, [pc, #44]	; (8005784 <vPortSetupTimerInterrupt+0x38>)
 8005758:	2200      	movs	r2, #0
 800575a:	601a      	str	r2, [r3, #0]
 800575c:	4b0a      	ldr	r3, [pc, #40]	; (8005788 <vPortSetupTimerInterrupt+0x3c>)
 800575e:	681b      	ldr	r3, [r3, #0]
 8005760:	4a0a      	ldr	r2, [pc, #40]	; (800578c <vPortSetupTimerInterrupt+0x40>)
 8005762:	fba2 2303 	umull	r2, r3, r2, r3
 8005766:	099b      	lsrs	r3, r3, #6
 8005768:	4a09      	ldr	r2, [pc, #36]	; (8005790 <vPortSetupTimerInterrupt+0x44>)
 800576a:	3b01      	subs	r3, #1
 800576c:	6013      	str	r3, [r2, #0]
 800576e:	4b04      	ldr	r3, [pc, #16]	; (8005780 <vPortSetupTimerInterrupt+0x34>)
 8005770:	2207      	movs	r2, #7
 8005772:	601a      	str	r2, [r3, #0]
 8005774:	bf00      	nop
 8005776:	46bd      	mov	sp, r7
 8005778:	f85d 7b04 	ldr.w	r7, [sp], #4
 800577c:	4770      	bx	lr
 800577e:	bf00      	nop
 8005780:	e000e010 	.word	0xe000e010
 8005784:	e000e018 	.word	0xe000e018
 8005788:	20000008 	.word	0x20000008
 800578c:	10624dd3 	.word	0x10624dd3
 8005790:	e000e014 	.word	0xe000e014

08005794 <vPortEnableVFP>:
 8005794:	f8df 000c 	ldr.w	r0, [pc, #12]	; 80057a4 <vPortEnableVFP+0x10>
 8005798:	6801      	ldr	r1, [r0, #0]
 800579a:	f441 0170 	orr.w	r1, r1, #15728640	; 0xf00000
 800579e:	6001      	str	r1, [r0, #0]
 80057a0:	4770      	bx	lr
 80057a2:	bf00      	nop
 80057a4:	e000ed88 	.word	0xe000ed88

080057a8 <vPortValidateInterruptPriority>:
 80057a8:	b480      	push	{r7}
 80057aa:	b085      	sub	sp, #20
 80057ac:	af00      	add	r7, sp, #0
 80057ae:	f3ef 8305 	mrs	r3, IPSR
 80057b2:	60fb      	str	r3, [r7, #12]
 80057b4:	68fb      	ldr	r3, [r7, #12]
 80057b6:	2b0f      	cmp	r3, #15
 80057b8:	d914      	bls.n	80057e4 <vPortValidateInterruptPriority+0x3c>
 80057ba:	4a17      	ldr	r2, [pc, #92]	; (8005818 <vPortValidateInterruptPriority+0x70>)
 80057bc:	68fb      	ldr	r3, [r7, #12]
 80057be:	4413      	add	r3, r2
 80057c0:	781b      	ldrb	r3, [r3, #0]
 80057c2:	72fb      	strb	r3, [r7, #11]
 80057c4:	4b15      	ldr	r3, [pc, #84]	; (800581c <vPortValidateInterruptPriority+0x74>)
 80057c6:	781b      	ldrb	r3, [r3, #0]
 80057c8:	7afa      	ldrb	r2, [r7, #11]
 80057ca:	429a      	cmp	r2, r3
 80057cc:	d20a      	bcs.n	80057e4 <vPortValidateInterruptPriority+0x3c>
 80057ce:	f04f 0350 	mov.w	r3, #80	; 0x50
 80057d2:	f383 8811 	msr	BASEPRI, r3
 80057d6:	f3bf 8f6f 	isb	sy
 80057da:	f3bf 8f4f 	dsb	sy
 80057de:	607b      	str	r3, [r7, #4]
 80057e0:	bf00      	nop
 80057e2:	e7fe      	b.n	80057e2 <vPortValidateInterruptPriority+0x3a>
 80057e4:	4b0e      	ldr	r3, [pc, #56]	; (8005820 <vPortValidateInterruptPriority+0x78>)
 80057e6:	681b      	ldr	r3, [r3, #0]
 80057e8:	f403 62e0 	and.w	r2, r3, #1792	; 0x700
 80057ec:	4b0d      	ldr	r3, [pc, #52]	; (8005824 <vPortValidateInterruptPriority+0x7c>)
 80057ee:	681b      	ldr	r3, [r3, #0]
 80057f0:	429a      	cmp	r2, r3
 80057f2:	d90a      	bls.n	800580a <vPortValidateInterruptPriority+0x62>
 80057f4:	f04f 0350 	mov.w	r3, #80	; 0x50
 80057f8:	f383 8811 	msr	BASEPRI, r3
 80057fc:	f3bf 8f6f 	isb	sy
 8005800:	f3bf 8f4f 	dsb	sy
 8005804:	603b      	str	r3, [r7, #0]
 8005806:	bf00      	nop
 8005808:	e7fe      	b.n	8005808 <vPortValidateInterruptPriority+0x60>
 800580a:	bf00      	nop
 800580c:	3714      	adds	r7, #20
 800580e:	46bd      	mov	sp, r7
 8005810:	f85d 7b04 	ldr.w	r7, [sp], #4
 8005814:	4770      	bx	lr
 8005816:	bf00      	nop
 8005818:	e000e3f0 	.word	0xe000e3f0
 800581c:	20000f90 	.word	0x20000f90
 8005820:	e000ed0c 	.word	0xe000ed0c
 8005824:	20000f94 	.word	0x20000f94

08005828 <pvPortMalloc>:
 8005828:	b580      	push	{r7, lr}
 800582a:	b08a      	sub	sp, #40	; 0x28
 800582c:	af00      	add	r7, sp, #0
 800582e:	6078      	str	r0, [r7, #4]
 8005830:	2300      	movs	r3, #0
 8005832:	61fb      	str	r3, [r7, #28]
 8005834:	f7fe fd98 	bl	8004368 <vTaskSuspendAll>
 8005838:	4b5b      	ldr	r3, [pc, #364]	; (80059a8 <pvPortMalloc+0x180>)
 800583a:	681b      	ldr	r3, [r3, #0]
 800583c:	2b00      	cmp	r3, #0
 800583e:	d101      	bne.n	8005844 <pvPortMalloc+0x1c>
 8005840:	f000 f920 	bl	8005a84 <prvHeapInit>
 8005844:	4b59      	ldr	r3, [pc, #356]	; (80059ac <pvPortMalloc+0x184>)
 8005846:	681a      	ldr	r2, [r3, #0]
 8005848:	687b      	ldr	r3, [r7, #4]
 800584a:	4013      	ands	r3, r2
 800584c:	2b00      	cmp	r3, #0
 800584e:	f040 8093 	bne.w	8005978 <pvPortMalloc+0x150>
 8005852:	687b      	ldr	r3, [r7, #4]
 8005854:	2b00      	cmp	r3, #0
 8005856:	d01d      	beq.n	8005894 <pvPortMalloc+0x6c>
 8005858:	2208      	movs	r2, #8
 800585a:	687b      	ldr	r3, [r7, #4]
 800585c:	4413      	add	r3, r2
 800585e:	607b      	str	r3, [r7, #4]
 8005860:	687b      	ldr	r3, [r7, #4]
 8005862:	f003 0307 	and.w	r3, r3, #7
 8005866:	2b00      	cmp	r3, #0
 8005868:	d014      	beq.n	8005894 <pvPortMalloc+0x6c>
 800586a:	687b      	ldr	r3, [r7, #4]
 800586c:	f023 0307 	bic.w	r3, r3, #7
 8005870:	3308      	adds	r3, #8
 8005872:	607b      	str	r3, [r7, #4]
 8005874:	687b      	ldr	r3, [r7, #4]
 8005876:	f003 0307 	and.w	r3, r3, #7
 800587a:	2b00      	cmp	r3, #0
 800587c:	d00a      	beq.n	8005894 <pvPortMalloc+0x6c>
 800587e:	f04f 0350 	mov.w	r3, #80	; 0x50
 8005882:	f383 8811 	msr	BASEPRI, r3
 8005886:	f3bf 8f6f 	isb	sy
 800588a:	f3bf 8f4f 	dsb	sy
 800588e:	617b      	str	r3, [r7, #20]
 8005890:	bf00      	nop
 8005892:	e7fe      	b.n	8005892 <pvPortMalloc+0x6a>
 8005894:	687b      	ldr	r3, [r7, #4]
 8005896:	2b00      	cmp	r3, #0
 8005898:	d06e      	beq.n	8005978 <pvPortMalloc+0x150>
 800589a:	4b45      	ldr	r3, [pc, #276]	; (80059b0 <pvPortMalloc+0x188>)
 800589c:	681b      	ldr	r3, [r3, #0]
 800589e:	687a      	ldr	r2, [r7, #4]
 80058a0:	429a      	cmp	r2, r3
 80058a2:	d869      	bhi.n	8005978 <pvPortMalloc+0x150>
 80058a4:	4b43      	ldr	r3, [pc, #268]	; (80059b4 <pvPortMalloc+0x18c>)
 80058a6:	623b      	str	r3, [r7, #32]
 80058a8:	4b42      	ldr	r3, [pc, #264]	; (80059b4 <pvPortMalloc+0x18c>)
 80058aa:	681b      	ldr	r3, [r3, #0]
 80058ac:	627b      	str	r3, [r7, #36]	; 0x24
 80058ae:	e004      	b.n	80058ba <pvPortMalloc+0x92>
 80058b0:	6a7b      	ldr	r3, [r7, #36]	; 0x24
 80058b2:	623b      	str	r3, [r7, #32]
 80058b4:	6a7b      	ldr	r3, [r7, #36]	; 0x24
 80058b6:	681b      	ldr	r3, [r3, #0]
 80058b8:	627b      	str	r3, [r7, #36]	; 0x24
 80058ba:	6a7b      	ldr	r3, [r7, #36]	; 0x24
 80058bc:	685b      	ldr	r3, [r3, #4]
 80058be:	687a      	ldr	r2, [r7, #4]
 80058c0:	429a      	cmp	r2, r3
 80058c2:	d903      	bls.n	80058cc <pvPortMalloc+0xa4>
 80058c4:	6a7b      	ldr	r3, [r7, #36]	; 0x24
 80058c6:	681b      	ldr	r3, [r3, #0]
 80058c8:	2b00      	cmp	r3, #0
 80058ca:	d1f1      	bne.n	80058b0 <pvPortMalloc+0x88>
 80058cc:	4b36      	ldr	r3, [pc, #216]	; (80059a8 <pvPortMalloc+0x180>)
 80058ce:	681b      	ldr	r3, [r3, #0]
 80058d0:	6a7a      	ldr	r2, [r7, #36]	; 0x24
 80058d2:	429a      	cmp	r2, r3
 80058d4:	d050      	beq.n	8005978 <pvPortMalloc+0x150>
 80058d6:	6a3b      	ldr	r3, [r7, #32]
 80058d8:	681b      	ldr	r3, [r3, #0]
 80058da:	2208      	movs	r2, #8
 80058dc:	4413      	add	r3, r2
 80058de:	61fb      	str	r3, [r7, #28]
 80058e0:	6a7b      	ldr	r3, [r7, #36]	; 0x24
 80058e2:	681a      	ldr	r2, [r3, #0]
 80058e4:	6a3b      	ldr	r3, [r7, #32]
 80058e6:	601a      	str	r2, [r3, #0]
 80058e8:	6a7b      	ldr	r3, [r7, #36]	; 0x24
 80058ea:	685a      	ldr	r2, [r3, #4]
 80058ec:	687b      	ldr	r3, [r7, #4]
 80058ee:	1ad2      	subs	r2, r2, r3
 80058f0:	2308      	movs	r3, #8
 80058f2:	005b      	lsls	r3, r3, #1
 80058f4:	429a      	cmp	r2, r3
 80058f6:	d91f      	bls.n	8005938 <pvPortMalloc+0x110>
 80058f8:	6a7a      	ldr	r2, [r7, #36]	; 0x24
 80058fa:	687b      	ldr	r3, [r7, #4]
 80058fc:	4413      	add	r3, r2
 80058fe:	61bb      	str	r3, [r7, #24]
 8005900:	69bb      	ldr	r3, [r7, #24]
 8005902:	f003 0307 	and.w	r3, r3, #7
 8005906:	2b00      	cmp	r3, #0
 8005908:	d00a      	beq.n	8005920 <pvPortMalloc+0xf8>
 800590a:	f04f 0350 	mov.w	r3, #80	; 0x50
 800590e:	f383 8811 	msr	BASEPRI, r3
 8005912:	f3bf 8f6f 	isb	sy
 8005916:	f3bf 8f4f 	dsb	sy
 800591a:	613b      	str	r3, [r7, #16]
 800591c:	bf00      	nop
 800591e:	e7fe      	b.n	800591e <pvPortMalloc+0xf6>
 8005920:	6a7b      	ldr	r3, [r7, #36]	; 0x24
 8005922:	685a      	ldr	r2, [r3, #4]
 8005924:	687b      	ldr	r3, [r7, #4]
 8005926:	1ad2      	subs	r2, r2, r3
 8005928:	69bb      	ldr	r3, [r7, #24]
 800592a:	605a      	str	r2, [r3, #4]
 800592c:	6a7b      	ldr	r3, [r7, #36]	; 0x24
 800592e:	687a      	ldr	r2, [r7, #4]
 8005930:	605a      	str	r2, [r3, #4]
 8005932:	69b8      	ldr	r0, [r7, #24]
 8005934:	f000 f908 	bl	8005b48 <prvInsertBlockIntoFreeList>
 8005938:	4b1d      	ldr	r3, [pc, #116]	; (80059b0 <pvPortMalloc+0x188>)
 800593a:	681a      	ldr	r2, [r3, #0]
 800593c:	6a7b      	ldr	r3, [r7, #36]	; 0x24
 800593e:	685b      	ldr	r3, [r3, #4]
 8005940:	1ad3      	subs	r3, r2, r3
 8005942:	4a1b      	ldr	r2, [pc, #108]	; (80059b0 <pvPortMalloc+0x188>)
 8005944:	6013      	str	r3, [r2, #0]
 8005946:	4b1a      	ldr	r3, [pc, #104]	; (80059b0 <pvPortMalloc+0x188>)
 8005948:	681a      	ldr	r2, [r3, #0]
 800594a:	4b1b      	ldr	r3, [pc, #108]	; (80059b8 <pvPortMalloc+0x190>)
 800594c:	681b      	ldr	r3, [r3, #0]
 800594e:	429a      	cmp	r2, r3
 8005950:	d203      	bcs.n	800595a <pvPortMalloc+0x132>
 8005952:	4b17      	ldr	r3, [pc, #92]	; (80059b0 <pvPortMalloc+0x188>)
 8005954:	681b      	ldr	r3, [r3, #0]
 8005956:	4a18      	ldr	r2, [pc, #96]	; (80059b8 <pvPortMalloc+0x190>)
 8005958:	6013      	str	r3, [r2, #0]
 800595a:	6a7b      	ldr	r3, [r7, #36]	; 0x24
 800595c:	685a      	ldr	r2, [r3, #4]
 800595e:	4b13      	ldr	r3, [pc, #76]	; (80059ac <pvPortMalloc+0x184>)
 8005960:	681b      	ldr	r3, [r3, #0]
 8005962:	431a      	orrs	r2, r3
 8005964:	6a7b      	ldr	r3, [r7, #36]	; 0x24
 8005966:	605a      	str	r2, [r3, #4]
 8005968:	6a7b      	ldr	r3, [r7, #36]	; 0x24
 800596a:	2200      	movs	r2, #0
 800596c:	601a      	str	r2, [r3, #0]
 800596e:	4b13      	ldr	r3, [pc, #76]	; (80059bc <pvPortMalloc+0x194>)
 8005970:	681b      	ldr	r3, [r3, #0]
 8005972:	3301      	adds	r3, #1
 8005974:	4a11      	ldr	r2, [pc, #68]	; (80059bc <pvPortMalloc+0x194>)
 8005976:	6013      	str	r3, [r2, #0]
 8005978:	f7fe fd04 	bl	8004384 <xTaskResumeAll>
 800597c:	69fb      	ldr	r3, [r7, #28]
 800597e:	f003 0307 	and.w	r3, r3, #7
 8005982:	2b00      	cmp	r3, #0
 8005984:	d00a      	beq.n	800599c <pvPortMalloc+0x174>
 8005986:	f04f 0350 	mov.w	r3, #80	; 0x50
 800598a:	f383 8811 	msr	BASEPRI, r3
 800598e:	f3bf 8f6f 	isb	sy
 8005992:	f3bf 8f4f 	dsb	sy
 8005996:	60fb      	str	r3, [r7, #12]
 8005998:	bf00      	nop
 800599a:	e7fe      	b.n	800599a <pvPortMalloc+0x172>
 800599c:	69fb      	ldr	r3, [r7, #28]
 800599e:	4618      	mov	r0, r3
 80059a0:	3728      	adds	r7, #40	; 0x28
 80059a2:	46bd      	mov	sp, r7
 80059a4:	bd80      	pop	{r7, pc}
 80059a6:	bf00      	nop
 80059a8:	20004ba0 	.word	0x20004ba0
 80059ac:	20004bb4 	.word	0x20004bb4
 80059b0:	20004ba4 	.word	0x20004ba4
 80059b4:	20004b98 	.word	0x20004b98
 80059b8:	20004ba8 	.word	0x20004ba8
 80059bc:	20004bac 	.word	0x20004bac

080059c0 <vPortFree>:
 80059c0:	b580      	push	{r7, lr}
 80059c2:	b086      	sub	sp, #24
 80059c4:	af00      	add	r7, sp, #0
 80059c6:	6078      	str	r0, [r7, #4]
 80059c8:	687b      	ldr	r3, [r7, #4]
 80059ca:	617b      	str	r3, [r7, #20]
 80059cc:	687b      	ldr	r3, [r7, #4]
 80059ce:	2b00      	cmp	r3, #0
 80059d0:	d04d      	beq.n	8005a6e <vPortFree+0xae>
 80059d2:	2308      	movs	r3, #8
 80059d4:	425b      	negs	r3, r3
 80059d6:	697a      	ldr	r2, [r7, #20]
 80059d8:	4413      	add	r3, r2
 80059da:	617b      	str	r3, [r7, #20]
 80059dc:	697b      	ldr	r3, [r7, #20]
 80059de:	613b      	str	r3, [r7, #16]
 80059e0:	693b      	ldr	r3, [r7, #16]
 80059e2:	685a      	ldr	r2, [r3, #4]
 80059e4:	4b24      	ldr	r3, [pc, #144]	; (8005a78 <vPortFree+0xb8>)
 80059e6:	681b      	ldr	r3, [r3, #0]
 80059e8:	4013      	ands	r3, r2
 80059ea:	2b00      	cmp	r3, #0
 80059ec:	d10a      	bne.n	8005a04 <vPortFree+0x44>
 80059ee:	f04f 0350 	mov.w	r3, #80	; 0x50
 80059f2:	f383 8811 	msr	BASEPRI, r3
 80059f6:	f3bf 8f6f 	isb	sy
 80059fa:	f3bf 8f4f 	dsb	sy
 80059fe:	60fb      	str	r3, [r7, #12]
 8005a00:	bf00      	nop
 8005a02:	e7fe      	b.n	8005a02 <vPortFree+0x42>
 8005a04:	693b      	ldr	r3, [r7, #16]
 8005a06:	681b      	ldr	r3, [r3, #0]
 8005a08:	2b00      	cmp	r3, #0
 8005a0a:	d00a      	beq.n	8005a22 <vPortFree+0x62>
 8005a0c:	f04f 0350 	mov.w	r3, #80	; 0x50
 8005a10:	f383 8811 	msr	BASEPRI, r3
 8005a14:	f3bf 8f6f 	isb	sy
 8005a18:	f3bf 8f4f 	dsb	sy
 8005a1c:	60bb      	str	r3, [r7, #8]
 8005a1e:	bf00      	nop
 8005a20:	e7fe      	b.n	8005a20 <vPortFree+0x60>
 8005a22:	693b      	ldr	r3, [r7, #16]
 8005a24:	685a      	ldr	r2, [r3, #4]
 8005a26:	4b14      	ldr	r3, [pc, #80]	; (8005a78 <vPortFree+0xb8>)
 8005a28:	681b      	ldr	r3, [r3, #0]
 8005a2a:	4013      	ands	r3, r2
 8005a2c:	2b00      	cmp	r3, #0
 8005a2e:	d01e      	beq.n	8005a6e <vPortFree+0xae>
 8005a30:	693b      	ldr	r3, [r7, #16]
 8005a32:	681b      	ldr	r3, [r3, #0]
 8005a34:	2b00      	cmp	r3, #0
 8005a36:	d11a      	bne.n	8005a6e <vPortFree+0xae>
 8005a38:	693b      	ldr	r3, [r7, #16]
 8005a3a:	685a      	ldr	r2, [r3, #4]
 8005a3c:	4b0e      	ldr	r3, [pc, #56]	; (8005a78 <vPortFree+0xb8>)
 8005a3e:	681b      	ldr	r3, [r3, #0]
 8005a40:	43db      	mvns	r3, r3
 8005a42:	401a      	ands	r2, r3
 8005a44:	693b      	ldr	r3, [r7, #16]
 8005a46:	605a      	str	r2, [r3, #4]
 8005a48:	f7fe fc8e 	bl	8004368 <vTaskSuspendAll>
 8005a4c:	693b      	ldr	r3, [r7, #16]
 8005a4e:	685a      	ldr	r2, [r3, #4]
 8005a50:	4b0a      	ldr	r3, [pc, #40]	; (8005a7c <vPortFree+0xbc>)
 8005a52:	681b      	ldr	r3, [r3, #0]
 8005a54:	4413      	add	r3, r2
 8005a56:	4a09      	ldr	r2, [pc, #36]	; (8005a7c <vPortFree+0xbc>)
 8005a58:	6013      	str	r3, [r2, #0]
 8005a5a:	6938      	ldr	r0, [r7, #16]
 8005a5c:	f000 f874 	bl	8005b48 <prvInsertBlockIntoFreeList>
 8005a60:	4b07      	ldr	r3, [pc, #28]	; (8005a80 <vPortFree+0xc0>)
 8005a62:	681b      	ldr	r3, [r3, #0]
 8005a64:	3301      	adds	r3, #1
 8005a66:	4a06      	ldr	r2, [pc, #24]	; (8005a80 <vPortFree+0xc0>)
 8005a68:	6013      	str	r3, [r2, #0]
 8005a6a:	f7fe fc8b 	bl	8004384 <xTaskResumeAll>
 8005a6e:	bf00      	nop
 8005a70:	3718      	adds	r7, #24
 8005a72:	46bd      	mov	sp, r7
 8005a74:	bd80      	pop	{r7, pc}
 8005a76:	bf00      	nop
 8005a78:	20004bb4 	.word	0x20004bb4
 8005a7c:	20004ba4 	.word	0x20004ba4
 8005a80:	20004bb0 	.word	0x20004bb0

08005a84 <prvHeapInit>:
 8005a84:	b480      	push	{r7}
 8005a86:	b085      	sub	sp, #20
 8005a88:	af00      	add	r7, sp, #0
 8005a8a:	f44f 5370 	mov.w	r3, #15360	; 0x3c00
 8005a8e:	60bb      	str	r3, [r7, #8]
 8005a90:	4b27      	ldr	r3, [pc, #156]	; (8005b30 <prvHeapInit+0xac>)
 8005a92:	60fb      	str	r3, [r7, #12]
 8005a94:	68fb      	ldr	r3, [r7, #12]
 8005a96:	f003 0307 	and.w	r3, r3, #7
 8005a9a:	2b00      	cmp	r3, #0
 8005a9c:	d00c      	beq.n	8005ab8 <prvHeapInit+0x34>
 8005a9e:	68fb      	ldr	r3, [r7, #12]
 8005aa0:	3307      	adds	r3, #7
 8005aa2:	60fb      	str	r3, [r7, #12]
 8005aa4:	68fb      	ldr	r3, [r7, #12]
 8005aa6:	f023 0307 	bic.w	r3, r3, #7
 8005aaa:	60fb      	str	r3, [r7, #12]
 8005aac:	68ba      	ldr	r2, [r7, #8]
 8005aae:	68fb      	ldr	r3, [r7, #12]
 8005ab0:	1ad3      	subs	r3, r2, r3
 8005ab2:	4a1f      	ldr	r2, [pc, #124]	; (8005b30 <prvHeapInit+0xac>)
 8005ab4:	4413      	add	r3, r2
 8005ab6:	60bb      	str	r3, [r7, #8]
 8005ab8:	68fb      	ldr	r3, [r7, #12]
 8005aba:	607b      	str	r3, [r7, #4]
 8005abc:	4a1d      	ldr	r2, [pc, #116]	; (8005b34 <prvHeapInit+0xb0>)
 8005abe:	687b      	ldr	r3, [r7, #4]
 8005ac0:	6013      	str	r3, [r2, #0]
 8005ac2:	4b1c      	ldr	r3, [pc, #112]	; (8005b34 <prvHeapInit+0xb0>)
 8005ac4:	2200      	movs	r2, #0
 8005ac6:	605a      	str	r2, [r3, #4]
 8005ac8:	687b      	ldr	r3, [r7, #4]
 8005aca:	68ba      	ldr	r2, [r7, #8]
 8005acc:	4413      	add	r3, r2
 8005ace:	60fb      	str	r3, [r7, #12]
 8005ad0:	2208      	movs	r2, #8
 8005ad2:	68fb      	ldr	r3, [r7, #12]
 8005ad4:	1a9b      	subs	r3, r3, r2
 8005ad6:	60fb      	str	r3, [r7, #12]
 8005ad8:	68fb      	ldr	r3, [r7, #12]
 8005ada:	f023 0307 	bic.w	r3, r3, #7
 8005ade:	60fb      	str	r3, [r7, #12]
 8005ae0:	68fb      	ldr	r3, [r7, #12]
 8005ae2:	4a15      	ldr	r2, [pc, #84]	; (8005b38 <prvHeapInit+0xb4>)
 8005ae4:	6013      	str	r3, [r2, #0]
 8005ae6:	4b14      	ldr	r3, [pc, #80]	; (8005b38 <prvHeapInit+0xb4>)
 8005ae8:	681b      	ldr	r3, [r3, #0]
 8005aea:	2200      	movs	r2, #0
 8005aec:	605a      	str	r2, [r3, #4]
 8005aee:	4b12      	ldr	r3, [pc, #72]	; (8005b38 <prvHeapInit+0xb4>)
 8005af0:	681b      	ldr	r3, [r3, #0]
 8005af2:	2200      	movs	r2, #0
 8005af4:	601a      	str	r2, [r3, #0]
 8005af6:	687b      	ldr	r3, [r7, #4]
 8005af8:	603b      	str	r3, [r7, #0]
 8005afa:	683b      	ldr	r3, [r7, #0]
 8005afc:	68fa      	ldr	r2, [r7, #12]
 8005afe:	1ad2      	subs	r2, r2, r3
 8005b00:	683b      	ldr	r3, [r7, #0]
 8005b02:	605a      	str	r2, [r3, #4]
 8005b04:	4b0c      	ldr	r3, [pc, #48]	; (8005b38 <prvHeapInit+0xb4>)
 8005b06:	681a      	ldr	r2, [r3, #0]
 8005b08:	683b      	ldr	r3, [r7, #0]
 8005b0a:	601a      	str	r2, [r3, #0]
 8005b0c:	683b      	ldr	r3, [r7, #0]
 8005b0e:	685b      	ldr	r3, [r3, #4]
 8005b10:	4a0a      	ldr	r2, [pc, #40]	; (8005b3c <prvHeapInit+0xb8>)
 8005b12:	6013      	str	r3, [r2, #0]
 8005b14:	683b      	ldr	r3, [r7, #0]
 8005b16:	685b      	ldr	r3, [r3, #4]
 8005b18:	4a09      	ldr	r2, [pc, #36]	; (8005b40 <prvHeapInit+0xbc>)
 8005b1a:	6013      	str	r3, [r2, #0]
 8005b1c:	4b09      	ldr	r3, [pc, #36]	; (8005b44 <prvHeapInit+0xc0>)
 8005b1e:	f04f 4200 	mov.w	r2, #2147483648	; 0x80000000
 8005b22:	601a      	str	r2, [r3, #0]
 8005b24:	bf00      	nop
 8005b26:	3714      	adds	r7, #20
 8005b28:	46bd      	mov	sp, r7
 8005b2a:	f85d 7b04 	ldr.w	r7, [sp], #4
 8005b2e:	4770      	bx	lr
 8005b30:	20000f98 	.word	0x20000f98
 8005b34:	20004b98 	.word	0x20004b98
 8005b38:	20004ba0 	.word	0x20004ba0
 8005b3c:	20004ba8 	.word	0x20004ba8
 8005b40:	20004ba4 	.word	0x20004ba4
 8005b44:	20004bb4 	.word	0x20004bb4

08005b48 <prvInsertBlockIntoFreeList>:
 8005b48:	b480      	push	{r7}
 8005b4a:	b085      	sub	sp, #20
 8005b4c:	af00      	add	r7, sp, #0
 8005b4e:	6078      	str	r0, [r7, #4]
 8005b50:	4b28      	ldr	r3, [pc, #160]	; (8005bf4 <prvInsertBlockIntoFreeList+0xac>)
 8005b52:	60fb      	str	r3, [r7, #12]
 8005b54:	e002      	b.n	8005b5c <prvInsertBlockIntoFreeList+0x14>
 8005b56:	68fb      	ldr	r3, [r7, #12]
 8005b58:	681b      	ldr	r3, [r3, #0]
 8005b5a:	60fb      	str	r3, [r7, #12]
 8005b5c:	68fb      	ldr	r3, [r7, #12]
 8005b5e:	681b      	ldr	r3, [r3, #0]
 8005b60:	687a      	ldr	r2, [r7, #4]
 8005b62:	429a      	cmp	r2, r3
 8005b64:	d8f7      	bhi.n	8005b56 <prvInsertBlockIntoFreeList+0xe>
 8005b66:	68fb      	ldr	r3, [r7, #12]
 8005b68:	60bb      	str	r3, [r7, #8]
 8005b6a:	68fb      	ldr	r3, [r7, #12]
 8005b6c:	685b      	ldr	r3, [r3, #4]
 8005b6e:	68ba      	ldr	r2, [r7, #8]
 8005b70:	4413      	add	r3, r2
 8005b72:	687a      	ldr	r2, [r7, #4]
 8005b74:	429a      	cmp	r2, r3
 8005b76:	d108      	bne.n	8005b8a <prvInsertBlockIntoFreeList+0x42>
 8005b78:	68fb      	ldr	r3, [r7, #12]
 8005b7a:	685a      	ldr	r2, [r3, #4]
 8005b7c:	687b      	ldr	r3, [r7, #4]
 8005b7e:	685b      	ldr	r3, [r3, #4]
 8005b80:	441a      	add	r2, r3
 8005b82:	68fb      	ldr	r3, [r7, #12]
 8005b84:	605a      	str	r2, [r3, #4]
 8005b86:	68fb      	ldr	r3, [r7, #12]
 8005b88:	607b      	str	r3, [r7, #4]
 8005b8a:	687b      	ldr	r3, [r7, #4]
 8005b8c:	60bb      	str	r3, [r7, #8]
 8005b8e:	687b      	ldr	r3, [r7, #4]
 8005b90:	685b      	ldr	r3, [r3, #4]
 8005b92:	68ba      	ldr	r2, [r7, #8]
 8005b94:	441a      	add	r2, r3
 8005b96:	68fb      	ldr	r3, [r7, #12]
 8005b98:	681b      	ldr	r3, [r3, #0]
 8005b9a:	429a      	cmp	r2, r3
 8005b9c:	d118      	bne.n	8005bd0 <prvInsertBlockIntoFreeList+0x88>
 8005b9e:	68fb      	ldr	r3, [r7, #12]
 8005ba0:	681a      	ldr	r2, [r3, #0]
 8005ba2:	4b15      	ldr	r3, [pc, #84]	; (8005bf8 <prvInsertBlockIntoFreeList+0xb0>)
 8005ba4:	681b      	ldr	r3, [r3, #0]
 8005ba6:	429a      	cmp	r2, r3
 8005ba8:	d00d      	beq.n	8005bc6 <prvInsertBlockIntoFreeList+0x7e>
 8005baa:	687b      	ldr	r3, [r7, #4]
 8005bac:	685a      	ldr	r2, [r3, #4]
 8005bae:	68fb      	ldr	r3, [r7, #12]
 8005bb0:	681b      	ldr	r3, [r3, #0]
 8005bb2:	685b      	ldr	r3, [r3, #4]
 8005bb4:	441a      	add	r2, r3
 8005bb6:	687b      	ldr	r3, [r7, #4]
 8005bb8:	605a      	str	r2, [r3, #4]
 8005bba:	68fb      	ldr	r3, [r7, #12]
 8005bbc:	681b      	ldr	r3, [r3, #0]
 8005bbe:	681a      	ldr	r2, [r3, #0]
 8005bc0:	687b      	ldr	r3, [r7, #4]
 8005bc2:	601a      	str	r2, [r3, #0]
 8005bc4:	e008      	b.n	8005bd8 <prvInsertBlockIntoFreeList+0x90>
 8005bc6:	4b0c      	ldr	r3, [pc, #48]	; (8005bf8 <prvInsertBlockIntoFreeList+0xb0>)
 8005bc8:	681a      	ldr	r2, [r3, #0]
 8005bca:	687b      	ldr	r3, [r7, #4]
 8005bcc:	601a      	str	r2, [r3, #0]
 8005bce:	e003      	b.n	8005bd8 <prvInsertBlockIntoFreeList+0x90>
 8005bd0:	68fb      	ldr	r3, [r7, #12]
 8005bd2:	681a      	ldr	r2, [r3, #0]
 8005bd4:	687b      	ldr	r3, [r7, #4]
 8005bd6:	601a      	str	r2, [r3, #0]
 8005bd8:	68fa      	ldr	r2, [r7, #12]
 8005bda:	687b      	ldr	r3, [r7, #4]
 8005bdc:	429a      	cmp	r2, r3
 8005bde:	d002      	beq.n	8005be6 <prvInsertBlockIntoFreeList+0x9e>
 8005be0:	68fb      	ldr	r3, [r7, #12]
 8005be2:	687a      	ldr	r2, [r7, #4]
 8005be4:	601a      	str	r2, [r3, #0]
 8005be6:	bf00      	nop
 8005be8:	3714      	adds	r7, #20
 8005bea:	46bd      	mov	sp, r7
 8005bec:	f85d 7b04 	ldr.w	r7, [sp], #4
 8005bf0:	4770      	bx	lr
 8005bf2:	bf00      	nop
 8005bf4:	20004b98 	.word	0x20004b98
 8005bf8:	20004ba0 	.word	0x20004ba0

08005bfc <__errno>:
 8005bfc:	4b01      	ldr	r3, [pc, #4]	; (8005c04 <__errno+0x8>)
 8005bfe:	6818      	ldr	r0, [r3, #0]
 8005c00:	4770      	bx	lr
 8005c02:	bf00      	nop
 8005c04:	20000018 	.word	0x20000018

08005c08 <__libc_init_array>:
 8005c08:	b570      	push	{r4, r5, r6, lr}
 8005c0a:	4d0d      	ldr	r5, [pc, #52]	; (8005c40 <__libc_init_array+0x38>)
 8005c0c:	4c0d      	ldr	r4, [pc, #52]	; (8005c44 <__libc_init_array+0x3c>)
 8005c0e:	1b64      	subs	r4, r4, r5
 8005c10:	10a4      	asrs	r4, r4, #2
 8005c12:	2600      	movs	r6, #0
 8005c14:	42a6      	cmp	r6, r4
 8005c16:	d109      	bne.n	8005c2c <__libc_init_array+0x24>
 8005c18:	4d0b      	ldr	r5, [pc, #44]	; (8005c48 <__libc_init_array+0x40>)
 8005c1a:	4c0c      	ldr	r4, [pc, #48]	; (8005c4c <__libc_init_array+0x44>)
 8005c1c:	f000 fca2 	bl	8006564 <_init>
 8005c20:	1b64      	subs	r4, r4, r5
 8005c22:	10a4      	asrs	r4, r4, #2
 8005c24:	2600      	movs	r6, #0
 8005c26:	42a6      	cmp	r6, r4
 8005c28:	d105      	bne.n	8005c36 <__libc_init_array+0x2e>
 8005c2a:	bd70      	pop	{r4, r5, r6, pc}
 8005c2c:	f855 3b04 	ldr.w	r3, [r5], #4
 8005c30:	4798      	blx	r3
 8005c32:	3601      	adds	r6, #1
 8005c34:	e7ee      	b.n	8005c14 <__libc_init_array+0xc>
 8005c36:	f855 3b04 	ldr.w	r3, [r5], #4
 8005c3a:	4798      	blx	r3
 8005c3c:	3601      	adds	r6, #1
 8005c3e:	e7f2      	b.n	8005c26 <__libc_init_array+0x1e>
 8005c40:	08006694 	.word	0x08006694
 8005c44:	08006694 	.word	0x08006694
 8005c48:	08006694 	.word	0x08006694
 8005c4c:	08006698 	.word	0x08006698

08005c50 <memcpy>:
 8005c50:	440a      	add	r2, r1
 8005c52:	4291      	cmp	r1, r2
 8005c54:	f100 33ff 	add.w	r3, r0, #4294967295
 8005c58:	d100      	bne.n	8005c5c <memcpy+0xc>
 8005c5a:	4770      	bx	lr
 8005c5c:	b510      	push	{r4, lr}
 8005c5e:	f811 4b01 	ldrb.w	r4, [r1], #1
 8005c62:	f803 4f01 	strb.w	r4, [r3, #1]!
 8005c66:	4291      	cmp	r1, r2
 8005c68:	d1f9      	bne.n	8005c5e <memcpy+0xe>
 8005c6a:	bd10      	pop	{r4, pc}

08005c6c <memset>:
 8005c6c:	4402      	add	r2, r0
 8005c6e:	4603      	mov	r3, r0
 8005c70:	4293      	cmp	r3, r2
 8005c72:	d100      	bne.n	8005c76 <memset+0xa>
 8005c74:	4770      	bx	lr
 8005c76:	f803 1b01 	strb.w	r1, [r3], #1
 8005c7a:	e7f9      	b.n	8005c70 <memset+0x4>

08005c7c <sniprintf>:
 8005c7c:	b40c      	push	{r2, r3}
 8005c7e:	b530      	push	{r4, r5, lr}
 8005c80:	4b17      	ldr	r3, [pc, #92]	; (8005ce0 <sniprintf+0x64>)
 8005c82:	1e0c      	subs	r4, r1, #0
 8005c84:	681d      	ldr	r5, [r3, #0]
 8005c86:	b09d      	sub	sp, #116	; 0x74
 8005c88:	da08      	bge.n	8005c9c <sniprintf+0x20>
 8005c8a:	238b      	movs	r3, #139	; 0x8b
 8005c8c:	602b      	str	r3, [r5, #0]
 8005c8e:	f04f 30ff 	mov.w	r0, #4294967295
 8005c92:	b01d      	add	sp, #116	; 0x74
 8005c94:	e8bd 4030 	ldmia.w	sp!, {r4, r5, lr}
 8005c98:	b002      	add	sp, #8
 8005c9a:	4770      	bx	lr
 8005c9c:	f44f 7302 	mov.w	r3, #520	; 0x208
 8005ca0:	f8ad 3014 	strh.w	r3, [sp, #20]
 8005ca4:	bf14      	ite	ne
 8005ca6:	f104 33ff 	addne.w	r3, r4, #4294967295
 8005caa:	4623      	moveq	r3, r4
 8005cac:	9304      	str	r3, [sp, #16]
 8005cae:	9307      	str	r3, [sp, #28]
 8005cb0:	f64f 73ff 	movw	r3, #65535	; 0xffff
 8005cb4:	9002      	str	r0, [sp, #8]
 8005cb6:	9006      	str	r0, [sp, #24]
 8005cb8:	f8ad 3016 	strh.w	r3, [sp, #22]
 8005cbc:	9a20      	ldr	r2, [sp, #128]	; 0x80
 8005cbe:	ab21      	add	r3, sp, #132	; 0x84
 8005cc0:	a902      	add	r1, sp, #8
 8005cc2:	4628      	mov	r0, r5
 8005cc4:	9301      	str	r3, [sp, #4]
 8005cc6:	f000 f869 	bl	8005d9c <_svfiprintf_r>
 8005cca:	1c43      	adds	r3, r0, #1
 8005ccc:	bfbc      	itt	lt
 8005cce:	238b      	movlt	r3, #139	; 0x8b
 8005cd0:	602b      	strlt	r3, [r5, #0]
 8005cd2:	2c00      	cmp	r4, #0
 8005cd4:	d0dd      	beq.n	8005c92 <sniprintf+0x16>
 8005cd6:	9b02      	ldr	r3, [sp, #8]
 8005cd8:	2200      	movs	r2, #0
 8005cda:	701a      	strb	r2, [r3, #0]
 8005cdc:	e7d9      	b.n	8005c92 <sniprintf+0x16>
 8005cde:	bf00      	nop
 8005ce0:	20000018 	.word	0x20000018

08005ce4 <__ssputs_r>:
 8005ce4:	e92d 47f0 	stmdb	sp!, {r4, r5, r6, r7, r8, r9, sl, lr}
 8005ce8:	688e      	ldr	r6, [r1, #8]
 8005cea:	429e      	cmp	r6, r3
 8005cec:	4682      	mov	sl, r0
 8005cee:	460c      	mov	r4, r1
 8005cf0:	4690      	mov	r8, r2
 8005cf2:	461f      	mov	r7, r3
 8005cf4:	d838      	bhi.n	8005d68 <__ssputs_r+0x84>
 8005cf6:	898a      	ldrh	r2, [r1, #12]
 8005cf8:	f412 6f90 	tst.w	r2, #1152	; 0x480
 8005cfc:	d032      	beq.n	8005d64 <__ssputs_r+0x80>
 8005cfe:	6825      	ldr	r5, [r4, #0]
 8005d00:	6909      	ldr	r1, [r1, #16]
 8005d02:	eba5 0901 	sub.w	r9, r5, r1
 8005d06:	6965      	ldr	r5, [r4, #20]
 8005d08:	eb05 0545 	add.w	r5, r5, r5, lsl #1
 8005d0c:	eb05 75d5 	add.w	r5, r5, r5, lsr #31
 8005d10:	3301      	adds	r3, #1
 8005d12:	444b      	add	r3, r9
 8005d14:	106d      	asrs	r5, r5, #1
 8005d16:	429d      	cmp	r5, r3
 8005d18:	bf38      	it	cc
 8005d1a:	461d      	movcc	r5, r3
 8005d1c:	0553      	lsls	r3, r2, #21
 8005d1e:	d531      	bpl.n	8005d84 <__ssputs_r+0xa0>
 8005d20:	4629      	mov	r1, r5
 8005d22:	f000 fb55 	bl	80063d0 <_malloc_r>
 8005d26:	4606      	mov	r6, r0
 8005d28:	b950      	cbnz	r0, 8005d40 <__ssputs_r+0x5c>
 8005d2a:	230c      	movs	r3, #12
 8005d2c:	f8ca 3000 	str.w	r3, [sl]
 8005d30:	89a3      	ldrh	r3, [r4, #12]
 8005d32:	f043 0340 	orr.w	r3, r3, #64	; 0x40
 8005d36:	81a3      	strh	r3, [r4, #12]
 8005d38:	f04f 30ff 	mov.w	r0, #4294967295
 8005d3c:	e8bd 87f0 	ldmia.w	sp!, {r4, r5, r6, r7, r8, r9, sl, pc}
 8005d40:	6921      	ldr	r1, [r4, #16]
 8005d42:	464a      	mov	r2, r9
 8005d44:	f7ff ff84 	bl	8005c50 <memcpy>
 8005d48:	89a3      	ldrh	r3, [r4, #12]
 8005d4a:	f423 6390 	bic.w	r3, r3, #1152	; 0x480
 8005d4e:	f043 0380 	orr.w	r3, r3, #128	; 0x80
 8005d52:	81a3      	strh	r3, [r4, #12]
 8005d54:	6126      	str	r6, [r4, #16]
 8005d56:	6165      	str	r5, [r4, #20]
 8005d58:	444e      	add	r6, r9
 8005d5a:	eba5 0509 	sub.w	r5, r5, r9
 8005d5e:	6026      	str	r6, [r4, #0]
 8005d60:	60a5      	str	r5, [r4, #8]
 8005d62:	463e      	mov	r6, r7
 8005d64:	42be      	cmp	r6, r7
 8005d66:	d900      	bls.n	8005d6a <__ssputs_r+0x86>
 8005d68:	463e      	mov	r6, r7
 8005d6a:	6820      	ldr	r0, [r4, #0]
 8005d6c:	4632      	mov	r2, r6
 8005d6e:	4641      	mov	r1, r8
 8005d70:	f000 faa8 	bl	80062c4 <memmove>
 8005d74:	68a3      	ldr	r3, [r4, #8]
 8005d76:	1b9b      	subs	r3, r3, r6
 8005d78:	60a3      	str	r3, [r4, #8]
 8005d7a:	6823      	ldr	r3, [r4, #0]
 8005d7c:	4433      	add	r3, r6
 8005d7e:	6023      	str	r3, [r4, #0]
 8005d80:	2000      	movs	r0, #0
 8005d82:	e7db      	b.n	8005d3c <__ssputs_r+0x58>
 8005d84:	462a      	mov	r2, r5
 8005d86:	f000 fb97 	bl	80064b8 <_realloc_r>
 8005d8a:	4606      	mov	r6, r0
 8005d8c:	2800      	cmp	r0, #0
 8005d8e:	d1e1      	bne.n	8005d54 <__ssputs_r+0x70>
 8005d90:	6921      	ldr	r1, [r4, #16]
 8005d92:	4650      	mov	r0, sl
 8005d94:	f000 fab0 	bl	80062f8 <_free_r>
 8005d98:	e7c7      	b.n	8005d2a <__ssputs_r+0x46>
	...

08005d9c <_svfiprintf_r>:
 8005d9c:	e92d 4ff0 	stmdb	sp!, {r4, r5, r6, r7, r8, r9, sl, fp, lr}
 8005da0:	4698      	mov	r8, r3
 8005da2:	898b      	ldrh	r3, [r1, #12]
 8005da4:	061b      	lsls	r3, r3, #24
 8005da6:	b09d      	sub	sp, #116	; 0x74
 8005da8:	4607      	mov	r7, r0
 8005daa:	460d      	mov	r5, r1
 8005dac:	4614      	mov	r4, r2
 8005dae:	d50e      	bpl.n	8005dce <_svfiprintf_r+0x32>
 8005db0:	690b      	ldr	r3, [r1, #16]
 8005db2:	b963      	cbnz	r3, 8005dce <_svfiprintf_r+0x32>
 8005db4:	2140      	movs	r1, #64	; 0x40
 8005db6:	f000 fb0b 	bl	80063d0 <_malloc_r>
 8005dba:	6028      	str	r0, [r5, #0]
 8005dbc:	6128      	str	r0, [r5, #16]
 8005dbe:	b920      	cbnz	r0, 8005dca <_svfiprintf_r+0x2e>
 8005dc0:	230c      	movs	r3, #12
 8005dc2:	603b      	str	r3, [r7, #0]
 8005dc4:	f04f 30ff 	mov.w	r0, #4294967295
 8005dc8:	e0d1      	b.n	8005f6e <_svfiprintf_r+0x1d2>
 8005dca:	2340      	movs	r3, #64	; 0x40
 8005dcc:	616b      	str	r3, [r5, #20]
 8005dce:	2300      	movs	r3, #0
 8005dd0:	9309      	str	r3, [sp, #36]	; 0x24
 8005dd2:	2320      	movs	r3, #32
 8005dd4:	f88d 3029 	strb.w	r3, [sp, #41]	; 0x29
 8005dd8:	f8cd 800c 	str.w	r8, [sp, #12]
 8005ddc:	2330      	movs	r3, #48	; 0x30
 8005dde:	f8df 81a8 	ldr.w	r8, [pc, #424]	; 8005f88 <_svfiprintf_r+0x1ec>
 8005de2:	f88d 302a 	strb.w	r3, [sp, #42]	; 0x2a
 8005de6:	f04f 0901 	mov.w	r9, #1
 8005dea:	4623      	mov	r3, r4
 8005dec:	469a      	mov	sl, r3
 8005dee:	f813 2b01 	ldrb.w	r2, [r3], #1
 8005df2:	b10a      	cbz	r2, 8005df8 <_svfiprintf_r+0x5c>
 8005df4:	2a25      	cmp	r2, #37	; 0x25
 8005df6:	d1f9      	bne.n	8005dec <_svfiprintf_r+0x50>
 8005df8:	ebba 0b04 	subs.w	fp, sl, r4
 8005dfc:	d00b      	beq.n	8005e16 <_svfiprintf_r+0x7a>
 8005dfe:	465b      	mov	r3, fp
 8005e00:	4622      	mov	r2, r4
 8005e02:	4629      	mov	r1, r5
 8005e04:	4638      	mov	r0, r7
 8005e06:	f7ff ff6d 	bl	8005ce4 <__ssputs_r>
 8005e0a:	3001      	adds	r0, #1
 8005e0c:	f000 80aa 	beq.w	8005f64 <_svfiprintf_r+0x1c8>
 8005e10:	9a09      	ldr	r2, [sp, #36]	; 0x24
 8005e12:	445a      	add	r2, fp
 8005e14:	9209      	str	r2, [sp, #36]	; 0x24
 8005e16:	f89a 3000 	ldrb.w	r3, [sl]
 8005e1a:	2b00      	cmp	r3, #0
 8005e1c:	f000 80a2 	beq.w	8005f64 <_svfiprintf_r+0x1c8>
 8005e20:	2300      	movs	r3, #0
 8005e22:	f04f 32ff 	mov.w	r2, #4294967295
 8005e26:	e9cd 2305 	strd	r2, r3, [sp, #20]
 8005e2a:	f10a 0a01 	add.w	sl, sl, #1
 8005e2e:	9304      	str	r3, [sp, #16]
 8005e30:	9307      	str	r3, [sp, #28]
 8005e32:	f88d 3053 	strb.w	r3, [sp, #83]	; 0x53
 8005e36:	931a      	str	r3, [sp, #104]	; 0x68
 8005e38:	4654      	mov	r4, sl
 8005e3a:	2205      	movs	r2, #5
 8005e3c:	f814 1b01 	ldrb.w	r1, [r4], #1
 8005e40:	4851      	ldr	r0, [pc, #324]	; (8005f88 <_svfiprintf_r+0x1ec>)
 8005e42:	f7fa f9d5 	bl	80001f0 <memchr>
 8005e46:	9a04      	ldr	r2, [sp, #16]
 8005e48:	b9d8      	cbnz	r0, 8005e82 <_svfiprintf_r+0xe6>
 8005e4a:	06d0      	lsls	r0, r2, #27
 8005e4c:	bf44      	itt	mi
 8005e4e:	2320      	movmi	r3, #32
 8005e50:	f88d 3053 	strbmi.w	r3, [sp, #83]	; 0x53
 8005e54:	0711      	lsls	r1, r2, #28
 8005e56:	bf44      	itt	mi
 8005e58:	232b      	movmi	r3, #43	; 0x2b
 8005e5a:	f88d 3053 	strbmi.w	r3, [sp, #83]	; 0x53
 8005e5e:	f89a 3000 	ldrb.w	r3, [sl]
 8005e62:	2b2a      	cmp	r3, #42	; 0x2a
 8005e64:	d015      	beq.n	8005e92 <_svfiprintf_r+0xf6>
 8005e66:	9a07      	ldr	r2, [sp, #28]
 8005e68:	4654      	mov	r4, sl
 8005e6a:	2000      	movs	r0, #0
 8005e6c:	f04f 0c0a 	mov.w	ip, #10
 8005e70:	4621      	mov	r1, r4
 8005e72:	f811 3b01 	ldrb.w	r3, [r1], #1
 8005e76:	3b30      	subs	r3, #48	; 0x30
 8005e78:	2b09      	cmp	r3, #9
 8005e7a:	d94e      	bls.n	8005f1a <_svfiprintf_r+0x17e>
 8005e7c:	b1b0      	cbz	r0, 8005eac <_svfiprintf_r+0x110>
 8005e7e:	9207      	str	r2, [sp, #28]
 8005e80:	e014      	b.n	8005eac <_svfiprintf_r+0x110>
 8005e82:	eba0 0308 	sub.w	r3, r0, r8
 8005e86:	fa09 f303 	lsl.w	r3, r9, r3
 8005e8a:	4313      	orrs	r3, r2
 8005e8c:	9304      	str	r3, [sp, #16]
 8005e8e:	46a2      	mov	sl, r4
 8005e90:	e7d2      	b.n	8005e38 <_svfiprintf_r+0x9c>
 8005e92:	9b03      	ldr	r3, [sp, #12]
 8005e94:	1d19      	adds	r1, r3, #4
 8005e96:	681b      	ldr	r3, [r3, #0]
 8005e98:	9103      	str	r1, [sp, #12]
 8005e9a:	2b00      	cmp	r3, #0
 8005e9c:	bfbb      	ittet	lt
 8005e9e:	425b      	neglt	r3, r3
 8005ea0:	f042 0202 	orrlt.w	r2, r2, #2
 8005ea4:	9307      	strge	r3, [sp, #28]
 8005ea6:	9307      	strlt	r3, [sp, #28]
 8005ea8:	bfb8      	it	lt
 8005eaa:	9204      	strlt	r2, [sp, #16]
 8005eac:	7823      	ldrb	r3, [r4, #0]
 8005eae:	2b2e      	cmp	r3, #46	; 0x2e
 8005eb0:	d10c      	bne.n	8005ecc <_svfiprintf_r+0x130>
 8005eb2:	7863      	ldrb	r3, [r4, #1]
 8005eb4:	2b2a      	cmp	r3, #42	; 0x2a
 8005eb6:	d135      	bne.n	8005f24 <_svfiprintf_r+0x188>
 8005eb8:	9b03      	ldr	r3, [sp, #12]
 8005eba:	1d1a      	adds	r2, r3, #4
 8005ebc:	681b      	ldr	r3, [r3, #0]
 8005ebe:	9203      	str	r2, [sp, #12]
 8005ec0:	2b00      	cmp	r3, #0
 8005ec2:	bfb8      	it	lt
 8005ec4:	f04f 33ff 	movlt.w	r3, #4294967295
 8005ec8:	3402      	adds	r4, #2
 8005eca:	9305      	str	r3, [sp, #20]
 8005ecc:	f8df a0c8 	ldr.w	sl, [pc, #200]	; 8005f98 <_svfiprintf_r+0x1fc>
 8005ed0:	7821      	ldrb	r1, [r4, #0]
 8005ed2:	2203      	movs	r2, #3
 8005ed4:	4650      	mov	r0, sl
 8005ed6:	f7fa f98b 	bl	80001f0 <memchr>
 8005eda:	b140      	cbz	r0, 8005eee <_svfiprintf_r+0x152>
 8005edc:	2340      	movs	r3, #64	; 0x40
 8005ede:	eba0 000a 	sub.w	r0, r0, sl
 8005ee2:	fa03 f000 	lsl.w	r0, r3, r0
 8005ee6:	9b04      	ldr	r3, [sp, #16]
 8005ee8:	4303      	orrs	r3, r0
 8005eea:	3401      	adds	r4, #1
 8005eec:	9304      	str	r3, [sp, #16]
 8005eee:	f814 1b01 	ldrb.w	r1, [r4], #1
 8005ef2:	4826      	ldr	r0, [pc, #152]	; (8005f8c <_svfiprintf_r+0x1f0>)
 8005ef4:	f88d 1028 	strb.w	r1, [sp, #40]	; 0x28
 8005ef8:	2206      	movs	r2, #6
 8005efa:	f7fa f979 	bl	80001f0 <memchr>
 8005efe:	2800      	cmp	r0, #0
 8005f00:	d038      	beq.n	8005f74 <_svfiprintf_r+0x1d8>
 8005f02:	4b23      	ldr	r3, [pc, #140]	; (8005f90 <_svfiprintf_r+0x1f4>)
 8005f04:	bb1b      	cbnz	r3, 8005f4e <_svfiprintf_r+0x1b2>
 8005f06:	9b03      	ldr	r3, [sp, #12]
 8005f08:	3307      	adds	r3, #7
 8005f0a:	f023 0307 	bic.w	r3, r3, #7
 8005f0e:	3308      	adds	r3, #8
 8005f10:	9303      	str	r3, [sp, #12]
 8005f12:	9b09      	ldr	r3, [sp, #36]	; 0x24
 8005f14:	4433      	add	r3, r6
 8005f16:	9309      	str	r3, [sp, #36]	; 0x24
 8005f18:	e767      	b.n	8005dea <_svfiprintf_r+0x4e>
 8005f1a:	fb0c 3202 	mla	r2, ip, r2, r3
 8005f1e:	460c      	mov	r4, r1
 8005f20:	2001      	movs	r0, #1
 8005f22:	e7a5      	b.n	8005e70 <_svfiprintf_r+0xd4>
 8005f24:	2300      	movs	r3, #0
 8005f26:	3401      	adds	r4, #1
 8005f28:	9305      	str	r3, [sp, #20]
 8005f2a:	4619      	mov	r1, r3
 8005f2c:	f04f 0c0a 	mov.w	ip, #10
 8005f30:	4620      	mov	r0, r4
 8005f32:	f810 2b01 	ldrb.w	r2, [r0], #1
 8005f36:	3a30      	subs	r2, #48	; 0x30
 8005f38:	2a09      	cmp	r2, #9
 8005f3a:	d903      	bls.n	8005f44 <_svfiprintf_r+0x1a8>
 8005f3c:	2b00      	cmp	r3, #0
 8005f3e:	d0c5      	beq.n	8005ecc <_svfiprintf_r+0x130>
 8005f40:	9105      	str	r1, [sp, #20]
 8005f42:	e7c3      	b.n	8005ecc <_svfiprintf_r+0x130>
 8005f44:	fb0c 2101 	mla	r1, ip, r1, r2
 8005f48:	4604      	mov	r4, r0
 8005f4a:	2301      	movs	r3, #1
 8005f4c:	e7f0      	b.n	8005f30 <_svfiprintf_r+0x194>
 8005f4e:	ab03      	add	r3, sp, #12
 8005f50:	9300      	str	r3, [sp, #0]
 8005f52:	462a      	mov	r2, r5
 8005f54:	4b0f      	ldr	r3, [pc, #60]	; (8005f94 <_svfiprintf_r+0x1f8>)
 8005f56:	a904      	add	r1, sp, #16
 8005f58:	4638      	mov	r0, r7
 8005f5a:	f3af 8000 	nop.w
 8005f5e:	1c42      	adds	r2, r0, #1
 8005f60:	4606      	mov	r6, r0
 8005f62:	d1d6      	bne.n	8005f12 <_svfiprintf_r+0x176>
 8005f64:	89ab      	ldrh	r3, [r5, #12]
 8005f66:	065b      	lsls	r3, r3, #25
 8005f68:	f53f af2c 	bmi.w	8005dc4 <_svfiprintf_r+0x28>
 8005f6c:	9809      	ldr	r0, [sp, #36]	; 0x24
 8005f6e:	b01d      	add	sp, #116	; 0x74
 8005f70:	e8bd 8ff0 	ldmia.w	sp!, {r4, r5, r6, r7, r8, r9, sl, fp, pc}
 8005f74:	ab03      	add	r3, sp, #12
 8005f76:	9300      	str	r3, [sp, #0]
 8005f78:	462a      	mov	r2, r5
 8005f7a:	4b06      	ldr	r3, [pc, #24]	; (8005f94 <_svfiprintf_r+0x1f8>)
 8005f7c:	a904      	add	r1, sp, #16
 8005f7e:	4638      	mov	r0, r7
 8005f80:	f000 f87a 	bl	8006078 <_printf_i>
 8005f84:	e7eb      	b.n	8005f5e <_svfiprintf_r+0x1c2>
 8005f86:	bf00      	nop
 8005f88:	08006658 	.word	0x08006658
 8005f8c:	08006662 	.word	0x08006662
 8005f90:	00000000 	.word	0x00000000
 8005f94:	08005ce5 	.word	0x08005ce5
 8005f98:	0800665e 	.word	0x0800665e

08005f9c <_printf_common>:
 8005f9c:	e92d 47f0 	stmdb	sp!, {r4, r5, r6, r7, r8, r9, sl, lr}
 8005fa0:	4616      	mov	r6, r2
 8005fa2:	4699      	mov	r9, r3
 8005fa4:	688a      	ldr	r2, [r1, #8]
 8005fa6:	690b      	ldr	r3, [r1, #16]
 8005fa8:	f8dd 8020 	ldr.w	r8, [sp, #32]
 8005fac:	4293      	cmp	r3, r2
 8005fae:	bfb8      	it	lt
 8005fb0:	4613      	movlt	r3, r2
 8005fb2:	6033      	str	r3, [r6, #0]
 8005fb4:	f891 2043 	ldrb.w	r2, [r1, #67]	; 0x43
 8005fb8:	4607      	mov	r7, r0
 8005fba:	460c      	mov	r4, r1
 8005fbc:	b10a      	cbz	r2, 8005fc2 <_printf_common+0x26>
 8005fbe:	3301      	adds	r3, #1
 8005fc0:	6033      	str	r3, [r6, #0]
 8005fc2:	6823      	ldr	r3, [r4, #0]
 8005fc4:	0699      	lsls	r1, r3, #26
 8005fc6:	bf42      	ittt	mi
 8005fc8:	6833      	ldrmi	r3, [r6, #0]
 8005fca:	3302      	addmi	r3, #2
 8005fcc:	6033      	strmi	r3, [r6, #0]
 8005fce:	6825      	ldr	r5, [r4, #0]
 8005fd0:	f015 0506 	ands.w	r5, r5, #6
 8005fd4:	d106      	bne.n	8005fe4 <_printf_common+0x48>
 8005fd6:	f104 0a19 	add.w	sl, r4, #25
 8005fda:	68e3      	ldr	r3, [r4, #12]
 8005fdc:	6832      	ldr	r2, [r6, #0]
 8005fde:	1a9b      	subs	r3, r3, r2
 8005fe0:	42ab      	cmp	r3, r5
 8005fe2:	dc26      	bgt.n	8006032 <_printf_common+0x96>
 8005fe4:	f894 2043 	ldrb.w	r2, [r4, #67]	; 0x43
 8005fe8:	1e13      	subs	r3, r2, #0
 8005fea:	6822      	ldr	r2, [r4, #0]
 8005fec:	bf18      	it	ne
 8005fee:	2301      	movne	r3, #1
 8005ff0:	0692      	lsls	r2, r2, #26
 8005ff2:	d42b      	bmi.n	800604c <_printf_common+0xb0>
 8005ff4:	f104 0243 	add.w	r2, r4, #67	; 0x43
 8005ff8:	4649      	mov	r1, r9
 8005ffa:	4638      	mov	r0, r7
 8005ffc:	47c0      	blx	r8
 8005ffe:	3001      	adds	r0, #1
 8006000:	d01e      	beq.n	8006040 <_printf_common+0xa4>
 8006002:	6823      	ldr	r3, [r4, #0]
 8006004:	68e5      	ldr	r5, [r4, #12]
 8006006:	6832      	ldr	r2, [r6, #0]
 8006008:	f003 0306 	and.w	r3, r3, #6
 800600c:	2b04      	cmp	r3, #4
 800600e:	bf08      	it	eq
 8006010:	1aad      	subeq	r5, r5, r2
 8006012:	68a3      	ldr	r3, [r4, #8]
 8006014:	6922      	ldr	r2, [r4, #16]
 8006016:	bf0c      	ite	eq
 8006018:	ea25 75e5 	biceq.w	r5, r5, r5, asr #31
 800601c:	2500      	movne	r5, #0
 800601e:	4293      	cmp	r3, r2
 8006020:	bfc4      	itt	gt
 8006022:	1a9b      	subgt	r3, r3, r2
 8006024:	18ed      	addgt	r5, r5, r3
 8006026:	2600      	movs	r6, #0
 8006028:	341a      	adds	r4, #26
 800602a:	42b5      	cmp	r5, r6
 800602c:	d11a      	bne.n	8006064 <_printf_common+0xc8>
 800602e:	2000      	movs	r0, #0
 8006030:	e008      	b.n	8006044 <_printf_common+0xa8>
 8006032:	2301      	movs	r3, #1
 8006034:	4652      	mov	r2, sl
 8006036:	4649      	mov	r1, r9
 8006038:	4638      	mov	r0, r7
 800603a:	47c0      	blx	r8
 800603c:	3001      	adds	r0, #1
 800603e:	d103      	bne.n	8006048 <_printf_common+0xac>
 8006040:	f04f 30ff 	mov.w	r0, #4294967295
 8006044:	e8bd 87f0 	ldmia.w	sp!, {r4, r5, r6, r7, r8, r9, sl, pc}
 8006048:	3501      	adds	r5, #1
 800604a:	e7c6      	b.n	8005fda <_printf_common+0x3e>
 800604c:	18e1      	adds	r1, r4, r3
 800604e:	1c5a      	adds	r2, r3, #1
 8006050:	2030      	movs	r0, #48	; 0x30
 8006052:	f881 0043 	strb.w	r0, [r1, #67]	; 0x43
 8006056:	4422      	add	r2, r4
 8006058:	f894 1045 	ldrb.w	r1, [r4, #69]	; 0x45
 800605c:	f882 1043 	strb.w	r1, [r2, #67]	; 0x43
 8006060:	3302      	adds	r3, #2
 8006062:	e7c7      	b.n	8005ff4 <_printf_common+0x58>
 8006064:	2301      	movs	r3, #1
 8006066:	4622      	mov	r2, r4
 8006068:	4649      	mov	r1, r9
 800606a:	4638      	mov	r0, r7
 800606c:	47c0      	blx	r8
 800606e:	3001      	adds	r0, #1
 8006070:	d0e6      	beq.n	8006040 <_printf_common+0xa4>
 8006072:	3601      	adds	r6, #1
 8006074:	e7d9      	b.n	800602a <_printf_common+0x8e>
	...

08006078 <_printf_i>:
 8006078:	e92d 47ff 	stmdb	sp!, {r0, r1, r2, r3, r4, r5, r6, r7, r8, r9, sl, lr}
 800607c:	7e0f      	ldrb	r7, [r1, #24]
 800607e:	9d0c      	ldr	r5, [sp, #48]	; 0x30
 8006080:	2f78      	cmp	r7, #120	; 0x78
 8006082:	4691      	mov	r9, r2
 8006084:	4680      	mov	r8, r0
 8006086:	460c      	mov	r4, r1
 8006088:	469a      	mov	sl, r3
 800608a:	f101 0243 	add.w	r2, r1, #67	; 0x43
 800608e:	d807      	bhi.n	80060a0 <_printf_i+0x28>
 8006090:	2f62      	cmp	r7, #98	; 0x62
 8006092:	d80a      	bhi.n	80060aa <_printf_i+0x32>
 8006094:	2f00      	cmp	r7, #0
 8006096:	f000 80d8 	beq.w	800624a <_printf_i+0x1d2>
 800609a:	2f58      	cmp	r7, #88	; 0x58
 800609c:	f000 80a3 	beq.w	80061e6 <_printf_i+0x16e>
 80060a0:	f104 0542 	add.w	r5, r4, #66	; 0x42
 80060a4:	f884 7042 	strb.w	r7, [r4, #66]	; 0x42
 80060a8:	e03a      	b.n	8006120 <_printf_i+0xa8>
 80060aa:	f1a7 0363 	sub.w	r3, r7, #99	; 0x63
 80060ae:	2b15      	cmp	r3, #21
 80060b0:	d8f6      	bhi.n	80060a0 <_printf_i+0x28>
 80060b2:	a101      	add	r1, pc, #4	; (adr r1, 80060b8 <_printf_i+0x40>)
 80060b4:	f851 f023 	ldr.w	pc, [r1, r3, lsl #2]
 80060b8:	08006111 	.word	0x08006111
 80060bc:	08006125 	.word	0x08006125
 80060c0:	080060a1 	.word	0x080060a1
 80060c4:	080060a1 	.word	0x080060a1
 80060c8:	080060a1 	.word	0x080060a1
 80060cc:	080060a1 	.word	0x080060a1
 80060d0:	08006125 	.word	0x08006125
 80060d4:	080060a1 	.word	0x080060a1
 80060d8:	080060a1 	.word	0x080060a1
 80060dc:	080060a1 	.word	0x080060a1
 80060e0:	080060a1 	.word	0x080060a1
 80060e4:	08006231 	.word	0x08006231
 80060e8:	08006155 	.word	0x08006155
 80060ec:	08006213 	.word	0x08006213
 80060f0:	080060a1 	.word	0x080060a1
 80060f4:	080060a1 	.word	0x080060a1
 80060f8:	08006253 	.word	0x08006253
 80060fc:	080060a1 	.word	0x080060a1
 8006100:	08006155 	.word	0x08006155
 8006104:	080060a1 	.word	0x080060a1
 8006108:	080060a1 	.word	0x080060a1
 800610c:	0800621b 	.word	0x0800621b
 8006110:	682b      	ldr	r3, [r5, #0]
 8006112:	1d1a      	adds	r2, r3, #4
 8006114:	681b      	ldr	r3, [r3, #0]
 8006116:	602a      	str	r2, [r5, #0]
 8006118:	f104 0542 	add.w	r5, r4, #66	; 0x42
 800611c:	f884 3042 	strb.w	r3, [r4, #66]	; 0x42
 8006120:	2301      	movs	r3, #1
 8006122:	e0a3      	b.n	800626c <_printf_i+0x1f4>
 8006124:	6820      	ldr	r0, [r4, #0]
 8006126:	6829      	ldr	r1, [r5, #0]
 8006128:	0606      	lsls	r6, r0, #24
 800612a:	f101 0304 	add.w	r3, r1, #4
 800612e:	d50a      	bpl.n	8006146 <_printf_i+0xce>
 8006130:	680e      	ldr	r6, [r1, #0]
 8006132:	602b      	str	r3, [r5, #0]
 8006134:	2e00      	cmp	r6, #0
 8006136:	da03      	bge.n	8006140 <_printf_i+0xc8>
 8006138:	232d      	movs	r3, #45	; 0x2d
 800613a:	4276      	negs	r6, r6
 800613c:	f884 3043 	strb.w	r3, [r4, #67]	; 0x43
 8006140:	485e      	ldr	r0, [pc, #376]	; (80062bc <_printf_i+0x244>)
 8006142:	230a      	movs	r3, #10
 8006144:	e019      	b.n	800617a <_printf_i+0x102>
 8006146:	680e      	ldr	r6, [r1, #0]
 8006148:	602b      	str	r3, [r5, #0]
 800614a:	f010 0f40 	tst.w	r0, #64	; 0x40
 800614e:	bf18      	it	ne
 8006150:	b236      	sxthne	r6, r6
 8006152:	e7ef      	b.n	8006134 <_printf_i+0xbc>
 8006154:	682b      	ldr	r3, [r5, #0]
 8006156:	6820      	ldr	r0, [r4, #0]
 8006158:	1d19      	adds	r1, r3, #4
 800615a:	6029      	str	r1, [r5, #0]
 800615c:	0601      	lsls	r1, r0, #24
 800615e:	d501      	bpl.n	8006164 <_printf_i+0xec>
 8006160:	681e      	ldr	r6, [r3, #0]
 8006162:	e002      	b.n	800616a <_printf_i+0xf2>
 8006164:	0646      	lsls	r6, r0, #25
 8006166:	d5fb      	bpl.n	8006160 <_printf_i+0xe8>
 8006168:	881e      	ldrh	r6, [r3, #0]
 800616a:	4854      	ldr	r0, [pc, #336]	; (80062bc <_printf_i+0x244>)
 800616c:	2f6f      	cmp	r7, #111	; 0x6f
 800616e:	bf0c      	ite	eq
 8006170:	2308      	moveq	r3, #8
 8006172:	230a      	movne	r3, #10
 8006174:	2100      	movs	r1, #0
 8006176:	f884 1043 	strb.w	r1, [r4, #67]	; 0x43
 800617a:	6865      	ldr	r5, [r4, #4]
 800617c:	60a5      	str	r5, [r4, #8]
 800617e:	2d00      	cmp	r5, #0
 8006180:	bfa2      	ittt	ge
 8006182:	6821      	ldrge	r1, [r4, #0]
 8006184:	f021 0104 	bicge.w	r1, r1, #4
 8006188:	6021      	strge	r1, [r4, #0]
 800618a:	b90e      	cbnz	r6, 8006190 <_printf_i+0x118>
 800618c:	2d00      	cmp	r5, #0
 800618e:	d04d      	beq.n	800622c <_printf_i+0x1b4>
 8006190:	4615      	mov	r5, r2
 8006192:	fbb6 f1f3 	udiv	r1, r6, r3
 8006196:	fb03 6711 	mls	r7, r3, r1, r6
 800619a:	5dc7      	ldrb	r7, [r0, r7]
 800619c:	f805 7d01 	strb.w	r7, [r5, #-1]!
 80061a0:	4637      	mov	r7, r6
 80061a2:	42bb      	cmp	r3, r7
 80061a4:	460e      	mov	r6, r1
 80061a6:	d9f4      	bls.n	8006192 <_printf_i+0x11a>
 80061a8:	2b08      	cmp	r3, #8
 80061aa:	d10b      	bne.n	80061c4 <_printf_i+0x14c>
 80061ac:	6823      	ldr	r3, [r4, #0]
 80061ae:	07de      	lsls	r6, r3, #31
 80061b0:	d508      	bpl.n	80061c4 <_printf_i+0x14c>
 80061b2:	6923      	ldr	r3, [r4, #16]
 80061b4:	6861      	ldr	r1, [r4, #4]
 80061b6:	4299      	cmp	r1, r3
 80061b8:	bfde      	ittt	le
 80061ba:	2330      	movle	r3, #48	; 0x30
 80061bc:	f805 3c01 	strble.w	r3, [r5, #-1]
 80061c0:	f105 35ff 	addle.w	r5, r5, #4294967295
 80061c4:	1b52      	subs	r2, r2, r5
 80061c6:	6122      	str	r2, [r4, #16]
 80061c8:	f8cd a000 	str.w	sl, [sp]
 80061cc:	464b      	mov	r3, r9
 80061ce:	aa03      	add	r2, sp, #12
 80061d0:	4621      	mov	r1, r4
 80061d2:	4640      	mov	r0, r8
 80061d4:	f7ff fee2 	bl	8005f9c <_printf_common>
 80061d8:	3001      	adds	r0, #1
 80061da:	d14c      	bne.n	8006276 <_printf_i+0x1fe>
 80061dc:	f04f 30ff 	mov.w	r0, #4294967295
 80061e0:	b004      	add	sp, #16
 80061e2:	e8bd 87f0 	ldmia.w	sp!, {r4, r5, r6, r7, r8, r9, sl, pc}
 80061e6:	4835      	ldr	r0, [pc, #212]	; (80062bc <_printf_i+0x244>)
 80061e8:	f881 7045 	strb.w	r7, [r1, #69]	; 0x45
 80061ec:	6829      	ldr	r1, [r5, #0]
 80061ee:	6823      	ldr	r3, [r4, #0]
 80061f0:	f851 6b04 	ldr.w	r6, [r1], #4
 80061f4:	6029      	str	r1, [r5, #0]
 80061f6:	061d      	lsls	r5, r3, #24
 80061f8:	d514      	bpl.n	8006224 <_printf_i+0x1ac>
 80061fa:	07df      	lsls	r7, r3, #31
 80061fc:	bf44      	itt	mi
 80061fe:	f043 0320 	orrmi.w	r3, r3, #32
 8006202:	6023      	strmi	r3, [r4, #0]
 8006204:	b91e      	cbnz	r6, 800620e <_printf_i+0x196>
 8006206:	6823      	ldr	r3, [r4, #0]
 8006208:	f023 0320 	bic.w	r3, r3, #32
 800620c:	6023      	str	r3, [r4, #0]
 800620e:	2310      	movs	r3, #16
 8006210:	e7b0      	b.n	8006174 <_printf_i+0xfc>
 8006212:	6823      	ldr	r3, [r4, #0]
 8006214:	f043 0320 	orr.w	r3, r3, #32
 8006218:	6023      	str	r3, [r4, #0]
 800621a:	2378      	movs	r3, #120	; 0x78
 800621c:	4828      	ldr	r0, [pc, #160]	; (80062c0 <_printf_i+0x248>)
 800621e:	f884 3045 	strb.w	r3, [r4, #69]	; 0x45
 8006222:	e7e3      	b.n	80061ec <_printf_i+0x174>
 8006224:	0659      	lsls	r1, r3, #25
 8006226:	bf48      	it	mi
 8006228:	b2b6      	uxthmi	r6, r6
 800622a:	e7e6      	b.n	80061fa <_printf_i+0x182>
 800622c:	4615      	mov	r5, r2
 800622e:	e7bb      	b.n	80061a8 <_printf_i+0x130>
 8006230:	682b      	ldr	r3, [r5, #0]
 8006232:	6826      	ldr	r6, [r4, #0]
 8006234:	6961      	ldr	r1, [r4, #20]
 8006236:	1d18      	adds	r0, r3, #4
 8006238:	6028      	str	r0, [r5, #0]
 800623a:	0635      	lsls	r5, r6, #24
 800623c:	681b      	ldr	r3, [r3, #0]
 800623e:	d501      	bpl.n	8006244 <_printf_i+0x1cc>
 8006240:	6019      	str	r1, [r3, #0]
 8006242:	e002      	b.n	800624a <_printf_i+0x1d2>
 8006244:	0670      	lsls	r0, r6, #25
 8006246:	d5fb      	bpl.n	8006240 <_printf_i+0x1c8>
 8006248:	8019      	strh	r1, [r3, #0]
 800624a:	2300      	movs	r3, #0
 800624c:	6123      	str	r3, [r4, #16]
 800624e:	4615      	mov	r5, r2
 8006250:	e7ba      	b.n	80061c8 <_printf_i+0x150>
 8006252:	682b      	ldr	r3, [r5, #0]
 8006254:	1d1a      	adds	r2, r3, #4
 8006256:	602a      	str	r2, [r5, #0]
 8006258:	681d      	ldr	r5, [r3, #0]
 800625a:	6862      	ldr	r2, [r4, #4]
 800625c:	2100      	movs	r1, #0
 800625e:	4628      	mov	r0, r5
 8006260:	f7f9 ffc6 	bl	80001f0 <memchr>
 8006264:	b108      	cbz	r0, 800626a <_printf_i+0x1f2>
 8006266:	1b40      	subs	r0, r0, r5
 8006268:	6060      	str	r0, [r4, #4]
 800626a:	6863      	ldr	r3, [r4, #4]
 800626c:	6123      	str	r3, [r4, #16]
 800626e:	2300      	movs	r3, #0
 8006270:	f884 3043 	strb.w	r3, [r4, #67]	; 0x43
 8006274:	e7a8      	b.n	80061c8 <_printf_i+0x150>
 8006276:	6923      	ldr	r3, [r4, #16]
 8006278:	462a      	mov	r2, r5
 800627a:	4649      	mov	r1, r9
 800627c:	4640      	mov	r0, r8
 800627e:	47d0      	blx	sl
 8006280:	3001      	adds	r0, #1
 8006282:	d0ab      	beq.n	80061dc <_printf_i+0x164>
 8006284:	6823      	ldr	r3, [r4, #0]
 8006286:	079b      	lsls	r3, r3, #30
 8006288:	d413      	bmi.n	80062b2 <_printf_i+0x23a>
 800628a:	68e0      	ldr	r0, [r4, #12]
 800628c:	9b03      	ldr	r3, [sp, #12]
 800628e:	4298      	cmp	r0, r3
 8006290:	bfb8      	it	lt
 8006292:	4618      	movlt	r0, r3
 8006294:	e7a4      	b.n	80061e0 <_printf_i+0x168>
 8006296:	2301      	movs	r3, #1
 8006298:	4632      	mov	r2, r6
 800629a:	4649      	mov	r1, r9
 800629c:	4640      	mov	r0, r8
 800629e:	47d0      	blx	sl
 80062a0:	3001      	adds	r0, #1
 80062a2:	d09b      	beq.n	80061dc <_printf_i+0x164>
 80062a4:	3501      	adds	r5, #1
 80062a6:	68e3      	ldr	r3, [r4, #12]
 80062a8:	9903      	ldr	r1, [sp, #12]
 80062aa:	1a5b      	subs	r3, r3, r1
 80062ac:	42ab      	cmp	r3, r5
 80062ae:	dcf2      	bgt.n	8006296 <_printf_i+0x21e>
 80062b0:	e7eb      	b.n	800628a <_printf_i+0x212>
 80062b2:	2500      	movs	r5, #0
 80062b4:	f104 0619 	add.w	r6, r4, #25
 80062b8:	e7f5      	b.n	80062a6 <_printf_i+0x22e>
 80062ba:	bf00      	nop
 80062bc:	08006669 	.word	0x08006669
 80062c0:	0800667a 	.word	0x0800667a

080062c4 <memmove>:
 80062c4:	4288      	cmp	r0, r1
 80062c6:	b510      	push	{r4, lr}
 80062c8:	eb01 0402 	add.w	r4, r1, r2
 80062cc:	d902      	bls.n	80062d4 <memmove+0x10>
 80062ce:	4284      	cmp	r4, r0
 80062d0:	4623      	mov	r3, r4
 80062d2:	d807      	bhi.n	80062e4 <memmove+0x20>
 80062d4:	1e43      	subs	r3, r0, #1
 80062d6:	42a1      	cmp	r1, r4
 80062d8:	d008      	beq.n	80062ec <memmove+0x28>
 80062da:	f811 2b01 	ldrb.w	r2, [r1], #1
 80062de:	f803 2f01 	strb.w	r2, [r3, #1]!
 80062e2:	e7f8      	b.n	80062d6 <memmove+0x12>
 80062e4:	4402      	add	r2, r0
 80062e6:	4601      	mov	r1, r0
 80062e8:	428a      	cmp	r2, r1
 80062ea:	d100      	bne.n	80062ee <memmove+0x2a>
 80062ec:	bd10      	pop	{r4, pc}
 80062ee:	f813 4d01 	ldrb.w	r4, [r3, #-1]!
 80062f2:	f802 4d01 	strb.w	r4, [r2, #-1]!
 80062f6:	e7f7      	b.n	80062e8 <memmove+0x24>

080062f8 <_free_r>:
 80062f8:	b537      	push	{r0, r1, r2, r4, r5, lr}
 80062fa:	2900      	cmp	r1, #0
 80062fc:	d044      	beq.n	8006388 <_free_r+0x90>
 80062fe:	f851 3c04 	ldr.w	r3, [r1, #-4]
 8006302:	9001      	str	r0, [sp, #4]
 8006304:	2b00      	cmp	r3, #0
 8006306:	f1a1 0404 	sub.w	r4, r1, #4
 800630a:	bfb8      	it	lt
 800630c:	18e4      	addlt	r4, r4, r3
 800630e:	f000 f913 	bl	8006538 <__malloc_lock>
 8006312:	4a1e      	ldr	r2, [pc, #120]	; (800638c <_free_r+0x94>)
 8006314:	9801      	ldr	r0, [sp, #4]
 8006316:	6813      	ldr	r3, [r2, #0]
 8006318:	b933      	cbnz	r3, 8006328 <_free_r+0x30>
 800631a:	6063      	str	r3, [r4, #4]
 800631c:	6014      	str	r4, [r2, #0]
 800631e:	b003      	add	sp, #12
 8006320:	e8bd 4030 	ldmia.w	sp!, {r4, r5, lr}
 8006324:	f000 b90e 	b.w	8006544 <__malloc_unlock>
 8006328:	42a3      	cmp	r3, r4
 800632a:	d908      	bls.n	800633e <_free_r+0x46>
 800632c:	6825      	ldr	r5, [r4, #0]
 800632e:	1961      	adds	r1, r4, r5
 8006330:	428b      	cmp	r3, r1
 8006332:	bf01      	itttt	eq
 8006334:	6819      	ldreq	r1, [r3, #0]
 8006336:	685b      	ldreq	r3, [r3, #4]
 8006338:	1949      	addeq	r1, r1, r5
 800633a:	6021      	streq	r1, [r4, #0]
 800633c:	e7ed      	b.n	800631a <_free_r+0x22>
 800633e:	461a      	mov	r2, r3
 8006340:	685b      	ldr	r3, [r3, #4]
 8006342:	b10b      	cbz	r3, 8006348 <_free_r+0x50>
 8006344:	42a3      	cmp	r3, r4
 8006346:	d9fa      	bls.n	800633e <_free_r+0x46>
 8006348:	6811      	ldr	r1, [r2, #0]
 800634a:	1855      	adds	r5, r2, r1
 800634c:	42a5      	cmp	r5, r4
 800634e:	d10b      	bne.n	8006368 <_free_r+0x70>
 8006350:	6824      	ldr	r4, [r4, #0]
 8006352:	4421      	add	r1, r4
 8006354:	1854      	adds	r4, r2, r1
 8006356:	42a3      	cmp	r3, r4
 8006358:	6011      	str	r1, [r2, #0]
 800635a:	d1e0      	bne.n	800631e <_free_r+0x26>
 800635c:	681c      	ldr	r4, [r3, #0]
 800635e:	685b      	ldr	r3, [r3, #4]
 8006360:	6053      	str	r3, [r2, #4]
 8006362:	4421      	add	r1, r4
 8006364:	6011      	str	r1, [r2, #0]
 8006366:	e7da      	b.n	800631e <_free_r+0x26>
 8006368:	d902      	bls.n	8006370 <_free_r+0x78>
 800636a:	230c      	movs	r3, #12
 800636c:	6003      	str	r3, [r0, #0]
 800636e:	e7d6      	b.n	800631e <_free_r+0x26>
 8006370:	6825      	ldr	r5, [r4, #0]
 8006372:	1961      	adds	r1, r4, r5
 8006374:	428b      	cmp	r3, r1
 8006376:	bf04      	itt	eq
 8006378:	6819      	ldreq	r1, [r3, #0]
 800637a:	685b      	ldreq	r3, [r3, #4]
 800637c:	6063      	str	r3, [r4, #4]
 800637e:	bf04      	itt	eq
 8006380:	1949      	addeq	r1, r1, r5
 8006382:	6021      	streq	r1, [r4, #0]
 8006384:	6054      	str	r4, [r2, #4]
 8006386:	e7ca      	b.n	800631e <_free_r+0x26>
 8006388:	b003      	add	sp, #12
 800638a:	bd30      	pop	{r4, r5, pc}
 800638c:	20004bb8 	.word	0x20004bb8

08006390 <sbrk_aligned>:
 8006390:	b570      	push	{r4, r5, r6, lr}
 8006392:	4e0e      	ldr	r6, [pc, #56]	; (80063cc <sbrk_aligned+0x3c>)
 8006394:	460c      	mov	r4, r1
 8006396:	6831      	ldr	r1, [r6, #0]
 8006398:	4605      	mov	r5, r0
 800639a:	b911      	cbnz	r1, 80063a2 <sbrk_aligned+0x12>
 800639c:	f000 f8bc 	bl	8006518 <_sbrk_r>
 80063a0:	6030      	str	r0, [r6, #0]
 80063a2:	4621      	mov	r1, r4
 80063a4:	4628      	mov	r0, r5
 80063a6:	f000 f8b7 	bl	8006518 <_sbrk_r>
 80063aa:	1c43      	adds	r3, r0, #1
 80063ac:	d00a      	beq.n	80063c4 <sbrk_aligned+0x34>
 80063ae:	1cc4      	adds	r4, r0, #3
 80063b0:	f024 0403 	bic.w	r4, r4, #3
 80063b4:	42a0      	cmp	r0, r4
 80063b6:	d007      	beq.n	80063c8 <sbrk_aligned+0x38>
 80063b8:	1a21      	subs	r1, r4, r0
 80063ba:	4628      	mov	r0, r5
 80063bc:	f000 f8ac 	bl	8006518 <_sbrk_r>
 80063c0:	3001      	adds	r0, #1
 80063c2:	d101      	bne.n	80063c8 <sbrk_aligned+0x38>
 80063c4:	f04f 34ff 	mov.w	r4, #4294967295
 80063c8:	4620      	mov	r0, r4
 80063ca:	bd70      	pop	{r4, r5, r6, pc}
 80063cc:	20004bbc 	.word	0x20004bbc

080063d0 <_malloc_r>:
 80063d0:	e92d 41f0 	stmdb	sp!, {r4, r5, r6, r7, r8, lr}
 80063d4:	1ccd      	adds	r5, r1, #3
 80063d6:	f025 0503 	bic.w	r5, r5, #3
 80063da:	3508      	adds	r5, #8
 80063dc:	2d0c      	cmp	r5, #12
 80063de:	bf38      	it	cc
 80063e0:	250c      	movcc	r5, #12
 80063e2:	2d00      	cmp	r5, #0
 80063e4:	4607      	mov	r7, r0
 80063e6:	db01      	blt.n	80063ec <_malloc_r+0x1c>
 80063e8:	42a9      	cmp	r1, r5
 80063ea:	d905      	bls.n	80063f8 <_malloc_r+0x28>
 80063ec:	230c      	movs	r3, #12
 80063ee:	603b      	str	r3, [r7, #0]
 80063f0:	2600      	movs	r6, #0
 80063f2:	4630      	mov	r0, r6
 80063f4:	e8bd 81f0 	ldmia.w	sp!, {r4, r5, r6, r7, r8, pc}
 80063f8:	4e2e      	ldr	r6, [pc, #184]	; (80064b4 <_malloc_r+0xe4>)
 80063fa:	f000 f89d 	bl	8006538 <__malloc_lock>
 80063fe:	6833      	ldr	r3, [r6, #0]
 8006400:	461c      	mov	r4, r3
 8006402:	bb34      	cbnz	r4, 8006452 <_malloc_r+0x82>
 8006404:	4629      	mov	r1, r5
 8006406:	4638      	mov	r0, r7
 8006408:	f7ff ffc2 	bl	8006390 <sbrk_aligned>
 800640c:	1c43      	adds	r3, r0, #1
 800640e:	4604      	mov	r4, r0
 8006410:	d14d      	bne.n	80064ae <_malloc_r+0xde>
 8006412:	6834      	ldr	r4, [r6, #0]
 8006414:	4626      	mov	r6, r4
 8006416:	2e00      	cmp	r6, #0
 8006418:	d140      	bne.n	800649c <_malloc_r+0xcc>
 800641a:	6823      	ldr	r3, [r4, #0]
 800641c:	4631      	mov	r1, r6
 800641e:	4638      	mov	r0, r7
 8006420:	eb04 0803 	add.w	r8, r4, r3
 8006424:	f000 f878 	bl	8006518 <_sbrk_r>
 8006428:	4580      	cmp	r8, r0
 800642a:	d13a      	bne.n	80064a2 <_malloc_r+0xd2>
 800642c:	6821      	ldr	r1, [r4, #0]
 800642e:	3503      	adds	r5, #3
 8006430:	1a6d      	subs	r5, r5, r1
 8006432:	f025 0503 	bic.w	r5, r5, #3
 8006436:	3508      	adds	r5, #8
 8006438:	2d0c      	cmp	r5, #12
 800643a:	bf38      	it	cc
 800643c:	250c      	movcc	r5, #12
 800643e:	4629      	mov	r1, r5
 8006440:	4638      	mov	r0, r7
 8006442:	f7ff ffa5 	bl	8006390 <sbrk_aligned>
 8006446:	3001      	adds	r0, #1
 8006448:	d02b      	beq.n	80064a2 <_malloc_r+0xd2>
 800644a:	6823      	ldr	r3, [r4, #0]
 800644c:	442b      	add	r3, r5
 800644e:	6023      	str	r3, [r4, #0]
 8006450:	e00e      	b.n	8006470 <_malloc_r+0xa0>
 8006452:	6822      	ldr	r2, [r4, #0]
 8006454:	1b52      	subs	r2, r2, r5
 8006456:	d41e      	bmi.n	8006496 <_malloc_r+0xc6>
 8006458:	2a0b      	cmp	r2, #11
 800645a:	d916      	bls.n	800648a <_malloc_r+0xba>
 800645c:	1961      	adds	r1, r4, r5
 800645e:	42a3      	cmp	r3, r4
 8006460:	6025      	str	r5, [r4, #0]
 8006462:	bf18      	it	ne
 8006464:	6059      	strne	r1, [r3, #4]
 8006466:	6863      	ldr	r3, [r4, #4]
 8006468:	bf08      	it	eq
 800646a:	6031      	streq	r1, [r6, #0]
 800646c:	5162      	str	r2, [r4, r5]
 800646e:	604b      	str	r3, [r1, #4]
 8006470:	4638      	mov	r0, r7
 8006472:	f104 060b 	add.w	r6, r4, #11
 8006476:	f000 f865 	bl	8006544 <__malloc_unlock>
 800647a:	f026 0607 	bic.w	r6, r6, #7
 800647e:	1d23      	adds	r3, r4, #4
 8006480:	1af2      	subs	r2, r6, r3
 8006482:	d0b6      	beq.n	80063f2 <_malloc_r+0x22>
 8006484:	1b9b      	subs	r3, r3, r6
 8006486:	50a3      	str	r3, [r4, r2]
 8006488:	e7b3      	b.n	80063f2 <_malloc_r+0x22>
 800648a:	6862      	ldr	r2, [r4, #4]
 800648c:	42a3      	cmp	r3, r4
 800648e:	bf0c      	ite	eq
 8006490:	6032      	streq	r2, [r6, #0]
 8006492:	605a      	strne	r2, [r3, #4]
 8006494:	e7ec      	b.n	8006470 <_malloc_r+0xa0>
 8006496:	4623      	mov	r3, r4
 8006498:	6864      	ldr	r4, [r4, #4]
 800649a:	e7b2      	b.n	8006402 <_malloc_r+0x32>
 800649c:	4634      	mov	r4, r6
 800649e:	6876      	ldr	r6, [r6, #4]
 80064a0:	e7b9      	b.n	8006416 <_malloc_r+0x46>
 80064a2:	230c      	movs	r3, #12
 80064a4:	603b      	str	r3, [r7, #0]
 80064a6:	4638      	mov	r0, r7
 80064a8:	f000 f84c 	bl	8006544 <__malloc_unlock>
 80064ac:	e7a1      	b.n	80063f2 <_malloc_r+0x22>
 80064ae:	6025      	str	r5, [r4, #0]
 80064b0:	e7de      	b.n	8006470 <_malloc_r+0xa0>
 80064b2:	bf00      	nop
 80064b4:	20004bb8 	.word	0x20004bb8

080064b8 <_realloc_r>:
 80064b8:	e92d 41f0 	stmdb	sp!, {r4, r5, r6, r7, r8, lr}
 80064bc:	4680      	mov	r8, r0
 80064be:	4614      	mov	r4, r2
 80064c0:	460e      	mov	r6, r1
 80064c2:	b921      	cbnz	r1, 80064ce <_realloc_r+0x16>
 80064c4:	e8bd 41f0 	ldmia.w	sp!, {r4, r5, r6, r7, r8, lr}
 80064c8:	4611      	mov	r1, r2
 80064ca:	f7ff bf81 	b.w	80063d0 <_malloc_r>
 80064ce:	b92a      	cbnz	r2, 80064dc <_realloc_r+0x24>
 80064d0:	f7ff ff12 	bl	80062f8 <_free_r>
 80064d4:	4625      	mov	r5, r4
 80064d6:	4628      	mov	r0, r5
 80064d8:	e8bd 81f0 	ldmia.w	sp!, {r4, r5, r6, r7, r8, pc}
 80064dc:	f000 f838 	bl	8006550 <_malloc_usable_size_r>
 80064e0:	4284      	cmp	r4, r0
 80064e2:	4607      	mov	r7, r0
 80064e4:	d802      	bhi.n	80064ec <_realloc_r+0x34>
 80064e6:	ebb4 0f50 	cmp.w	r4, r0, lsr #1
 80064ea:	d812      	bhi.n	8006512 <_realloc_r+0x5a>
 80064ec:	4621      	mov	r1, r4
 80064ee:	4640      	mov	r0, r8
 80064f0:	f7ff ff6e 	bl	80063d0 <_malloc_r>
 80064f4:	4605      	mov	r5, r0
 80064f6:	2800      	cmp	r0, #0
 80064f8:	d0ed      	beq.n	80064d6 <_realloc_r+0x1e>
 80064fa:	42bc      	cmp	r4, r7
 80064fc:	4622      	mov	r2, r4
 80064fe:	4631      	mov	r1, r6
 8006500:	bf28      	it	cs
 8006502:	463a      	movcs	r2, r7
 8006504:	f7ff fba4 	bl	8005c50 <memcpy>
 8006508:	4631      	mov	r1, r6
 800650a:	4640      	mov	r0, r8
 800650c:	f7ff fef4 	bl	80062f8 <_free_r>
 8006510:	e7e1      	b.n	80064d6 <_realloc_r+0x1e>
 8006512:	4635      	mov	r5, r6
 8006514:	e7df      	b.n	80064d6 <_realloc_r+0x1e>
	...

08006518 <_sbrk_r>:
 8006518:	b538      	push	{r3, r4, r5, lr}
 800651a:	4d06      	ldr	r5, [pc, #24]	; (8006534 <_sbrk_r+0x1c>)
 800651c:	2300      	movs	r3, #0
 800651e:	4604      	mov	r4, r0
 8006520:	4608      	mov	r0, r1
 8006522:	602b      	str	r3, [r5, #0]
 8006524:	f7fa fd56 	bl	8000fd4 <_sbrk>
 8006528:	1c43      	adds	r3, r0, #1
 800652a:	d102      	bne.n	8006532 <_sbrk_r+0x1a>
 800652c:	682b      	ldr	r3, [r5, #0]
 800652e:	b103      	cbz	r3, 8006532 <_sbrk_r+0x1a>
 8006530:	6023      	str	r3, [r4, #0]
 8006532:	bd38      	pop	{r3, r4, r5, pc}
 8006534:	20004bc0 	.word	0x20004bc0

08006538 <__malloc_lock>:
 8006538:	4801      	ldr	r0, [pc, #4]	; (8006540 <__malloc_lock+0x8>)
 800653a:	f000 b811 	b.w	8006560 <__retarget_lock_acquire_recursive>
 800653e:	bf00      	nop
 8006540:	20004bc4 	.word	0x20004bc4

08006544 <__malloc_unlock>:
 8006544:	4801      	ldr	r0, [pc, #4]	; (800654c <__malloc_unlock+0x8>)
 8006546:	f000 b80c 	b.w	8006562 <__retarget_lock_release_recursive>
 800654a:	bf00      	nop
 800654c:	20004bc4 	.word	0x20004bc4

08006550 <_malloc_usable_size_r>:
 8006550:	f851 3c04 	ldr.w	r3, [r1, #-4]
 8006554:	1f18      	subs	r0, r3, #4
 8006556:	2b00      	cmp	r3, #0
 8006558:	bfbc      	itt	lt
 800655a:	580b      	ldrlt	r3, [r1, r0]
 800655c:	18c0      	addlt	r0, r0, r3
 800655e:	4770      	bx	lr

08006560 <__retarget_lock_acquire_recursive>:
 8006560:	4770      	bx	lr

08006562 <__retarget_lock_release_recursive>:
 8006562:	4770      	bx	lr

08006564 <_init>:
 8006564:	b5f8      	push	{r3, r4, r5, r6, r7, lr}
 8006566:	bf00      	nop
 8006568:	bcf8      	pop	{r3, r4, r5, r6, r7}
 800656a:	bc08      	pop	{r3}
 800656c:	469e      	mov	lr, r3
 800656e:	4770      	bx	lr

08006570 <_fini>:
 8006570:	b5f8      	push	{r3, r4, r5, r6, r7, lr}
 8006572:	bf00      	nop
 8006574:	bcf8      	pop	{r3, r4, r5, r6, r7}
 8006576:	bc08      	pop	{r3}
 8006578:	469e      	mov	lr, r3
 800657a:	4770      	bx	lr
